///////////////////////////////////////////////////////////////////////////////
//                                                                            /
// IAR ANSI C/C++ Compiler V6.50.6.4896/W32 for ARM     19/Nov/2015  14:30:55 /
// Copyright 1999-2013 IAR Systems AB.                                        /
//                                                                            /
//    Cpu mode     =  thumb                                                   /
//    Endian       =  little                                                  /
//    Source file  =  E:\Gainspan\gs2011mxx_SDK_s2w_tls_tlslp_5.1.5_GA\userap /
//                    ps_mqtt_QoS2\s2w\src\rtc_mem\app_rtc_mem.c              /
//    Command line =  E:\Gainspan\gs2011mxx_SDK_s2w_tls_tlslp_5.1.5_GA\userap /
//                    ps_mqtt_QoS2\s2w\src\rtc_mem\app_rtc_mem.c -D           /
//                    TX_ENABLE_IAR_LIBRARY_SUPPORT -D IAR -D                 /
//                    FIXED_ROM_BUILD -D RUN_ALL_FROM_FLASH -D TM_USE_HTTPD   /
//                    -D S2W_DNS_CLIENT -D NX_INCLUDE_USER_DEFINE_FILE -D     /
//                    S2W_WEB_FS_AVAILABLE -D S2W_EXTFLASH_DRIVER_TEST -D     /
//                    S2W_PWM_SUPPORT -D S2W_MEM_ACCESS -D                    /
//                    S2W_FORCE_UART_PORT -D S2W_EXT_FLASH_FWUP_PUSH_METHOD   /
//                    -D S2W_NCM_SUPPORT_ENABLE -D                            /
//                    S2W_SECURITY_ENTERPRISE_PEAP_V0_AVAILABLE -D            /
//                    S2W_EXT_FLASH_FWUP_PULL_METHOD -D                       /
//                    S2W_SECURITY_ENTERPRISE_TLS_AVAILABLE -D                /
//                    S2W_DNS_SERVER_ENABLE -D ADK_OTAFU -D S2W_GSLINK_RAW    /
//                    -D S2W_GSLINK_XML -D S2W_SECURITY_ENTERPRISE_PEAP_V1_AV /
//                    AILABLE -D S2W_PING_TRACE -D S2W_RF_TEST -D             /
//                    S2W_SSL_CLIENT_SUPPORT -D S2W_DEFAULT_UART_PARITY=0 -D  /
//                    S2W_DHCP_SERVER_ENABLE -D S2W_SECURITY_WPS_ENABLE -D    /
//                    ADK_PROV_CONFIG_LIMITED_AP -D S2W_WEB_SERVER -D         /
//                    ADK_PROV -D S2W_DEFAULT_UART_SW_FLOW=0 -D               /
//                    S2W_FILE_UPLOAD_API -D S2W_COAP_SUPPORT -D              /
//                    S2W_HTTPD_SSLCERT_UPLOAD -D                             /
//                    S2W_DEFAULT_UART_STOP_BITS=0 -D S2W_FACT_IMAGE_REQ -D   /
//                    S2W_DEFAULT_UART_BAUD=9600 -D S2W_ASYNC_MSG -D          /
//                    S2W_HTTPS_SUPPORT -D S2W_DEFAULT_UART_HW_FLOW=0 -D      /
//                    S2W_SECURITY_ENTERPRISE_FAST_GTC_AVAILABLE -D           /
//                    S2W_WEB_PROV -D S2W_UNASSOC_TXRX_SUPPORT -D S2W_SNTP    /
//                    -D S2W_UART_ENABLE -D S2W_GSLINK_XMLNESTED_PARSER -D    /
//                    S2W_GSLINK -D S2W_SECURITY_ENTERPRISE_TTLS_AVAILABLE    /
//                    -D S2W_ADC_SUPPORT -D S2W_HTTPC_SUPPORT -D              /
//                    S2W_SECURITY_ENTERPRISE_FAST_MSCHAPV2_AVAILABLE -D      /
//                    S2W_SSL_SERVER_SUPPORT -D ADK_PROV_CONFIG_CLIENT -D     /
//                    S2W_DEFAULT_UART_BITS_PER_CHAR=3 -D S2W_MDNS_ENABLE     /
//                    -lC E:\Gainspan\gs2011mxx_SDK_s2w_tls_tlslp_5.1.5_GA\us /
//                    erapps_mqtt_QoS2\s2w\build\Debug\List\ -lA              /
//                    E:\Gainspan\gs2011mxx_SDK_s2w_tls_tlslp_5.1.5_GA\userap /
//                    ps_mqtt_QoS2\s2w\build\Debug\List\ --diag_suppress      /
//                    Pa050,Pe231,Pe177 -o E:\Gainspan\gs2011mxx_SDK_s2w_tls_ /
//                    tlslp_5.1.5_GA\userapps_mqtt_QoS2\s2w\build\Debug\Obj\  /
//                    --debug --endian=little --cpu=Cortex-M3 -e --fpu=None   /
//                    --dlib_config "C:\Program Files (x86)\IAR               /
//                    Systems\Embedded Workbench                              /
//                    6.5\arm\INC\c\DLib_Config_Full.h" -I                    /
//                    E:\Gainspan\gs2011mxx_SDK_s2w_tls_tlslp_5.1.5_GA\userap /
//                    ps_mqtt_QoS2\s2w\build\..\..\..\geps\inc\ -I            /
//                    E:\Gainspan\gs2011mxx_SDK_s2w_tls_tlslp_5.1.5_GA\userap /
//                    ps_mqtt_QoS2\s2w\build\..\..\..\geps\inc\core\ -I       /
//                    E:\Gainspan\gs2011mxx_SDK_s2w_tls_tlslp_5.1.5_GA\userap /
//                    ps_mqtt_QoS2\s2w\build\..\..\..\geps\inc\drivers\ -I    /
//                    E:\Gainspan\gs2011mxx_SDK_s2w_tls_tlslp_5.1.5_GA\userap /
//                    ps_mqtt_QoS2\s2w\build\..\..\..\geps\inc\modules\ -I    /
//                    E:\Gainspan\gs2011mxx_SDK_s2w_tls_tlslp_5.1.5_GA\userap /
//                    ps_mqtt_QoS2\s2w\build\..\..\..\geps\inc\rtos\ -I       /
//                    E:\Gainspan\gs2011mxx_SDK_s2w_tls_tlslp_5.1.5_GA\userap /
//                    ps_mqtt_QoS2\s2w\build\..\..\..\geps\inc\netx\ -I       /
//                    E:\Gainspan\gs2011mxx_SDK_s2w_tls_tlslp_5.1.5_GA\userap /
//                    ps_mqtt_QoS2\s2w\build\..\..\..\geps\inc\netx\netx_bsd_ /
//                    layer\ -I E:\Gainspan\gs2011mxx_SDK_s2w_tls_tlslp_5.1.5 /
//                    _GA\userapps_mqtt_QoS2\s2w\build\..\..\..\geps\inc\main /
//                    \ -I E:\Gainspan\gs2011mxx_SDK_s2w_tls_tlslp_5.1.5_GA\u /
//                    serapps_mqtt_QoS2\s2w\build\..\..\..\geps\inc\fs\ -I    /
//                    E:\Gainspan\gs2011mxx_SDK_s2w_tls_tlslp_5.1.5_GA\userap /
//                    ps_mqtt_QoS2\s2w\build\..\..\..\geps\inc\fs\hcc\src\    /
//                    -I E:\Gainspan\gs2011mxx_SDK_s2w_tls_tlslp_5.1.5_GA\use /
//                    rapps_mqtt_QoS2\s2w\build\..\..\..\geps\inc\security\sr /
//                    c\ -I E:\Gainspan\gs2011mxx_SDK_s2w_tls_tlslp_5.1.5_GA\ /
//                    userapps_mqtt_QoS2\s2w\build\..\..\..\geps\inc\security /
//                    \hw_engine_if\ -I E:\Gainspan\gs2011mxx_SDK_s2w_tls_tls /
//                    lp_5.1.5_GA\userapps_mqtt_QoS2\s2w\build\..\..\..\geps\ /
//                    inc\security\wpa_if\ -I E:\Gainspan\gs2011mxx_SDK_s2w_t /
//                    ls_tlslp_5.1.5_GA\userapps_mqtt_QoS2\s2w\build\..\..\.. /
//                    \userlib\ncm\inc\ -I E:\Gainspan\gs2011mxx_SDK_s2w_tls_ /
//                    tlslp_5.1.5_GA\userapps_mqtt_QoS2\s2w\build\..\..\..\us /
//                    erlib\ -I E:\Gainspan\gs2011mxx_SDK_s2w_tls_tlslp_5.1.5 /
//                    _GA\userapps_mqtt_QoS2\s2w\build\..\inc\ctx\ -I         /
//                    E:\Gainspan\gs2011mxx_SDK_s2w_tls_tlslp_5.1.5_GA\userap /
//                    ps_mqtt_QoS2\s2w\build\..\inc\ -I                       /
//                    E:\Gainspan\gs2011mxx_SDK_s2w_tls_tlslp_5.1.5_GA\userap /
//                    ps_mqtt_QoS2\s2w\build\..\inc\main\ -I                  /
//                    E:\Gainspan\gs2011mxx_SDK_s2w_tls_tlslp_5.1.5_GA\userap /
//                    ps_mqtt_QoS2\s2w\build\..\inc\hal\ -I                   /
//                    E:\Gainspan\gs2011mxx_SDK_s2w_tls_tlslp_5.1.5_GA\userap /
//                    ps_mqtt_QoS2\s2w\build\..\inc\parser\ -I                /
//                    E:\Gainspan\gs2011mxx_SDK_s2w_tls_tlslp_5.1.5_GA\userap /
//                    ps_mqtt_QoS2\s2w\build\..\inc\config\ -I                /
//                    E:\Gainspan\gs2011mxx_SDK_s2w_tls_tlslp_5.1.5_GA\userap /
//                    ps_mqtt_QoS2\s2w\build\..\src\ -I                       /
//                    E:\Gainspan\gs2011mxx_SDK_s2w_tls_tlslp_5.1.5_GA\userap /
//                    ps_mqtt_QoS2\s2w\build\..\..\..\adk\otafu\inc\ -I       /
//                    E:\Gainspan\gs2011mxx_SDK_s2w_tls_tlslp_5.1.5_GA\userap /
//                    ps_mqtt_QoS2\s2w\build\..\..\..\adk\provisioning\inc\   /
//                    -I E:\Gainspan\gs2011mxx_SDK_s2w_tls_tlslp_5.1.5_GA\use /
//                    rapps_mqtt_QoS2\s2w\build\..\inc\mqtt\ -I               /
//                    E:\Gainspan\gs2011mxx_SDK_s2w_tls_tlslp_5.1.5_GA\userap /
//                    ps_mqtt_QoS2\s2w\build\..\src\mqtt\ -I                  /
//                    E:\Gainspan\gs2011mxx_SDK_s2w_tls_tlslp_5.1.5_GA\userap /
//                    ps_mqtt_QoS2\s2w\build\..\inc\one_wire\ -I              /
//                    E:\Gainspan\gs2011mxx_SDK_s2w_tls_tlslp_5.1.5_GA\userap /
//                    ps_mqtt_QoS2\s2w\build\..\src\one_wire\ -I              /
//                    E:\Gainspan\gs2011mxx_SDK_s2w_tls_tlslp_5.1.5_GA\userap /
//                    ps_mqtt_QoS2\s2w\build\..\inc\linked_list\ -I           /
//                    E:\Gainspan\gs2011mxx_SDK_s2w_tls_tlslp_5.1.5_GA\userap /
//                    ps_mqtt_QoS2\s2w\build\..\src\linked_list\ -I           /
//                    E:\Gainspan\gs2011mxx_SDK_s2w_tls_tlslp_5.1.5_GA\userap /
//                    ps_mqtt_QoS2\s2w\build\..\inc\mqtt_main\ -I             /
//                    E:\Gainspan\gs2011mxx_SDK_s2w_tls_tlslp_5.1.5_GA\userap /
//                    ps_mqtt_QoS2\s2w\build\..\src\mqtt_main\ -I             /
//                    E:\Gainspan\gs2011mxx_SDK_s2w_tls_tlslp_5.1.5_GA\userap /
//                    ps_mqtt_QoS2\s2w\build\..\inc\mqtt_log\ -I              /
//                    E:\Gainspan\gs2011mxx_SDK_s2w_tls_tlslp_5.1.5_GA\userap /
//                    ps_mqtt_QoS2\s2w\build\..\src\mqtt_log\ -Ohz            /
//                    --use_c++_inline -I "C:\Program Files (x86)\IAR         /
//                    Systems\Embedded Workbench 6.5\arm\CMSIS\Include\"      /
//    List file    =  E:\Gainspan\gs2011mxx_SDK_s2w_tls_tlslp_5.1.5_GA\userap /
//                    ps_mqtt_QoS2\s2w\build\Debug\List\app_rtc_mem.s         /
//                                                                            /
//                                                                            /
///////////////////////////////////////////////////////////////////////////////

        NAME app_rtc_mem

        RTMODEL "__SystemLibrary", "DLib"
        RTMODEL "__dlib_file_descriptor", "1"
        RTMODEL "__dlib_full_locale_support", "1"
        AAPCS BASE,INTERWORK
        PRESERVE8
        REQUIRE8

        #define SHT_PROGBITS 0x1

        EXTERN __aeabi_memset

        PUBLIC APP_RtcInit
        PUBLIC memset
        
          CFI Names cfiNames0
          CFI StackFrame CFA R13 DATA
          CFI Resource R0:32, R1:32, R2:32, R3:32, R4:32, R5:32, R6:32, R7:32
          CFI Resource R8:32, R9:32, R10:32, R11:32, R12:32, R13:32, R14:32
          CFI EndNames cfiNames0
        
          CFI Common cfiCommon0 Using cfiNames0
          CFI CodeAlign 2
          CFI DataAlign 4
          CFI ReturnAddress R14 CODE
          CFI CFA R13+0
          CFI R0 Undefined
          CFI R1 Undefined
          CFI R2 Undefined
          CFI R3 Undefined
          CFI R4 SameValue
          CFI R5 SameValue
          CFI R6 SameValue
          CFI R7 SameValue
          CFI R8 SameValue
          CFI R9 SameValue
          CFI R10 SameValue
          CFI R11 SameValue
          CFI R12 Undefined
          CFI R14 SameValue
          CFI EndCommon cfiCommon0
        
// E:\Gainspan\gs2011mxx_SDK_s2w_tls_tlslp_5.1.5_GA\userapps_mqtt_QoS2\s2w\src\rtc_mem\app_rtc_mem.c
//    1 /******************************************************************************
//    2 *
//    3 *               COPYRIGHT (c) 2006-2010 GainSpan Corporation
//    4 *                         All Rights Reserved
//    5 *
//    6 * The source code contained or described herein and all documents
//    7 * related to the source code ("Material") are owned by GainSpan
//    8 * Corporation or its licensors.  Title to the Material remains
//    9 * with GainSpan Corporation or its suppliers and licensors.
//   10 *
//   11 * The Material is protected by worldwide copyright and trade secret
//   12 * laws and treaty provisions. No part of the Material may be used,
//   13 * copied, reproduced, modified, published, uploaded, posted, transmitted,
//   14 * distributed, or disclosed in any way except in accordance with the
//   15 * applicable license agreement.
//   16 *
//   17 * No license under any patent, copyright, trade secret or other
//   18 * intellectual property right is granted to or conferred upon you by
//   19 * disclosure or delivery of the Materials, either expressly, by
//   20 * implication, inducement, estoppel, except in accordance with the
//   21 * applicable license agreement.
//   22 *
//   23 * Unless otherwise agreed by GainSpan in writing, you may not remove or
//   24 * alter this notice or any other notice embedded in Materials by GainSpan
//   25 * or GainSpan's suppliers or licensors in any way.
//   26 *
//   27 * $RCSfile: app_rtc_mem.c,v $
//   28 *
//   29 * Description : This file contains RTC memory structure definition.
//   30 * parameters  .
//   31 ******************************************************************/
//   32 #include "rtos/tx_api.h"

        SECTION `.text`:CODE:REORDER:NOROOT(1)
        SECTION_GROUP memset
          CFI Block cfiBlock0 Using cfiCommon0
          CFI Function memset
        THUMB
// __intrinsic __nounwind __interwork __softfp void *memset(void *, int, size_t)
memset:
        PUSH     {R4,LR}
          CFI R14 Frame(CFA, -4)
          CFI R4 Frame(CFA, -8)
          CFI CFA R13+8
        MOV      R4,R0
        MOV      R0,R2
        MOV      R2,R1
        MOV      R1,R0
        MOV      R0,R4
          CFI FunCall __aeabi_memset
        BL       __aeabi_memset
        MOV      R0,R4
        POP      {R4,PC}          ;; return
          CFI EndBlock cfiBlock0
//   33 #include "rtos/tx_initialize.h"
//   34 #include "gsn_includes.h"
//   35 #include "gsn_ncm.h"
//   36 #include "main/app_main_ctx.h"
//   37 #include "config/app_resource_config.h"
//   38 #include "app_events.h"
//   39 #include "app_rtc_mem.h"
//   40 

        SECTION `.text`:CODE:NOROOT(2)
          CFI Block cfiBlock1 Using cfiCommon0
          CFI Function APP_RtcInit
        THUMB
//   41 PUBLIC VOID
//   42 APP_RtcInit(UINT8 clearRtcMem)
//   43 {
APP_RtcInit:
        PUSH     {R3-R5,LR}
          CFI R14 Frame(CFA, -4)
          CFI R5 Frame(CFA, -8)
          CFI R4 Frame(CFA, -12)
          CFI CFA R13+16
//   44 	APP_RTC_LATCH_MEM_INFO_T *pAppRtcLtchMemInfo = App_RtcLatchMemInfoPtrGet();
//   45 	APP_RTC_SECNDRY_MEM_INFO_T *PAppRtcSecMemInfo = App_RtcSecMemInfoPtrGet();
//   46 
//   47     /*UINT32 rstSize = sizeof(APP_RTC_LATCH_MEM_INFO_T) - offsetof(APP_RTC_LATCH_MEM_INFO_T, ifc_1) - sizeof(GSN_SYS_RESERVD_RTC_INFO_T);*/
//   48     /* If reset size exceeds 1024 bytes, address gets rounded to 0 and starting memory gets reset */
//   49     UINT32 rstSize = 1024 - offsetof(APP_RTC_LATCH_MEM_INFO_T, ifc_1) - sizeof(GSN_SYS_RESERVD_RTC_INFO_T);
//   50 	GSN_SYS_RTC_INFO_INIT_PARAM_T param;
//   51 	
//   52 	//GsnRtc_RtcSramBlockEn(GSN_RTC_SRAM_BLOCK0);
//   53 	if(clearRtcMem == 1)
        LDR.N    R4,??APP_RtcInit_0  ;; 0x41100000
        LDR.N    R5,??APP_RtcInit_0+0x4  ;; 0x41010000
        CMP      R0,#+1
        BNE.N    ??APP_RtcInit_1
//   54 	{
//   55 		memset((INT8 *)GSN_RTC_LATCH_MEM_ADDR, 0, GSN_RTC_LATCH_MEM_BLOCK_SIZE);
        MOV      R2,#+1024
        MOVS     R1,#+0
        MOV      R0,R5
        B.N      ??APP_RtcInit_2
//   56 		memset((INT8 *)GSN_RTC_SRAM_BLOCK0_ADDR, 0, GSN_RTC_SRAM_BLOCK_SIZE);
//   57 	}
//   58 	else if(clearRtcMem == 2)
??APP_RtcInit_1:
        CMP      R0,#+2
        BNE.N    ??APP_RtcInit_3
//   59 	{
//   60 		memset(&pAppRtcLtchMemInfo->ifc_1, 0, rstSize);
        MOV      R2,#+864
        MOVS     R1,#+0
        LDR.N    R0,??APP_RtcInit_0+0x8  ;; 0x410100a0
??APP_RtcInit_2:
          CFI FunCall memset
        BL       memset
//   61 		/* Reset secondary memory in the case of ext reset. Required if host always do reset */
//   62 		memset((INT8 *)GSN_RTC_SRAM_BLOCK0_ADDR, 0, GSN_RTC_SRAM_BLOCK_SIZE);
        MOV      R2,#+4096
        MOVS     R1,#+0
        MOV      R0,R4
          CFI FunCall memset
        BL       memset
//   63 	}
//   64 	
//   65 	param.sysStatsLocation = (UINT32)&pAppRtcLtchMemInfo->sysStats;
//   66 	param.sysResetInfoRtcLocn = (UINT32)&pAppRtcLtchMemInfo->sysResetInfo;
//   67 	param.cryptoSeedLocn = (UINT32)&PAppRtcSecMemInfo->cryptoSeed[0];
//   68 	GsnSysRtcInfo_Init(&param);	
??APP_RtcInit_3:
        LDR.N    R0,??APP_RtcInit_0+0xC  ;; 0x41010238
        STR      R0,[R5, #+20]
        LDR.N    R0,??APP_RtcInit_0+0x10  ;; 0x41010058
        STR      R0,[R5, #+16]
        LDR.N    R0,??APP_RtcInit_0+0x14  ;; 0x41100604
        STR      R0,[R5, #+24]
//   69 
//   70 	GSN_RTC_RSVD_INFO_VALID_SET();
        MOV      R0,#-1785358955
        STR      R0,[R5, #+0]
//   71 }
        POP      {R0,R4,R5,PC}    ;; return
        DATA
??APP_RtcInit_0:
        DC32     0x41100000
        DC32     0x41010000
        DC32     0x410100a0
        DC32     0x41010238
        DC32     0x41010058
        DC32     0x41100604
          CFI EndBlock cfiBlock1

        SECTION `.iar_vfe_header`:DATA:REORDER:NOALLOC:NOROOT(2)
        SECTION_TYPE SHT_PROGBITS, 0
        DATA
        DC32 0

        SECTION __DLIB_PERTHREAD:DATA:REORDER:NOROOT(0)
        SECTION_TYPE SHT_PROGBITS, 0

        SECTION __DLIB_PERTHREAD_init:DATA:REORDER:NOROOT(0)
        SECTION_TYPE SHT_PROGBITS, 0

        END
//   72 
// 
// 112 bytes in section .text
// 
// 92 bytes of CODE memory (+ 20 bytes shared)
//
//Errors: none
//Warnings: none
