///////////////////////////////////////////////////////////////////////////////
//                                                                            /
// IAR ANSI C/C++ Compiler V6.50.6.4896/W32 for ARM     19/Nov/2015  14:30:57 /
// Copyright 1999-2013 IAR Systems AB.                                        /
//                                                                            /
//    Cpu mode     =  thumb                                                   /
//    Endian       =  little                                                  /
//    Source file  =  E:\Gainspan\gs2011mxx_SDK_s2w_tls_tlslp_5.1.5_GA\userap /
//                    ps_mqtt_QoS2\s2w\src\linked_list\linked_list.c          /
//    Command line =  E:\Gainspan\gs2011mxx_SDK_s2w_tls_tlslp_5.1.5_GA\userap /
//                    ps_mqtt_QoS2\s2w\src\linked_list\linked_list.c -D       /
//                    TX_ENABLE_IAR_LIBRARY_SUPPORT -D IAR -D                 /
//                    FIXED_ROM_BUILD -D RUN_ALL_FROM_FLASH -D TM_USE_HTTPD   /
//                    -D S2W_DNS_CLIENT -D NX_INCLUDE_USER_DEFINE_FILE -D     /
//                    S2W_WEB_FS_AVAILABLE -D S2W_EXTFLASH_DRIVER_TEST -D     /
//                    S2W_PWM_SUPPORT -D S2W_MEM_ACCESS -D                    /
//                    S2W_FORCE_UART_PORT -D S2W_EXT_FLASH_FWUP_PUSH_METHOD   /
//                    -D S2W_NCM_SUPPORT_ENABLE -D                            /
//                    S2W_SECURITY_ENTERPRISE_PEAP_V0_AVAILABLE -D            /
//                    S2W_EXT_FLASH_FWUP_PULL_METHOD -D                       /
//                    S2W_SECURITY_ENTERPRISE_TLS_AVAILABLE -D                /
//                    S2W_DNS_SERVER_ENABLE -D ADK_OTAFU -D S2W_GSLINK_RAW    /
//                    -D S2W_GSLINK_XML -D S2W_SECURITY_ENTERPRISE_PEAP_V1_AV /
//                    AILABLE -D S2W_PING_TRACE -D S2W_RF_TEST -D             /
//                    S2W_SSL_CLIENT_SUPPORT -D S2W_DEFAULT_UART_PARITY=0 -D  /
//                    S2W_DHCP_SERVER_ENABLE -D S2W_SECURITY_WPS_ENABLE -D    /
//                    ADK_PROV_CONFIG_LIMITED_AP -D S2W_WEB_SERVER -D         /
//                    ADK_PROV -D S2W_DEFAULT_UART_SW_FLOW=0 -D               /
//                    S2W_FILE_UPLOAD_API -D S2W_COAP_SUPPORT -D              /
//                    S2W_HTTPD_SSLCERT_UPLOAD -D                             /
//                    S2W_DEFAULT_UART_STOP_BITS=0 -D S2W_FACT_IMAGE_REQ -D   /
//                    S2W_DEFAULT_UART_BAUD=9600 -D S2W_ASYNC_MSG -D          /
//                    S2W_HTTPS_SUPPORT -D S2W_DEFAULT_UART_HW_FLOW=0 -D      /
//                    S2W_SECURITY_ENTERPRISE_FAST_GTC_AVAILABLE -D           /
//                    S2W_WEB_PROV -D S2W_UNASSOC_TXRX_SUPPORT -D S2W_SNTP    /
//                    -D S2W_UART_ENABLE -D S2W_GSLINK_XMLNESTED_PARSER -D    /
//                    S2W_GSLINK -D S2W_SECURITY_ENTERPRISE_TTLS_AVAILABLE    /
//                    -D S2W_ADC_SUPPORT -D S2W_HTTPC_SUPPORT -D              /
//                    S2W_SECURITY_ENTERPRISE_FAST_MSCHAPV2_AVAILABLE -D      /
//                    S2W_SSL_SERVER_SUPPORT -D ADK_PROV_CONFIG_CLIENT -D     /
//                    S2W_DEFAULT_UART_BITS_PER_CHAR=3 -D S2W_MDNS_ENABLE     /
//                    -lC E:\Gainspan\gs2011mxx_SDK_s2w_tls_tlslp_5.1.5_GA\us /
//                    erapps_mqtt_QoS2\s2w\build\Debug\List\ -lA              /
//                    E:\Gainspan\gs2011mxx_SDK_s2w_tls_tlslp_5.1.5_GA\userap /
//                    ps_mqtt_QoS2\s2w\build\Debug\List\ --diag_suppress      /
//                    Pa050,Pe231,Pe177 -o E:\Gainspan\gs2011mxx_SDK_s2w_tls_ /
//                    tlslp_5.1.5_GA\userapps_mqtt_QoS2\s2w\build\Debug\Obj\  /
//                    --debug --endian=little --cpu=Cortex-M3 -e --fpu=None   /
//                    --dlib_config "C:\Program Files (x86)\IAR               /
//                    Systems\Embedded Workbench                              /
//                    6.5\arm\INC\c\DLib_Config_Full.h" -I                    /
//                    E:\Gainspan\gs2011mxx_SDK_s2w_tls_tlslp_5.1.5_GA\userap /
//                    ps_mqtt_QoS2\s2w\build\..\..\..\geps\inc\ -I            /
//                    E:\Gainspan\gs2011mxx_SDK_s2w_tls_tlslp_5.1.5_GA\userap /
//                    ps_mqtt_QoS2\s2w\build\..\..\..\geps\inc\core\ -I       /
//                    E:\Gainspan\gs2011mxx_SDK_s2w_tls_tlslp_5.1.5_GA\userap /
//                    ps_mqtt_QoS2\s2w\build\..\..\..\geps\inc\drivers\ -I    /
//                    E:\Gainspan\gs2011mxx_SDK_s2w_tls_tlslp_5.1.5_GA\userap /
//                    ps_mqtt_QoS2\s2w\build\..\..\..\geps\inc\modules\ -I    /
//                    E:\Gainspan\gs2011mxx_SDK_s2w_tls_tlslp_5.1.5_GA\userap /
//                    ps_mqtt_QoS2\s2w\build\..\..\..\geps\inc\rtos\ -I       /
//                    E:\Gainspan\gs2011mxx_SDK_s2w_tls_tlslp_5.1.5_GA\userap /
//                    ps_mqtt_QoS2\s2w\build\..\..\..\geps\inc\netx\ -I       /
//                    E:\Gainspan\gs2011mxx_SDK_s2w_tls_tlslp_5.1.5_GA\userap /
//                    ps_mqtt_QoS2\s2w\build\..\..\..\geps\inc\netx\netx_bsd_ /
//                    layer\ -I E:\Gainspan\gs2011mxx_SDK_s2w_tls_tlslp_5.1.5 /
//                    _GA\userapps_mqtt_QoS2\s2w\build\..\..\..\geps\inc\main /
//                    \ -I E:\Gainspan\gs2011mxx_SDK_s2w_tls_tlslp_5.1.5_GA\u /
//                    serapps_mqtt_QoS2\s2w\build\..\..\..\geps\inc\fs\ -I    /
//                    E:\Gainspan\gs2011mxx_SDK_s2w_tls_tlslp_5.1.5_GA\userap /
//                    ps_mqtt_QoS2\s2w\build\..\..\..\geps\inc\fs\hcc\src\    /
//                    -I E:\Gainspan\gs2011mxx_SDK_s2w_tls_tlslp_5.1.5_GA\use /
//                    rapps_mqtt_QoS2\s2w\build\..\..\..\geps\inc\security\sr /
//                    c\ -I E:\Gainspan\gs2011mxx_SDK_s2w_tls_tlslp_5.1.5_GA\ /
//                    userapps_mqtt_QoS2\s2w\build\..\..\..\geps\inc\security /
//                    \hw_engine_if\ -I E:\Gainspan\gs2011mxx_SDK_s2w_tls_tls /
//                    lp_5.1.5_GA\userapps_mqtt_QoS2\s2w\build\..\..\..\geps\ /
//                    inc\security\wpa_if\ -I E:\Gainspan\gs2011mxx_SDK_s2w_t /
//                    ls_tlslp_5.1.5_GA\userapps_mqtt_QoS2\s2w\build\..\..\.. /
//                    \userlib\ncm\inc\ -I E:\Gainspan\gs2011mxx_SDK_s2w_tls_ /
//                    tlslp_5.1.5_GA\userapps_mqtt_QoS2\s2w\build\..\..\..\us /
//                    erlib\ -I E:\Gainspan\gs2011mxx_SDK_s2w_tls_tlslp_5.1.5 /
//                    _GA\userapps_mqtt_QoS2\s2w\build\..\inc\ctx\ -I         /
//                    E:\Gainspan\gs2011mxx_SDK_s2w_tls_tlslp_5.1.5_GA\userap /
//                    ps_mqtt_QoS2\s2w\build\..\inc\ -I                       /
//                    E:\Gainspan\gs2011mxx_SDK_s2w_tls_tlslp_5.1.5_GA\userap /
//                    ps_mqtt_QoS2\s2w\build\..\inc\main\ -I                  /
//                    E:\Gainspan\gs2011mxx_SDK_s2w_tls_tlslp_5.1.5_GA\userap /
//                    ps_mqtt_QoS2\s2w\build\..\inc\hal\ -I                   /
//                    E:\Gainspan\gs2011mxx_SDK_s2w_tls_tlslp_5.1.5_GA\userap /
//                    ps_mqtt_QoS2\s2w\build\..\inc\parser\ -I                /
//                    E:\Gainspan\gs2011mxx_SDK_s2w_tls_tlslp_5.1.5_GA\userap /
//                    ps_mqtt_QoS2\s2w\build\..\inc\config\ -I                /
//                    E:\Gainspan\gs2011mxx_SDK_s2w_tls_tlslp_5.1.5_GA\userap /
//                    ps_mqtt_QoS2\s2w\build\..\src\ -I                       /
//                    E:\Gainspan\gs2011mxx_SDK_s2w_tls_tlslp_5.1.5_GA\userap /
//                    ps_mqtt_QoS2\s2w\build\..\..\..\adk\otafu\inc\ -I       /
//                    E:\Gainspan\gs2011mxx_SDK_s2w_tls_tlslp_5.1.5_GA\userap /
//                    ps_mqtt_QoS2\s2w\build\..\..\..\adk\provisioning\inc\   /
//                    -I E:\Gainspan\gs2011mxx_SDK_s2w_tls_tlslp_5.1.5_GA\use /
//                    rapps_mqtt_QoS2\s2w\build\..\inc\mqtt\ -I               /
//                    E:\Gainspan\gs2011mxx_SDK_s2w_tls_tlslp_5.1.5_GA\userap /
//                    ps_mqtt_QoS2\s2w\build\..\src\mqtt\ -I                  /
//                    E:\Gainspan\gs2011mxx_SDK_s2w_tls_tlslp_5.1.5_GA\userap /
//                    ps_mqtt_QoS2\s2w\build\..\inc\one_wire\ -I              /
//                    E:\Gainspan\gs2011mxx_SDK_s2w_tls_tlslp_5.1.5_GA\userap /
//                    ps_mqtt_QoS2\s2w\build\..\src\one_wire\ -I              /
//                    E:\Gainspan\gs2011mxx_SDK_s2w_tls_tlslp_5.1.5_GA\userap /
//                    ps_mqtt_QoS2\s2w\build\..\inc\linked_list\ -I           /
//                    E:\Gainspan\gs2011mxx_SDK_s2w_tls_tlslp_5.1.5_GA\userap /
//                    ps_mqtt_QoS2\s2w\build\..\src\linked_list\ -I           /
//                    E:\Gainspan\gs2011mxx_SDK_s2w_tls_tlslp_5.1.5_GA\userap /
//                    ps_mqtt_QoS2\s2w\build\..\inc\mqtt_main\ -I             /
//                    E:\Gainspan\gs2011mxx_SDK_s2w_tls_tlslp_5.1.5_GA\userap /
//                    ps_mqtt_QoS2\s2w\build\..\src\mqtt_main\ -I             /
//                    E:\Gainspan\gs2011mxx_SDK_s2w_tls_tlslp_5.1.5_GA\userap /
//                    ps_mqtt_QoS2\s2w\build\..\inc\mqtt_log\ -I              /
//                    E:\Gainspan\gs2011mxx_SDK_s2w_tls_tlslp_5.1.5_GA\userap /
//                    ps_mqtt_QoS2\s2w\build\..\src\mqtt_log\ -Ohz            /
//                    --use_c++_inline -I "C:\Program Files (x86)\IAR         /
//                    Systems\Embedded Workbench 6.5\arm\CMSIS\Include\"      /
//    List file    =  E:\Gainspan\gs2011mxx_SDK_s2w_tls_tlslp_5.1.5_GA\userap /
//                    ps_mqtt_QoS2\s2w\build\Debug\List\linked_list.s         /
//                                                                            /
//                                                                            /
///////////////////////////////////////////////////////////////////////////////

        NAME linked_list

        RTMODEL "__SystemLibrary", "DLib"
        RTMODEL "__dlib_file_descriptor", "1"
        RTMODEL "__dlib_full_locale_support", "1"
        AAPCS BASE,INTERWORK
        PRESERVE8
        REQUIRE8

        #define SHT_PROGBITS 0x1

        EXTERN GsnDynMemMgmt_Alloc
        EXTERN GsnDynMemMgmt_Free
        EXTERN __aeabi_memcpy

        PUBLIC list_count
        PUBLIC list_get
        PUBLIC list_put
        PUBLIC makeNode
        
          CFI Names cfiNames0
          CFI StackFrame CFA R13 DATA
          CFI Resource R0:32, R1:32, R2:32, R3:32, R4:32, R5:32, R6:32, R7:32
          CFI Resource R8:32, R9:32, R10:32, R11:32, R12:32, R13:32, R14:32
          CFI EndNames cfiNames0
        
          CFI Common cfiCommon0 Using cfiNames0
          CFI CodeAlign 2
          CFI DataAlign 4
          CFI ReturnAddress R14 CODE
          CFI CFA R13+0
          CFI R0 Undefined
          CFI R1 Undefined
          CFI R2 Undefined
          CFI R3 Undefined
          CFI R4 SameValue
          CFI R5 SameValue
          CFI R6 SameValue
          CFI R7 SameValue
          CFI R8 SameValue
          CFI R9 SameValue
          CFI R10 SameValue
          CFI R11 SameValue
          CFI R12 Undefined
          CFI R14 SameValue
          CFI EndCommon cfiCommon0
        
// E:\Gainspan\gs2011mxx_SDK_s2w_tls_tlslp_5.1.5_GA\userapps_mqtt_QoS2\s2w\src\linked_list\linked_list.c
//    1 #include "gsn_includes.h"
//    2 #include "linked_list/linked_list.h"
//    3 #include "mqtt_main/mqtt_main.h"
//    4 
//    5 
//    6 

        SECTION `.text`:CODE:NOROOT(1)
          CFI Block cfiBlock0 Using cfiCommon0
          CFI Function makeNode
        THUMB
//    7 Node *makeNode(MSG_TYPE* msg_list)
//    8 {
makeNode:
        PUSH     {R3-R5,LR}
          CFI R14 Frame(CFA, -4)
          CFI R5 Frame(CFA, -8)
          CFI R4 Frame(CFA, -12)
          CFI CFA R13+16
        MOV      R4,R0
//    9 
//   10   Node* result = (Node*)gsn_malloc(sizeof(Node));
        MOVS     R2,#+0
        MOVS     R1,#+10
        MOVS     R0,#+8
          CFI FunCall GsnDynMemMgmt_Alloc
        BL       GsnDynMemMgmt_Alloc
        MOV      R5,R0
//   11   result->msg_pointer = gsn_malloc(sizeof(MSG_TYPE));
        MOVS     R2,#+0
        MOVS     R1,#+11
        MOVS     R0,#+24
          CFI FunCall GsnDynMemMgmt_Alloc
        BL       GsnDynMemMgmt_Alloc
        STR      R0,[R5, #+0]
//   12 
//   13   memcpy(result->msg_pointer, msg_list, sizeof(MSG_TYPE));
        MOVS     R2,#+24
        MOV      R1,R4
          CFI FunCall __aeabi_memcpy
        BL       __aeabi_memcpy
//   14 
//   15   result->next = NULL;
        MOVS     R0,#+0
        STR      R0,[R5, #+4]
//   16   return result;
        MOV      R0,R5
        POP      {R1,R4,R5,PC}    ;; return
          CFI EndBlock cfiBlock0
//   17 }
//   18 

        SECTION `.text`:CODE:NOROOT(1)
          CFI Block cfiBlock1 Using cfiCommon0
          CFI Function list_put
        THUMB
//   19 UINT8 list_put(Node *head, MSG_TYPE* msg_list)
//   20 {
list_put:
        PUSH     {R4,LR}
          CFI R14 Frame(CFA, -4)
          CFI R4 Frame(CFA, -8)
          CFI CFA R13+8
        MOV      R4,R0
        MOV      R0,R1
//   21   Node* new_node = makeNode(msg_list);
          CFI FunCall makeNode
        BL       makeNode
//   22   Node* lastNode = head;
        B.N      ??list_put_0
//   23   
//   24   while(lastNode->next)
//   25   {
//   26 	lastNode = lastNode->next;
??list_put_1:
        MOV      R4,R1
//   27   }
??list_put_0:
        LDR      R1,[R4, #+4]
        CMP      R1,#+0
        BNE.N    ??list_put_1
//   28   lastNode->next = new_node;
        STR      R0,[R4, #+4]
//   29   return 0;
        MOVS     R0,#+0
        POP      {R4,PC}          ;; return
          CFI EndBlock cfiBlock1
//   30 }
//   31 

        SECTION `.text`:CODE:NOROOT(1)
          CFI Block cfiBlock2 Using cfiCommon0
          CFI Function list_get
        THUMB
//   32 UINT8 list_get(Node *head, MSG_TYPE** msg_type)
//   33 {
list_get:
        PUSH     {R7,LR}
          CFI R14 Frame(CFA, -4)
          CFI CFA R13+8
//   34   Node* temp = head->next;
        LDR      R2,[R0, #+4]
//   35   if(temp != NULL)
        CBZ.N    R2,??list_get_0
//   36   {
//   37 	*msg_type = temp->msg_pointer;
        LDR      R3,[R2, #+0]
        STR      R3,[R1, #+0]
//   38 	head->next = temp->next;
        LDR      R1,[R2, #+4]
        STR      R1,[R0, #+4]
//   39 	if(temp != NULL)
//   40 	{
//   41 		gsn_free(temp);
        MOV      R0,R2
          CFI FunCall GsnDynMemMgmt_Free
        BL       GsnDynMemMgmt_Free
//   42 
//   43 		temp = NULL;
//   44 	}
//   45 	return 0;
        MOVS     R0,#+0
        POP      {R1,PC}
//   46   }
//   47   return 1;
??list_get_0:
        MOVS     R0,#+1
        POP      {R1,PC}          ;; return
          CFI EndBlock cfiBlock2
//   48 }
//   49 
//   50 
//   51 

        SECTION `.text`:CODE:NOROOT(1)
          CFI Block cfiBlock3 Using cfiCommon0
          CFI Function list_count
          CFI NoCalls
        THUMB
//   52 UINT8 list_count(Node* head)
//   53 {
//   54   UINT8 node_count = 0;
list_count:
        MOVS     R1,#+0
//   55   Node* temp = head;
        B.N      ??list_count_0
//   56   
//   57   while(1)
//   58   {
//   59 	if(temp->next == NULL)
//   60 	   break;
//   61 	else
//   62 	{
//   63 	  node_count++;
??list_count_1:
        ADDS     R1,R1,#+1
//   64 	  temp = temp->next;
//   65 	}
??list_count_0:
        LDR      R0,[R0, #+4]
        CMP      R0,#+0
        BNE.N    ??list_count_1
//   66   }
//   67   return node_count;
        UXTB     R0,R1
        BX       LR               ;; return
          CFI EndBlock cfiBlock3
//   68 }

        SECTION `.iar_vfe_header`:DATA:REORDER:NOALLOC:NOROOT(2)
        SECTION_TYPE SHT_PROGBITS, 0
        DATA
        DC32 0

        SECTION __DLIB_PERTHREAD:DATA:REORDER:NOROOT(0)
        SECTION_TYPE SHT_PROGBITS, 0

        SECTION __DLIB_PERTHREAD_init:DATA:REORDER:NOROOT(0)
        SECTION_TYPE SHT_PROGBITS, 0

        END
// 
// 114 bytes in section .text
// 
// 114 bytes of CODE memory
//
//Errors: none
//Warnings: none
