///////////////////////////////////////////////////////////////////////////////
//                                                                            /
// IAR ANSI C/C++ Compiler V6.50.6.4896/W32 for ARM     19/Nov/2015  15:23:50 /
// Copyright 1999-2013 IAR Systems AB.                                        /
//                                                                            /
//    Cpu mode     =  thumb                                                   /
//    Endian       =  little                                                  /
//    Source file  =  E:\Gainspan\gs2011mxx_SDK_s2w_tls_tlslp_5.1.5_GA\userap /
//                    ps_mqtt\s2w\src\hal\s2w_net_gainspan.c                  /
//    Command line =  E:\Gainspan\gs2011mxx_SDK_s2w_tls_tlslp_5.1.5_GA\userap /
//                    ps_mqtt\s2w\src\hal\s2w_net_gainspan.c -D               /
//                    TX_ENABLE_IAR_LIBRARY_SUPPORT -D IAR -D                 /
//                    FIXED_ROM_BUILD -D RUN_ALL_FROM_FLASH -D TM_USE_HTTPD   /
//                    -D S2W_DNS_CLIENT -D NX_INCLUDE_USER_DEFINE_FILE -D     /
//                    S2W_WEB_FS_AVAILABLE -D S2W_EXTFLASH_DRIVER_TEST -D     /
//                    S2W_PWM_SUPPORT -D S2W_MEM_ACCESS -D                    /
//                    S2W_FORCE_UART_PORT -D S2W_EXT_FLASH_FWUP_PUSH_METHOD   /
//                    -D S2W_NCM_SUPPORT_ENABLE -D                            /
//                    S2W_SECURITY_ENTERPRISE_PEAP_V0_AVAILABLE -D            /
//                    S2W_EXT_FLASH_FWUP_PULL_METHOD -D                       /
//                    S2W_SECURITY_ENTERPRISE_TLS_AVAILABLE -D                /
//                    S2W_DNS_SERVER_ENABLE -D ADK_OTAFU -D S2W_GSLINK_RAW    /
//                    -D S2W_GSLINK_XML -D S2W_SECURITY_ENTERPRISE_PEAP_V1_AV /
//                    AILABLE -D S2W_PING_TRACE -D S2W_RF_TEST -D             /
//                    S2W_SSL_CLIENT_SUPPORT -D S2W_DEFAULT_UART_PARITY=0 -D  /
//                    S2W_DHCP_SERVER_ENABLE -D S2W_SECURITY_WPS_ENABLE -D    /
//                    ADK_PROV_CONFIG_LIMITED_AP -D S2W_WEB_SERVER -D         /
//                    ADK_PROV -D S2W_DEFAULT_UART_SW_FLOW=0 -D               /
//                    S2W_FILE_UPLOAD_API -D S2W_COAP_SUPPORT -D              /
//                    S2W_HTTPD_SSLCERT_UPLOAD -D                             /
//                    S2W_DEFAULT_UART_STOP_BITS=0 -D S2W_FACT_IMAGE_REQ -D   /
//                    S2W_DEFAULT_UART_BAUD=9600 -D S2W_ASYNC_MSG -D          /
//                    S2W_HTTPS_SUPPORT -D S2W_DEFAULT_UART_HW_FLOW=0 -D      /
//                    S2W_SECURITY_ENTERPRISE_FAST_GTC_AVAILABLE -D           /
//                    S2W_WEB_PROV -D S2W_UNASSOC_TXRX_SUPPORT -D S2W_SNTP    /
//                    -D S2W_UART_ENABLE -D S2W_GSLINK_XMLNESTED_PARSER -D    /
//                    S2W_GSLINK -D S2W_SECURITY_ENTERPRISE_TTLS_AVAILABLE    /
//                    -D S2W_ADC_SUPPORT -D S2W_HTTPC_SUPPORT -D              /
//                    S2W_SECURITY_ENTERPRISE_FAST_MSCHAPV2_AVAILABLE -D      /
//                    S2W_SSL_SERVER_SUPPORT -D ADK_PROV_CONFIG_CLIENT -D     /
//                    S2W_DEFAULT_UART_BITS_PER_CHAR=3 -D S2W_MDNS_ENABLE     /
//                    -lC E:\Gainspan\gs2011mxx_SDK_s2w_tls_tlslp_5.1.5_GA\us /
//                    erapps_mqtt\s2w\build\Debug\List\ -lA                   /
//                    E:\Gainspan\gs2011mxx_SDK_s2w_tls_tlslp_5.1.5_GA\userap /
//                    ps_mqtt\s2w\build\Debug\List\ --diag_suppress           /
//                    Pa050,Pe231,Pe177 -o E:\Gainspan\gs2011mxx_SDK_s2w_tls_ /
//                    tlslp_5.1.5_GA\userapps_mqtt\s2w\build\Debug\Obj\       /
//                    --debug --endian=little --cpu=Cortex-M3 -e --fpu=None   /
//                    --dlib_config "C:\Program Files (x86)\IAR               /
//                    Systems\Embedded Workbench                              /
//                    6.5\arm\INC\c\DLib_Config_Full.h" -I                    /
//                    E:\Gainspan\gs2011mxx_SDK_s2w_tls_tlslp_5.1.5_GA\userap /
//                    ps_mqtt\s2w\build\..\..\..\geps\inc\ -I                 /
//                    E:\Gainspan\gs2011mxx_SDK_s2w_tls_tlslp_5.1.5_GA\userap /
//                    ps_mqtt\s2w\build\..\..\..\geps\inc\core\ -I            /
//                    E:\Gainspan\gs2011mxx_SDK_s2w_tls_tlslp_5.1.5_GA\userap /
//                    ps_mqtt\s2w\build\..\..\..\geps\inc\drivers\ -I         /
//                    E:\Gainspan\gs2011mxx_SDK_s2w_tls_tlslp_5.1.5_GA\userap /
//                    ps_mqtt\s2w\build\..\..\..\geps\inc\modules\ -I         /
//                    E:\Gainspan\gs2011mxx_SDK_s2w_tls_tlslp_5.1.5_GA\userap /
//                    ps_mqtt\s2w\build\..\..\..\geps\inc\rtos\ -I            /
//                    E:\Gainspan\gs2011mxx_SDK_s2w_tls_tlslp_5.1.5_GA\userap /
//                    ps_mqtt\s2w\build\..\..\..\geps\inc\netx\ -I            /
//                    E:\Gainspan\gs2011mxx_SDK_s2w_tls_tlslp_5.1.5_GA\userap /
//                    ps_mqtt\s2w\build\..\..\..\geps\inc\netx\netx_bsd_layer /
//                    \ -I E:\Gainspan\gs2011mxx_SDK_s2w_tls_tlslp_5.1.5_GA\u /
//                    serapps_mqtt\s2w\build\..\..\..\geps\inc\main\ -I       /
//                    E:\Gainspan\gs2011mxx_SDK_s2w_tls_tlslp_5.1.5_GA\userap /
//                    ps_mqtt\s2w\build\..\..\..\geps\inc\fs\ -I              /
//                    E:\Gainspan\gs2011mxx_SDK_s2w_tls_tlslp_5.1.5_GA\userap /
//                    ps_mqtt\s2w\build\..\..\..\geps\inc\fs\hcc\src\ -I      /
//                    E:\Gainspan\gs2011mxx_SDK_s2w_tls_tlslp_5.1.5_GA\userap /
//                    ps_mqtt\s2w\build\..\..\..\geps\inc\security\src\ -I    /
//                    E:\Gainspan\gs2011mxx_SDK_s2w_tls_tlslp_5.1.5_GA\userap /
//                    ps_mqtt\s2w\build\..\..\..\geps\inc\security\hw_engine_ /
//                    if\ -I E:\Gainspan\gs2011mxx_SDK_s2w_tls_tlslp_5.1.5_GA /
//                    \userapps_mqtt\s2w\build\..\..\..\geps\inc\security\wpa /
//                    _if\ -I E:\Gainspan\gs2011mxx_SDK_s2w_tls_tlslp_5.1.5_G /
//                    A\userapps_mqtt\s2w\build\..\..\..\userlib\ncm\inc\ -I  /
//                    E:\Gainspan\gs2011mxx_SDK_s2w_tls_tlslp_5.1.5_GA\userap /
//                    ps_mqtt\s2w\build\..\..\..\userlib\ -I                  /
//                    E:\Gainspan\gs2011mxx_SDK_s2w_tls_tlslp_5.1.5_GA\userap /
//                    ps_mqtt\s2w\build\..\inc\ctx\ -I                        /
//                    E:\Gainspan\gs2011mxx_SDK_s2w_tls_tlslp_5.1.5_GA\userap /
//                    ps_mqtt\s2w\build\..\inc\ -I                            /
//                    E:\Gainspan\gs2011mxx_SDK_s2w_tls_tlslp_5.1.5_GA\userap /
//                    ps_mqtt\s2w\build\..\inc\main\ -I                       /
//                    E:\Gainspan\gs2011mxx_SDK_s2w_tls_tlslp_5.1.5_GA\userap /
//                    ps_mqtt\s2w\build\..\inc\hal\ -I                        /
//                    E:\Gainspan\gs2011mxx_SDK_s2w_tls_tlslp_5.1.5_GA\userap /
//                    ps_mqtt\s2w\build\..\inc\parser\ -I                     /
//                    E:\Gainspan\gs2011mxx_SDK_s2w_tls_tlslp_5.1.5_GA\userap /
//                    ps_mqtt\s2w\build\..\inc\config\ -I                     /
//                    E:\Gainspan\gs2011mxx_SDK_s2w_tls_tlslp_5.1.5_GA\userap /
//                    ps_mqtt\s2w\build\..\src\ -I                            /
//                    E:\Gainspan\gs2011mxx_SDK_s2w_tls_tlslp_5.1.5_GA\userap /
//                    ps_mqtt\s2w\build\..\..\..\adk\otafu\inc\ -I            /
//                    E:\Gainspan\gs2011mxx_SDK_s2w_tls_tlslp_5.1.5_GA\userap /
//                    ps_mqtt\s2w\build\..\..\..\adk\provisioning\inc\ -I     /
//                    E:\Gainspan\gs2011mxx_SDK_s2w_tls_tlslp_5.1.5_GA\userap /
//                    ps_mqtt\s2w\build\..\inc\mqtt\ -I                       /
//                    E:\Gainspan\gs2011mxx_SDK_s2w_tls_tlslp_5.1.5_GA\userap /
//                    ps_mqtt\s2w\build\..\src\mqtt\ -I                       /
//                    E:\Gainspan\gs2011mxx_SDK_s2w_tls_tlslp_5.1.5_GA\userap /
//                    ps_mqtt\s2w\build\..\inc\one_wire\ -I                   /
//                    E:\Gainspan\gs2011mxx_SDK_s2w_tls_tlslp_5.1.5_GA\userap /
//                    ps_mqtt\s2w\build\..\src\one_wire\ -I                   /
//                    E:\Gainspan\gs2011mxx_SDK_s2w_tls_tlslp_5.1.5_GA\userap /
//                    ps_mqtt\s2w\build\..\inc\linked_list\ -I                /
//                    E:\Gainspan\gs2011mxx_SDK_s2w_tls_tlslp_5.1.5_GA\userap /
//                    ps_mqtt\s2w\build\..\src\linked_list\ -I                /
//                    E:\Gainspan\gs2011mxx_SDK_s2w_tls_tlslp_5.1.5_GA\userap /
//                    ps_mqtt\s2w\build\..\inc\mqtt_main\ -I                  /
//                    E:\Gainspan\gs2011mxx_SDK_s2w_tls_tlslp_5.1.5_GA\userap /
//                    ps_mqtt\s2w\build\..\src\mqtt_main\ -I                  /
//                    E:\Gainspan\gs2011mxx_SDK_s2w_tls_tlslp_5.1.5_GA\userap /
//                    ps_mqtt\s2w\build\..\inc\mqtt_log\ -I                   /
//                    E:\Gainspan\gs2011mxx_SDK_s2w_tls_tlslp_5.1.5_GA\userap /
//                    ps_mqtt\s2w\build\..\src\mqtt_log\ -Ohz                 /
//                    --use_c++_inline -I "C:\Program Files (x86)\IAR         /
//                    Systems\Embedded Workbench 6.5\arm\CMSIS\Include\"      /
//    List file    =  E:\Gainspan\gs2011mxx_SDK_s2w_tls_tlslp_5.1.5_GA\userap /
//                    ps_mqtt\s2w\build\Debug\List\s2w_net_gainspan.s         /
//                                                                            /
//                                                                            /
///////////////////////////////////////////////////////////////////////////////

        NAME s2w_net_gainspan

        RTMODEL "__SystemLibrary", "DLib"
        RTMODEL "__dlib_file_descriptor", "1"
        RTMODEL "__dlib_full_locale_support", "1"
        RTMODEL "__iar_require _Printf", "flags,widths"
        AAPCS BASE,INTERWORK
        PRESERVE8
        REQUIRE8

        #define SHT_PROGBITS 0x1

        EXTERN AppMainCtx_TaskNotify
        EXTERN AppS2wHal_CharNPut
        EXTERN AppS2wHal_TimerInit
        EXTERN AppS2wHal_TimerStart
        EXTERN AppS2wHal_TimerStop
        EXTERN AppS2wHttpd_Stop
        EXTERN AppS2wParse_Int
        EXTERN AppS2wParse_NextParamGet
        EXTERN AppS2wProcess_AsyncStatusNotify
        EXTERN AppS2wProcess_NetAccept
        EXTERN AppS2wProcess_NetRx
        EXTERN AppS2wProcess_StatusNotify
        EXTERN AppS2w_ExitDpSleep
        EXTERN AppS2w_GpioWkUpDisable
        EXTERN AppS2w_PingTaskNotify
        EXTERN FREE
        EXTERN GsnDynMemMgmt_Alloc
        EXTERN GsnDynMemMgmt_Free
        EXTERN GsnHttp_Alert
        EXTERN GsnHttp_Close
        EXTERN GsnHttp_Send
        EXTERN GsnHttp_Start
        EXTERN GsnHttpd_IsRunning
        EXTERN GsnHttps_DataReceive
        EXTERN GsnMdns_Announce
        EXTERN GsnMdns_DeInit
        EXTERN GsnMdns_HostnameDeregister
        EXTERN GsnMdns_HostnameRegister
        EXTERN GsnMdns_Init
        EXTERN GsnMdns_ServiceDeRegister
        EXTERN GsnMdns_ServiceDiscover
        EXTERN GsnMdns_ServiceRegister
        EXTERN GsnNwIf_U16FieldGet
        EXTERN GsnSq_TaskMonitorStart
        EXTERN GsnSq_TaskMonitorStop
        EXTERN GsnSsl_Accept
        EXTERN GsnSsl_Alert
        EXTERN GsnSsl_Close
        EXTERN GsnSsl_DataReceive
        EXTERN GsnSsl_Encode
        EXTERN GsnSsl_Free
        EXTERN GsnSsl_Open
        EXTERN GsnSsl_ServerDeInit
        EXTERN GsnSsl_ServerInit
        EXTERN GsnTaskSleep
        EXTERN GsnTod_Get
        EXTERN GsnWdd_AssocStatusGet
        EXTERN MALLOC
        EXTERN MQTT_RECEIVE_QUEUE
        EXTERN S2wCert_FlashFileLoad
        EXTERN S2wCert_SearchRamTable
        EXTERN S2w_AsyncMsgGpioOp
        EXTERN S2w_Printf
        EXTERN S2w_UamRx
        EXTERN __aeabi_cdcmple
        EXTERN __aeabi_d2uiz
        EXTERN __aeabi_dadd
        EXTERN __aeabi_dmul
        EXTERN __aeabi_memcpy
        EXTERN __aeabi_memset
        EXTERN __aeabi_ui2d
        EXTERN __iar_Strstr
        EXTERN _nxe_icmp_ping
        EXTERN _nxe_packet_release
        EXTERN _tx_queue_create
        EXTERN _tx_queue_receive
        EXTERN _tx_queue_send
        EXTERN _tx_semaphore_create
        EXTERN _tx_semaphore_delete
        EXTERN _tx_semaphore_get
        EXTERN _tx_semaphore_put
        EXTERN _tx_thread_create
        EXTERN _tx_thread_interrupt_control
        EXTERN accept
        EXTERN appCtx
        EXTERN bind
        EXTERN connect
        EXTERN fcntl
        EXTERN getsockname
        EXTERN headerTypes
        EXTERN headerTypesModified
        EXTERN httpConfInfo
        EXTERN listen
        EXTERN memcmp
        EXTERN nx_bsd_callback_register
        EXTERN profile_params
        EXTERN recv
        EXTERN recvfrom
        EXTERN s2wAutoConnState
        EXTERN s2wCurrent
        EXTERN s2wIsAutoconnected
        EXTERN s2wPingStarted
        EXTERN s2wSpiFs_Flush
        EXTERN s2wSslConf
        EXTERN s2wState
        EXTERN s2wSyncSemID
        EXTERN s2w_ssl_cert_table
        EXTERN s2wappMainTaskCtxt
        EXTERN s2wappMainTaskNotifier
        EXTERN send
        EXTERN sendto
        EXTERN setsockopt
        EXTERN soc_close
        EXTERN socket
        EXTERN sprintf
        EXTERN strlen
        EXTERN strncmp
        EXTERN tfClose
        EXTERN tfResetConnection
        EXTERN tlsv1_client_established

        PUBLIC AppS2wHal_CidFind
        PUBLIC AppS2wHal_CidGet
        PUBLIC AppS2wHal_CidInfoGet
        PUBLIC AppS2wHal_CidListElementGet
        PUBLIC AppS2wHal_CoapHandleGet
        PUBLIC AppS2wHal_CoapParamsGet
        PUBLIC AppS2wHal_HttpCheckDns
        PUBLIC AppS2wHal_HttpClose
        PUBLIC AppS2wHal_HttpHandleGet
        PUBLIC AppS2wHal_HttpOpen
        PUBLIC AppS2wHal_HttpdClose
        PUBLIC AppS2wHal_MdnsAnnounce
        PUBLIC AppS2wHal_MdnsDeInit
        PUBLIC AppS2wHal_MdnsHostNameDereg
        PUBLIC AppS2wHal_MdnsHostNameReg
        PUBLIC AppS2wHal_MdnsInit
        PUBLIC AppS2wHal_MdnsRegCb
        PUBLIC AppS2wHal_MdnsSdCb
        PUBLIC AppS2wHal_MdnsServiceDereg
        PUBLIC AppS2wHal_MdnsServiceReg
        PUBLIC AppS2wHal_MdnsSrvcDiscover
        PUBLIC AppS2wHal_NetClose
        PUBLIC AppS2wHal_NetCloseAll
        PUBLIC AppS2wHal_NetInit
        PUBLIC AppS2wHal_NetIsCidOpen
        PUBLIC AppS2wHal_NetRecvTask
        PUBLIC AppS2wHal_NetTcpClient
        PUBLIC AppS2wHal_NetTcpClient_test
        PUBLIC AppS2wHal_NetTcpServer
        PUBLIC AppS2wHal_NetTx
        PUBLIC AppS2wHal_NetUdpClient
        PUBLIC AppS2wHal_NetUdpServer
        PUBLIC AppS2wHal_PingClose
        PUBLIC AppS2wHal_SockOpSet
        PUBLIC AppS2wHal_TcpSrvMaxConSet
        PUBLIC AppS2wRecv_Filter
        PUBLIC AppS2w_ConnHttpStateGet
        PUBLIC AppS2w_ConnModeGet
        PUBLIC AppS2w_ConnStateGet
        PUBLIC AppS2w_HttpRxBufferMgmtCb
        PUBLIC AppS2w_HttpSemAquire
        PUBLIC AppS2w_HttpSemRelease
        PUBLIC AppS2w_HttpdSemCreate
        PUBLIC AppS2w_HttpdSemDelete
        PUBLIC AppS2w_SslClientOpen
        PUBLIC AppS2w_SslClose
        PUBLIC AppS2w_SslServerOpen
        PUBLIC AppS2w_isForValidCid
        PUBLIC App_IsArpReplyPkt
        PUBLIC App_IsArpReqstPkt
        PUBLIC GsnOsal_IntrDisable
        PUBLIC GsnOsal_IntrEnable
        PUBLIC GsnOsal_QueuePut
        PUBLIC GsnOsal_SemAcquire
        PUBLIC GsnOsal_SemCreate
        PUBLIC GsnOsal_SemDelete
        PUBLIC GsnOsal_SemRelease
        PUBLIC GsnOsal_ThreadCreate
        PUBLIC GsnSocketCallback
        PUBLIC S2wHttp_Send
        PUBLIC mdnsFlag
        PUBLIC mdnsHnParam
        PUBLIC mdnsMsgQueueBuf
        PUBLIC memcpy
        PUBLIC memset
        PUBLIC s2wCidList
        PUBLIC s2wNetQueue
        PUBLIC s2wNetQueueBuffer
        PUBLIC s2wNetRecvTaskStack
        PUBLIC s2wPingStart
        PUBLIC s2wPingStats
        PUBLIC s2wPingStop
        PUBLIC s2wRxBuf
        PUBLIC s2wSocketCloseSem
        PUBLIC s2wUdpSocketCloseSem
        PUBLIC s2w_mdnsCb
        PUBLIC sslClentKey
        PUBLIC sslClientCA
        PUBLIC sslClientClient
        PUBLIC sslServerCA
        PUBLIC sslServerKey
        PUBLIC sslServerServer
        
          CFI Names cfiNames0
          CFI StackFrame CFA R13 DATA
          CFI Resource R0:32, R1:32, R2:32, R3:32, R4:32, R5:32, R6:32, R7:32
          CFI Resource R8:32, R9:32, R10:32, R11:32, R12:32, R13:32, R14:32
          CFI EndNames cfiNames0
        
          CFI Common cfiCommon0 Using cfiNames0
          CFI CodeAlign 2
          CFI DataAlign 4
          CFI ReturnAddress R14 CODE
          CFI CFA R13+0
          CFI R0 Undefined
          CFI R1 Undefined
          CFI R2 Undefined
          CFI R3 Undefined
          CFI R4 SameValue
          CFI R5 SameValue
          CFI R6 SameValue
          CFI R7 SameValue
          CFI R8 SameValue
          CFI R9 SameValue
          CFI R10 SameValue
          CFI R11 SameValue
          CFI R12 Undefined
          CFI R14 SameValue
          CFI EndCommon cfiCommon0
        
        
          CFI Common cfiCommon1 Using cfiNames0
          CFI CodeAlign 2
          CFI DataAlign 4
          CFI ReturnAddress R14 CODE
          CFI CFA R13+0
          CFI R0 SameValue
          CFI R1 SameValue
          CFI R2 SameValue
          CFI R3 SameValue
          CFI R4 SameValue
          CFI R5 SameValue
          CFI R6 SameValue
          CFI R7 SameValue
          CFI R8 SameValue
          CFI R9 SameValue
          CFI R10 SameValue
          CFI R11 SameValue
          CFI R12 SameValue
          CFI R14 SameValue
          CFI EndCommon cfiCommon1
        
// E:\Gainspan\gs2011mxx_SDK_s2w_tls_tlslp_5.1.5_GA\userapps_mqtt\s2w\src\hal\s2w_net_gainspan.c
//    1 /*****************************************************************
//    2  *
//    3 *               COPYRIGHT (c) 2009-2010 GainSpan Corporation
//    4 *                         All Rights Reserved
//    5 *
//    6 * The source code contained or described herein and all documents
//    7 * related to the source code ("Material") are owned by GainSpan
//    8 * Corporation or its licensors.  Title to the Material remains
//    9 * with GainSpan Corporation or its suppliers and licensors.
//   10 *
//   11 * The Material is protected by worldwide copyright and trade secret
//   12 * laws and treaty provisions. No part of the Material may be used,
//   13 * copied, reproduced, modified, published, uploaded, posted, transmitted,
//   14 * distributed, or disclosed in any way except in accordance with the
//   15 * applicable license agreement.
//   16 *
//   17 * No license under any patent, copyright, trade secret or other
//   18 * intellectual property right is granted to or conferred upon you by
//   19 * disclosure or delivery of the Materials, either expressly, by
//   20 * implication, inducement, estoppel, except in accordance with the
//   21 * applicable license agreement.
//   22 *
//   23 * Unless otherwise agreed by GainSpan in writing, you may not remove or
//   24 * alter this notice or any other notice embedded in Materials by GainSpan
//   25 * or GainSpan's suppliers or licensors in any way.
//   26 *
//   27 * $RCSfile: s2w_net_gainspan.c,v $
//   28 *
//   29 * Description : s2w GEPS interface file
//   30 ******************************************************************/
//   31 
//   32 
//   33 /*****************************************************************
//   34   * File Inclusions
//   35   *****************************************************************/
//   36 #include "netx/netx_bsd_layer/nxd_bsd.h"

        SECTION `.text`:CODE:REORDER:NOROOT(1)
        SECTION_GROUP memcpy
          CFI Block cfiBlock0 Using cfiCommon0
          CFI Function memcpy
        THUMB
// __intrinsic __nounwind __interwork __softfp void *memcpy(void *, void const *, size_t)
memcpy:
        PUSH     {R4,LR}
          CFI R14 Frame(CFA, -4)
          CFI R4 Frame(CFA, -8)
          CFI CFA R13+8
        MOV      R4,R0
          CFI FunCall __aeabi_memcpy
        BL       __aeabi_memcpy
        MOV      R0,R4
        POP      {R4,PC}          ;; return
          CFI EndBlock cfiBlock0

        SECTION `.text`:CODE:REORDER:NOROOT(1)
        SECTION_GROUP memset
          CFI Block cfiBlock1 Using cfiCommon0
          CFI Function memset
        THUMB
// __intrinsic __nounwind __interwork __softfp void *memset(void *, int, size_t)
memset:
        PUSH     {R4,LR}
          CFI R14 Frame(CFA, -4)
          CFI R4 Frame(CFA, -8)
          CFI CFA R13+8
        MOV      R4,R0
        MOV      R0,R2
        MOV      R2,R1
        MOV      R1,R0
        MOV      R0,R4
          CFI FunCall __aeabi_memset
        BL       __aeabi_memset
        MOV      R0,R4
        POP      {R4,PC}          ;; return
          CFI EndBlock cfiBlock1
//   37 #include <string.h>
//   38 #include "gsn_includes.h"

        SECTION `.text`:CODE:REORDER:NOROOT(1)
        SECTION_GROUP GsnOsal_IntrDisable
          CFI Block cfiBlock2 Using cfiCommon0
          CFI Function GsnOsal_IntrDisable
        THUMB
// __interwork __softfp int GsnOsal_IntrDisable(void)
GsnOsal_IntrDisable:
        MOVS     R0,#+1
          CFI FunCall _tx_thread_interrupt_control
        B.W      _tx_thread_interrupt_control
          CFI EndBlock cfiBlock2

        SECTION `.text`:CODE:REORDER:NOROOT(1)
        SECTION_GROUP GsnOsal_IntrEnable
          CFI Block cfiBlock3 Using cfiCommon0
          CFI Function GsnOsal_IntrEnable
          CFI FunCall _tx_thread_interrupt_control
        THUMB
// __interwork __softfp void GsnOsal_IntrEnable(int)
GsnOsal_IntrEnable:
        B.W      _tx_thread_interrupt_control
          CFI EndBlock cfiBlock3

        SECTION `.text`:CODE:REORDER:NOROOT(1)
        SECTION_GROUP GsnOsal_ThreadCreate
          CFI Block cfiBlock4 Using cfiCommon0
          CFI Function GsnOsal_ThreadCreate
        THUMB
// __interwork __softfp GSN_STATUS_T GsnOsal_ThreadCreate(void (*)(UINT32), void *, TX_THREAD *, unsigned char const *, UINT8, unsigned char *, UINT32, GSN_OSAL_THREAD_INITIAL_STATE_T)
GsnOsal_ThreadCreate:
        PUSH     {R4-R7,LR}
          CFI R14 Frame(CFA, -4)
          CFI R7 Frame(CFA, -8)
          CFI R6 Frame(CFA, -12)
          CFI R5 Frame(CFA, -16)
          CFI R4 Frame(CFA, -20)
          CFI CFA R13+20
        SUB      SP,SP,#+28
          CFI CFA R13+48
        MOV      R4,R0
        MOV      R0,R2
        LDR      R2,[SP, #+60]
        LDR      R6,[SP, #+52]
        LDR      R7,[SP, #+56]
        STR      R2,[SP, #+20]
        MOV      R5,R3
        LDR      R3,[SP, #+48]
        STR      R3,[SP, #+12]
        MOVS     R2,#+0
        STR      R3,[SP, #+8]
        STR      R2,[SP, #+16]
        MOV      R3,R1
        STR      R7,[SP, #+4]
        STR      R6,[SP, #+0]
        MOV      R2,R4
        MOV      R1,R5
          CFI FunCall _tx_thread_create
        BL       _tx_thread_create
        CBZ.N    R0,??GsnOsal_ThreadCreate_0
        ADD      R0,R0,#-1879048192
        ADD      R0,R0,#+256
??GsnOsal_ThreadCreate_0:
        ADD      SP,SP,#+28
          CFI CFA R13+20
        POP      {R4-R7,PC}       ;; return
          CFI EndBlock cfiBlock4

        SECTION `.text`:CODE:REORDER:NOROOT(1)
        SECTION_GROUP GsnOsal_SemCreate
          CFI Block cfiBlock5 Using cfiCommon0
          CFI Function GsnOsal_SemCreate
        THUMB
// __interwork __softfp GSN_STATUS_T GsnOsal_SemCreate(TX_SEMAPHORE *, UINT32)
GsnOsal_SemCreate:
        PUSH     {R7,LR}
          CFI R14 Frame(CFA, -4)
          CFI CFA R13+8
        MOV      R2,R1
        MOVS     R1,#+0
          CFI FunCall _tx_semaphore_create
        BL       _tx_semaphore_create
        CBZ.N    R0,??GsnOsal_SemCreate_0
        ADD      R0,R0,#-1879048192
        ADD      R0,R0,#+256
??GsnOsal_SemCreate_0:
        POP      {R1,PC}          ;; return
          CFI EndBlock cfiBlock5

        SECTION `.text`:CODE:REORDER:NOROOT(1)
        SECTION_GROUP GsnOsal_SemDelete
          CFI Block cfiBlock6 Using cfiCommon0
          CFI Function GsnOsal_SemDelete
        THUMB
// __interwork __softfp GSN_STATUS_T GsnOsal_SemDelete(TX_SEMAPHORE *)
GsnOsal_SemDelete:
        PUSH     {R7,LR}
          CFI R14 Frame(CFA, -4)
          CFI CFA R13+8
          CFI FunCall _tx_semaphore_delete
        BL       _tx_semaphore_delete
        CBZ.N    R0,??GsnOsal_SemDelete_0
        ADD      R0,R0,#-1879048192
        ADD      R0,R0,#+256
??GsnOsal_SemDelete_0:
        POP      {R1,PC}          ;; return
          CFI EndBlock cfiBlock6

        SECTION `.text`:CODE:REORDER:NOROOT(1)
        SECTION_GROUP GsnOsal_SemAcquire
          CFI Block cfiBlock7 Using cfiCommon0
          CFI Function GsnOsal_SemAcquire
        THUMB
// __interwork __softfp GSN_STATUS_T GsnOsal_SemAcquire(TX_SEMAPHORE *, UINT32)
GsnOsal_SemAcquire:
        PUSH     {R7,LR}
          CFI R14 Frame(CFA, -4)
          CFI CFA R13+8
          CFI FunCall _tx_semaphore_get
        BL       _tx_semaphore_get
        CBZ.N    R0,??GsnOsal_SemAcquire_0
        ADD      R0,R0,#-1879048192
        ADD      R0,R0,#+256
??GsnOsal_SemAcquire_0:
        POP      {R1,PC}          ;; return
          CFI EndBlock cfiBlock7

        SECTION `.text`:CODE:REORDER:NOROOT(1)
        SECTION_GROUP GsnOsal_SemRelease
          CFI Block cfiBlock8 Using cfiCommon0
          CFI Function GsnOsal_SemRelease
        THUMB
// __interwork __softfp GSN_STATUS_T GsnOsal_SemRelease(TX_SEMAPHORE *)
GsnOsal_SemRelease:
        PUSH     {R7,LR}
          CFI R14 Frame(CFA, -4)
          CFI CFA R13+8
          CFI FunCall _tx_semaphore_put
        BL       _tx_semaphore_put
        CBZ.N    R0,??GsnOsal_SemRelease_0
        ADD      R0,R0,#-1879048192
        ADD      R0,R0,#+256
??GsnOsal_SemRelease_0:
        POP      {R1,PC}          ;; return
          CFI EndBlock cfiBlock8

        SECTION `.text`:CODE:REORDER:NOROOT(1)
        SECTION_GROUP GsnOsal_QueuePut
          CFI Block cfiBlock9 Using cfiCommon0
          CFI Function GsnOsal_QueuePut
        THUMB
// __interwork __softfp GSN_STATUS_T GsnOsal_QueuePut(TX_QUEUE *, unsigned char *)
GsnOsal_QueuePut:
        PUSH     {R7,LR}
          CFI R14 Frame(CFA, -4)
          CFI CFA R13+8
        MOVS     R2,#+0
          CFI FunCall _tx_queue_send
        BL       _tx_queue_send
        CBZ.N    R0,??GsnOsal_QueuePut_0
        ADD      R0,R0,#-1879048192
        ADD      R0,R0,#+256
??GsnOsal_QueuePut_0:
        POP      {R1,PC}          ;; return
          CFI EndBlock cfiBlock9
//   39 #include "hal/s2w.h"
//   40 #include "hal/s2w_types.h"
//   41 #include "hal/s2w_hal.h"
//   42 #include "parser/s2w_process.h"
//   43 #include "hal/s2w_timer.h"
//   44 #include "hal/s2w_net.h"
//   45 #include "hal/s2w_cert_mgmt.h"
//   46 #include "parser/s2w_command.h"
//   47 
//   48 //#include "l2dev\s2w_l2_dev.h"
//   49 #include "main/app_main_ctx.h"
//   50 #include "config/app_resource_config.h"
//   51 #include "app_defines.h"
//   52 #include "app_events.h"
//   53 #include "config/app_stat_config.h"
//   54 #include "app_rtc_mem.h"
//   55 #include "s2w_cert.c"

        SECTION `.data`:DATA:REORDER:NOROOT(2)
// __absolute unsigned char sslClientCA[898]
sslClientCA:
        DATA
        DC8 48, 130, 3, 126, 48, 130, 2, 231, 160, 3, 2, 1, 2, 2, 9, 0, 222
        DC8 123, 91, 133, 54, 111, 161, 90, 48, 13, 6, 9, 42, 134, 72, 134, 247
        DC8 13, 1, 1, 5, 5, 0, 48, 129, 135, 49, 11, 48, 9, 6, 3, 85, 4, 6, 19
        DC8 2, 73, 78, 49, 12, 48, 10, 6, 3, 85, 4, 8, 19, 3, 66, 76, 82, 49
        DC8 11, 48, 9, 6, 3, 85, 4, 7, 19, 2, 75, 65, 49, 17, 48, 15, 6, 3, 85
        DC8 4, 10, 19, 8, 71, 97, 105, 110, 83, 112, 97, 110, 49, 11, 48, 9, 6
        DC8 3, 85, 4, 11, 19, 2, 81, 65, 49, 24, 48, 22, 6, 3, 85, 4, 3, 19, 15
        DC8 49, 57, 50, 46, 49, 54, 56, 46, 50, 46, 57, 52, 32, 73, 78, 49, 35
        DC8 48, 33, 6, 9, 42, 134, 72, 134, 247, 13, 1, 9, 1, 22, 20, 115, 117
        DC8 112, 112, 111, 114, 116, 64, 103, 97, 105, 110, 115, 112, 97, 110
        DC8 46, 99, 111, 109, 48, 30, 23, 13, 49, 50, 48, 54, 49, 51, 49, 49
        DC8 53, 55, 48, 53, 90, 23, 13, 49, 51, 48, 54, 49, 51, 49, 49, 53, 55
        DC8 48, 53, 90, 48, 129, 135, 49, 11, 48, 9, 6, 3, 85, 4, 6, 19, 2, 73
        DC8 78, 49, 12, 48, 10, 6, 3, 85, 4, 8, 19, 3, 66, 76, 82, 49, 11, 48
        DC8 9, 6, 3, 85, 4, 7, 19, 2, 75, 65, 49, 17, 48, 15, 6, 3, 85, 4, 10
        DC8 19, 8, 71, 97, 105, 110, 83, 112, 97, 110, 49, 11, 48, 9, 6, 3, 85
        DC8 4, 11, 19, 2, 81, 65, 49, 24, 48, 22, 6, 3, 85, 4, 3, 19, 15, 49
        DC8 57, 50, 46, 49, 54, 56, 46, 50, 46, 57, 52, 32, 73, 78, 49, 35, 48
        DC8 33, 6, 9, 42, 134, 72, 134, 247, 13, 1, 9, 1, 22, 20, 115, 117, 112
        DC8 112, 111, 114, 116, 64, 103, 97, 105, 110, 115, 112, 97, 110, 46
        DC8 99, 111, 109, 48, 129, 159, 48, 13, 6, 9, 42, 134, 72, 134, 247, 13
        DC8 1, 1, 1, 5, 0, 3, 129, 141, 0, 48, 129, 137, 2, 129, 129, 0, 203
        DC8 229, 201, 43, 206, 248, 121, 46, 248, 115, 211, 94, 97, 40, 6, 16
        DC8 57, 241, 215, 117, 213, 97, 232, 101, 248, 129, 51, 34, 98, 103
        DC8 209, 61, 112, 109, 78, 7, 196, 173, 243, 28, 39, 114, 212, 19, 122
        DC8 3, 238, 42, 103, 84, 177, 207, 95, 194, 166, 233, 221, 201, 45, 210
        DC8 85, 140, 10, 207, 39, 213, 197, 26, 177, 222, 247, 140, 29, 76, 5
        DC8 126, 17, 20, 172, 111, 165, 167, 100, 114, 17, 76, 115, 27, 202, 67
        DC8 45, 157, 239, 11, 180, 135, 10, 252, 130, 22, 85, 171, 191, 253
        DC8 206, 240, 47, 83, 197, 166, 144, 113, 185, 161, 173, 177, 229, 191
        DC8 128, 187, 38, 4, 97, 225, 4, 130, 241, 115, 2, 3, 1, 0, 1, 163, 129
        DC8 239, 48, 129, 236, 48, 29, 6, 3, 85, 29, 14, 4, 22, 4, 20, 72, 62
        DC8 243, 8, 57, 29, 188, 30, 110, 118, 66, 176, 160, 226, 5, 125, 92
        DC8 234, 100, 21, 48, 129, 188, 6, 3, 85, 29, 35, 4, 129, 180, 48, 129
        DC8 177, 128, 20, 72, 62, 243, 8, 57, 29, 188, 30, 110, 118, 66, 176
        DC8 160, 226, 5, 125, 92, 234, 100, 21, 161, 129, 141, 164, 129, 138
        DC8 48, 129, 135, 49, 11, 48, 9, 6, 3, 85, 4, 6, 19, 2, 73, 78, 49, 12
        DC8 48, 10, 6, 3, 85, 4, 8, 19, 3, 66, 76, 82, 49, 11, 48, 9, 6, 3, 85
        DC8 4, 7, 19, 2, 75, 65, 49, 17, 48, 15, 6, 3, 85, 4, 10, 19, 8, 71, 97
        DC8 105, 110, 83, 112, 97, 110, 49, 11, 48, 9, 6, 3, 85, 4, 11, 19, 2
        DC8 81, 65, 49, 24, 48, 22, 6, 3, 85, 4, 3, 19, 15, 49, 57, 50, 46, 49
        DC8 54, 56, 46, 50, 46, 57, 52, 32, 73, 78, 49, 35, 48, 33, 6, 9, 42
        DC8 134, 72, 134, 247, 13, 1, 9, 1, 22, 20, 115, 117, 112, 112, 111
        DC8 114, 116, 64, 103, 97, 105, 110, 115, 112, 97, 110, 46, 99, 111
        DC8 109, 130, 9, 0, 222, 123, 91, 133, 54, 111, 161, 90, 48, 12, 6, 3
        DC8 85, 29, 19, 4, 5, 48, 3, 1, 1, 255, 48, 13, 6, 9, 42, 134, 72, 134
        DC8 247, 13, 1, 1, 5, 5, 0, 3, 129, 129, 0, 168, 129, 74, 254, 27, 157
        DC8 93, 93, 249, 16, 245, 3, 123, 199, 180, 127, 79, 23, 67, 217, 191
        DC8 188, 114, 52, 23, 22, 3, 136, 114, 117, 43, 203, 191, 196, 203, 46
        DC8 151, 41, 108, 116, 249, 221, 192, 102, 12, 190, 109, 40, 191, 66
        DC8 237, 134, 10, 133, 24, 7, 214, 151, 69, 60, 71, 48, 161, 235, 12
        DC8 92, 106, 213, 68, 222, 159, 254, 31, 227, 216, 118, 53, 54, 104
        DC8 242, 118, 161, 210, 127, 241, 121, 10, 18, 130, 155, 227, 101, 212
        DC8 92, 166, 20, 9, 14, 179, 178, 225, 247, 106, 68, 225, 101, 140, 48
        DC8 1, 74, 54, 146, 41, 20, 16, 162, 201, 201, 14, 185, 36, 5, 232, 65
        DC8 201, 234, 240, 207, 0, 0

        SECTION `.data`:DATA:REORDER:NOROOT(2)
// __absolute unsigned char sslClientClient[644]
sslClientClient:
        DATA
        DC8 48, 130, 2, 128, 48, 130, 1, 233, 2, 1, 11, 48, 13, 6, 9, 42, 134
        DC8 72, 134, 247, 13, 1, 1, 5, 5, 0, 48, 129, 135, 49, 11, 48, 9, 6, 3
        DC8 85, 4, 6, 19, 2, 73, 78, 49, 12, 48, 10, 6, 3, 85, 4, 8, 19, 3, 66
        DC8 76, 82, 49, 11, 48, 9, 6, 3, 85, 4, 7, 19, 2, 75, 65, 49, 17, 48
        DC8 15, 6, 3, 85, 4, 10, 19, 8, 71, 97, 105, 110, 83, 112, 97, 110, 49
        DC8 11, 48, 9, 6, 3, 85, 4, 11, 19, 2, 81, 65, 49, 24, 48, 22, 6, 3, 85
        DC8 4, 3, 19, 15, 49, 57, 50, 46, 49, 54, 56, 46, 50, 46, 57, 52, 32
        DC8 73, 78, 49, 35, 48, 33, 6, 9, 42, 134, 72, 134, 247, 13, 1, 9, 1
        DC8 22, 20, 115, 117, 112, 112, 111, 114, 116, 64, 103, 97, 105, 110
        DC8 115, 112, 97, 110, 46, 99, 111, 109, 48, 30, 23, 13, 49, 50, 48, 54
        DC8 49, 51, 49, 50, 51, 57, 51, 51, 90, 23, 13, 49, 51, 48, 54, 49, 51
        DC8 49, 50, 51, 57, 51, 51, 90, 48, 129, 136, 49, 11, 48, 9, 6, 3, 85
        DC8 4, 6, 19, 2, 73, 78, 49, 12, 48, 10, 6, 3, 85, 4, 8, 19, 3, 66, 76
        DC8 82, 49, 11, 48, 9, 6, 3, 85, 4, 7, 19, 2, 75, 65, 49, 17, 48, 15, 6
        DC8 3, 85, 4, 10, 19, 8, 71, 97, 105, 110, 83, 112, 97, 110, 49, 11, 48
        DC8 9, 6, 3, 85, 4, 11, 19, 2, 81, 65, 49, 25, 48, 23, 6, 3, 85, 4, 3
        DC8 19, 16, 49, 57, 50, 46, 49, 54, 56, 46, 50, 46, 57, 52, 32, 99, 111
        DC8 109, 49, 35, 48, 33, 6, 9, 42, 134, 72, 134, 247, 13, 1, 9, 1, 22
        DC8 20, 115, 117, 112, 112, 111, 114, 116, 64, 103, 97, 105, 110, 115
        DC8 112, 97, 110, 46, 99, 111, 109, 48, 129, 159, 48, 13, 6, 9, 42, 134
        DC8 72, 134, 247, 13, 1, 1, 1, 5, 0, 3, 129, 141, 0, 48, 129, 137, 2
        DC8 129, 129, 0, 180, 200, 83, 30, 86, 189, 203, 57, 86, 129, 230, 241
        DC8 220, 136, 68, 179, 194, 66, 127, 34, 190, 63, 124, 233, 37, 166
        DC8 114, 183, 115, 227, 96, 149, 99, 111, 216, 202, 244, 188, 154, 14
        DC8 38, 98, 132, 165, 47, 222, 62, 226, 164, 9, 230, 3, 255, 41, 94, 75
        DC8 203, 155, 248, 245, 139, 182, 168, 173, 90, 216, 229, 121, 67, 74
        DC8 197, 175, 234, 114, 221, 75, 226, 41, 72, 251, 152, 124, 73, 203
        DC8 220, 66, 82, 22, 134, 216, 92, 93, 69, 176, 230, 32, 163, 202, 113
        DC8 132, 254, 104, 178, 0, 13, 234, 178, 206, 38, 114, 52, 111, 220
        DC8 196, 69, 77, 27, 224, 64, 110, 28, 39, 137, 166, 208, 53, 212, 235
        DC8 2, 3, 1, 0, 1, 48, 13, 6, 9, 42, 134, 72, 134, 247, 13, 1, 1, 5, 5
        DC8 0, 3, 129, 129, 0, 124, 233, 239, 212, 81, 250, 167, 168, 207, 10
        DC8 36, 15, 175, 193, 204, 6, 195, 118, 169, 59, 24, 142, 188, 240, 141
        DC8 246, 92, 86, 157, 73, 200, 107, 245, 1, 140, 52, 121, 67, 58, 31
        DC8 169, 176, 155, 110, 153, 46, 107, 66, 118, 234, 68, 115, 186, 171
        DC8 33, 145, 247, 67, 61, 156, 100, 163, 237, 210, 53, 57, 132, 113, 66
        DC8 199, 99, 187, 4, 71, 114, 147, 47, 14, 238, 70, 21, 1, 207, 217
        DC8 214, 9, 73, 8, 46, 13, 223, 144, 6, 109, 253, 109, 125, 17, 39, 158
        DC8 87, 96, 230, 126, 71, 21, 109, 77, 173, 102, 202, 139, 239, 116
        DC8 219, 31, 5, 115, 15, 242, 222, 17, 146, 244, 123, 186, 68, 233

        SECTION `.data`:DATA:REORDER:NOROOT(2)
// __absolute unsigned char sslClentKey[609]
sslClentKey:
        DATA
        DC8 48, 130, 2, 93, 2, 1, 0, 2, 129, 129, 0, 180, 200, 83, 30, 86, 189
        DC8 203, 57, 86, 129, 230, 241, 220, 136, 68, 179, 194, 66, 127, 34
        DC8 190, 63, 124, 233, 37, 166, 114, 183, 115, 227, 96, 149, 99, 111
        DC8 216, 202, 244, 188, 154, 14, 38, 98, 132, 165, 47, 222, 62, 226
        DC8 164, 9, 230, 3, 255, 41, 94, 75, 203, 155, 248, 245, 139, 182, 168
        DC8 173, 90, 216, 229, 121, 67, 74, 197, 175, 234, 114, 221, 75, 226
        DC8 41, 72, 251, 152, 124, 73, 203, 220, 66, 82, 22, 134, 216, 92, 93
        DC8 69, 176, 230, 32, 163, 202, 113, 132, 254, 104, 178, 0, 13, 234
        DC8 178, 206, 38, 114, 52, 111, 220, 196, 69, 77, 27, 224, 64, 110, 28
        DC8 39, 137, 166, 208, 53, 212, 235, 2, 3, 1, 0, 1, 2, 129, 129, 0, 141
        DC8 230, 35, 159, 207, 180, 31, 188, 252, 210, 239, 228, 110, 22, 163
        DC8 222, 121, 31, 90, 205, 121, 137, 57, 209, 131, 20, 248, 60, 89, 1
        DC8 99, 129, 62, 208, 190, 216, 231, 106, 214, 125, 62, 209, 219, 142
        DC8 17, 89, 160, 0, 163, 131, 133, 129, 35, 154, 100, 2, 152, 105, 239
        DC8 235, 68, 99, 246, 86, 241, 53, 15, 75, 19, 104, 78, 228, 25, 201, 9
        DC8 220, 164, 160, 40, 166, 171, 87, 13, 108, 79, 251, 35, 66, 138, 80
        DC8 106, 41, 238, 232, 148, 188, 33, 232, 10, 163, 124, 194, 98, 108
        DC8 99, 66, 77, 232, 230, 198, 149, 147, 82, 112, 250, 172, 179, 3, 235
        DC8 210, 253, 125, 154, 31, 62, 18, 30, 33, 2, 65, 0, 231, 117, 25, 25
        DC8 226, 104, 165, 122, 139, 13, 103, 29, 209, 91, 215, 216, 132, 216
        DC8 254, 237, 155, 59, 18, 112, 128, 9, 42, 44, 48, 76, 103, 202, 52
        DC8 99, 250, 230, 26, 15, 2, 226, 133, 5, 32, 216, 33, 149, 46, 67, 21
        DC8 66, 186, 101, 22, 212, 155, 77, 122, 234, 149, 160, 34, 239, 89, 81
        DC8 2, 65, 0, 199, 243, 168, 158, 196, 62, 98, 146, 245, 112, 123, 69
        DC8 198, 206, 138, 86, 217, 26, 210, 45, 239, 218, 104, 146, 144, 185
        DC8 180, 111, 218, 77, 153, 26, 99, 187, 250, 101, 210, 217, 45, 146
        DC8 63, 57, 158, 98, 241, 95, 104, 156, 174, 184, 159, 109, 37, 6, 223
        DC8 144, 22, 175, 242, 233, 127, 140, 123, 123, 2, 64, 126, 67, 19, 193
        DC8 90, 16, 42, 13, 82, 99, 170, 87, 202, 200, 166, 83, 184, 12, 195
        DC8 236, 140, 92, 202, 47, 82, 185, 45, 39, 83, 229, 170, 76, 213, 13
        DC8 161, 101, 250, 219, 43, 128, 180, 125, 218, 175, 236, 137, 251, 229
        DC8 158, 104, 123, 84, 0, 3, 85, 1, 12, 71, 129, 254, 12, 112, 179, 49
        DC8 2, 65, 0, 155, 175, 104, 87, 86, 77, 140, 203, 8, 55, 240, 131, 191
        DC8 236, 9, 98, 221, 224, 56, 78, 116, 55, 6, 189, 55, 218, 160, 87
        DC8 135, 14, 108, 107, 83, 196, 133, 142, 202, 193, 54, 238, 108, 52
        DC8 28, 210, 197, 69, 152, 90, 134, 224, 81, 161, 213, 246, 168, 19
        DC8 180, 214, 130, 184, 180, 11, 90, 9, 2, 64, 86, 135, 126, 158, 229
        DC8 61, 149, 244, 154, 62, 77, 174, 118, 245, 184, 213, 106, 190, 169
        DC8 211, 5, 125, 185, 214, 214, 121, 135, 248, 171, 195, 228, 39, 235
        DC8 11, 146, 107, 180, 61, 193, 171, 223, 178, 109, 63, 101, 134, 206
        DC8 243, 187, 69, 40, 166, 138, 56, 52, 54, 110, 229, 152, 124, 159
        DC8 224, 108, 78, 0, 0, 0

        SECTION `.data`:DATA:REORDER:NOROOT(2)
// __absolute unsigned char sslServerCA[1391]
sslServerCA:
        DATA
        DC8 45, 45, 45, 45, 45, 66, 69, 71, 73, 78, 32, 67, 69, 82, 84, 73, 70
        DC8 73, 67, 65, 84, 69, 45, 45, 45, 45, 45, 10, 77, 73, 73, 68, 49, 122
        DC8 67, 67, 65, 48, 67, 103, 65, 119, 73, 66, 65, 103, 73, 74, 65, 74
        DC8 100, 122, 118, 74, 55, 110, 77, 105, 83, 53, 77, 65, 48, 71, 67, 83
        DC8 113, 71, 83, 73, 98, 51, 68, 81, 69, 66, 66, 81, 85, 65, 77, 73, 71
        DC8 107, 77, 81, 115, 119, 67, 81, 89, 68, 10, 86, 81, 81, 71, 69, 119
        DC8 74, 74, 84, 106, 69, 82, 77, 65, 56, 71, 65, 49, 85, 69, 67, 66, 77
        DC8 73, 83, 50, 70, 121, 98, 109, 70, 48, 89, 87, 115, 120, 69, 106, 65
        DC8 81, 66, 103, 78, 86, 66, 65, 99, 84, 67, 85, 74, 104, 98, 109, 100
        DC8 104, 98, 71, 57, 121, 90, 84, 69, 82, 10, 77, 65, 56, 71, 65, 49
        DC8 85, 69, 67, 104, 77, 73, 82, 50, 70, 112, 98, 108, 78, 119, 89, 87
        DC8 52, 120, 70, 68, 65, 83, 66, 103, 78, 86, 66, 65, 115, 84, 67, 48
        DC8 86, 117, 90, 50, 108, 117, 90, 87, 86, 121, 97, 87, 53, 110, 77, 82
        DC8 103, 119, 70, 103, 89, 68, 86, 81, 81, 68, 10, 69, 119, 56, 120, 79
        DC8 84, 73, 117, 77, 84, 89, 52, 76, 106, 69, 117, 79, 84, 107, 103, 83
        DC8 85, 52, 120, 75, 122, 65, 112, 66, 103, 107, 113, 104, 107, 105, 71
        DC8 57, 119, 48, 66, 67, 81, 69, 87, 72, 72, 78, 112, 89, 109, 70, 122
        DC8 97, 88, 77, 117, 99, 72, 86, 121, 98, 50, 104, 112, 10, 100, 69, 66
        DC8 110, 89, 87, 108, 117, 99, 51, 66, 104, 98, 105, 53, 106, 98, 50
        DC8 48, 119, 72, 104, 99, 78, 77, 84, 69, 119, 79, 68, 65, 48, 77, 68
        DC8 85, 119, 78, 106, 69, 122, 87, 104, 99, 78, 77, 84, 73, 119, 79, 68
        DC8 65, 122, 77, 68, 85, 119, 78, 106, 69, 122, 87, 106, 67, 66, 10
        DC8 112, 68, 69, 76, 77, 65, 107, 71, 65, 49, 85, 69, 66, 104, 77, 67
        DC8 83, 85, 52, 120, 69, 84, 65, 80, 66, 103, 78, 86, 66, 65, 103, 84
        DC8 67, 69, 116, 104, 99, 109, 53, 104, 100, 71, 70, 114, 77, 82, 73
        DC8 119, 69, 65, 89, 68, 86, 81, 81, 72, 69, 119, 108, 67, 89, 87, 53
        DC8 110, 10, 89, 87, 120, 118, 99, 109, 85, 120, 69, 84, 65, 80, 66
        DC8 103, 78, 86, 66, 65, 111, 84, 67, 69, 100, 104, 97, 87, 53, 84, 99
        DC8 71, 70, 117, 77, 82, 81, 119, 69, 103, 89, 68, 86, 81, 81, 76, 69
        DC8 119, 116, 70, 98, 109, 100, 112, 98, 109, 86, 108, 99, 109, 108
        DC8 117, 90, 122, 69, 89, 10, 77, 66, 89, 71, 65, 49, 85, 69, 65, 120
        DC8 77, 80, 77, 84, 107, 121, 76, 106, 69, 50, 79, 67, 52, 120, 76, 106
        DC8 107, 53, 73, 69, 108, 79, 77, 83, 115, 119, 75, 81, 89, 74, 75, 111
        DC8 90, 73, 104, 118, 99, 78, 65, 81, 107, 66, 70, 104, 120, 122, 97
        DC8 87, 74, 104, 99, 50, 108, 122, 10, 76, 110, 66, 49, 99, 109, 57
        DC8 111, 97, 88, 82, 65, 90, 50, 70, 112, 98, 110, 78, 119, 89, 87, 52
        DC8 117, 89, 50, 57, 116, 77, 73, 71, 102, 77, 65, 48, 71, 67, 83, 113
        DC8 71, 83, 73, 98, 51, 68, 81, 69, 66, 65, 81, 85, 65, 65, 52, 71, 78
        DC8 65, 68, 67, 66, 105, 81, 75, 66, 10, 103, 81, 67, 49, 55, 117, 82
        DC8 78, 43, 78, 98, 53, 117, 104, 73, 72, 99, 70, 97, 106, 51, 108, 114
        DC8 52, 55, 71, 69, 111, 116, 53, 98, 108, 70, 54, 90, 76, 81, 68, 82
        DC8 121, 112, 78, 90, 70, 115, 56, 68, 98, 76, 69, 72, 66, 73, 66, 43
        DC8 97, 103, 68, 67, 77, 67, 118, 100, 69, 10, 106, 106, 75, 76, 119
        DC8 85, 117, 113, 47, 80, 80, 103, 52, 115, 83, 49, 106, 110, 121, 112
        DC8 48, 80, 69, 115, 80, 74, 84, 74, 118, 49, 47, 120, 76, 47, 87, 56
        DC8 120, 55, 100, 82, 88, 112, 68, 48, 67, 48, 89, 100, 52, 49, 90, 69
        DC8 90, 81, 82, 121, 106, 119, 81, 119, 121, 106, 116, 104, 10, 50, 69
        DC8 51, 43, 105, 87, 67, 54, 90, 103, 69, 97, 105, 79, 118, 53, 69, 121
        DC8 70, 54, 71, 79, 116, 82, 82, 57, 112, 122, 84, 103, 52, 50, 121
        DC8 120, 106, 55, 101, 70, 103, 108, 83, 120, 75, 66, 102, 119, 73, 68
        DC8 65, 81, 65, 66, 111, 52, 73, 66, 68, 84, 67, 67, 65, 81, 107, 119
        DC8 10, 72, 81, 89, 68, 86, 82, 48, 79, 66, 66, 89, 69, 70, 67, 73, 55
        DC8 72, 100, 110, 77, 109, 114, 99, 88, 105, 43, 84, 69, 115, 113, 75
        DC8 90, 106, 76, 113, 55, 80, 117, 101, 100, 77, 73, 72, 90, 66, 103
        DC8 78, 86, 72, 83, 77, 69, 103, 100, 69, 119, 103, 99, 54, 65, 70, 67
        DC8 73, 55, 10, 72, 100, 110, 77, 109, 114, 99, 88, 105, 43, 84, 69
        DC8 115, 113, 75, 90, 106, 76, 113, 55, 80, 117, 101, 100, 111, 89, 71
        DC8 113, 112, 73, 71, 110, 77, 73, 71, 107, 77, 81, 115, 119, 67, 81
        DC8 89, 68, 86, 81, 81, 71, 69, 119, 74, 74, 84, 106, 69, 82, 77, 65
        DC8 56, 71, 65, 49, 85, 69, 10, 67, 66, 77, 73, 83, 50, 70, 121, 98
        DC8 109, 70, 48, 89, 87, 115, 120, 69, 106, 65, 81, 66, 103, 78, 86, 66
        DC8 65, 99, 84, 67, 85, 74, 104, 98, 109, 100, 104, 98, 71, 57, 121, 90
        DC8 84, 69, 82, 77, 65, 56, 71, 65, 49, 85, 69, 67, 104, 77, 73, 82, 50
        DC8 70, 112, 98, 108, 78, 119, 10, 89, 87, 52, 120, 70, 68, 65, 83, 66
        DC8 103, 78, 86, 66, 65, 115, 84, 67, 48, 86, 117, 90, 50, 108, 117, 90
        DC8 87, 86, 121, 97, 87, 53, 110, 77, 82, 103, 119, 70, 103, 89, 68, 86
        DC8 81, 81, 68, 69, 119, 56, 120, 79, 84, 73, 117, 77, 84, 89, 52, 76
        DC8 106, 69, 117, 79, 84, 107, 103, 10, 83, 85, 52, 120, 75, 122, 65
        DC8 112, 66, 103, 107, 113, 104, 107, 105, 71, 57, 119, 48, 66, 67, 81
        DC8 69, 87, 72, 72, 78, 112, 89, 109, 70, 122, 97, 88, 77, 117, 99, 72
        DC8 86, 121, 98, 50, 104, 112, 100, 69, 66, 110, 89, 87, 108, 117, 99
        DC8 51, 66, 104, 98, 105, 53, 106, 98, 50, 50, 67, 10, 67, 81, 67, 88
        DC8 99, 55, 121, 101, 53, 122, 73, 107, 117, 84, 65, 77, 66, 103, 78
        DC8 86, 72, 82, 77, 69, 66, 84, 65, 68, 65, 81, 72, 47, 77, 65, 48, 71
        DC8 67, 83, 113, 71, 83, 73, 98, 51, 68, 81, 69, 66, 66, 81, 85, 65, 65
        DC8 52, 71, 66, 65, 76, 65, 50, 51, 80, 89, 107, 10, 70, 82, 104, 79
        DC8 73, 79, 68, 65, 43, 122, 100, 67, 107, 70, 77, 78, 82, 101, 107
        DC8 101, 108, 85, 66, 107, 82, 72, 78, 79, 51, 80, 80, 70, 99, 88, 120
        DC8 74, 84, 117, 80, 114, 84, 100, 67, 110, 108, 57, 106, 103, 83, 80
        DC8 102, 83, 117, 48, 57, 82, 51, 115, 110, 75, 78, 111, 112, 122, 10
        DC8 109, 117, 43, 74, 83, 48, 85, 100, 109, 102, 69, 69, 54, 122, 51
        DC8 74, 50, 76, 69, 77, 65, 52, 57, 88, 100, 76, 80, 110, 119, 57, 121
        DC8 104, 117, 110, 98, 99, 56, 116, 108, 75, 78, 115, 109, 84, 89, 117
        DC8 108, 74, 111, 50, 104, 52, 99, 98, 121, 108, 100, 65, 71, 98, 115
        DC8 75, 85, 103, 10, 98, 80, 73, 69, 112, 79, 116, 57, 109, 88, 102, 80
        DC8 105, 57, 75, 77, 117, 54, 67, 98, 121, 104, 86, 87, 55, 74, 71, 48
        DC8 79, 55, 77, 119, 51, 70, 109, 76, 10, 45, 45, 45, 45, 45, 69, 78
        DC8 68, 32, 67, 69, 82, 84, 73, 70, 73, 67, 65, 84, 69, 45, 45, 45, 45
        DC8 45, 10, 0

        SECTION `.data`:DATA:REORDER:NOROOT(2)
// __absolute unsigned char sslServerKey[610]
sslServerKey:
        DATA
        DC8 48, 130, 2, 94, 2, 1, 0, 2, 129, 129, 0, 187, 215, 249, 190, 157
        DC8 76, 59, 5, 54, 159, 111, 133, 51, 46, 80, 94, 42, 125, 23, 78, 155
        DC8 94, 14, 186, 181, 235, 97, 46, 150, 79, 65, 162, 36, 121, 168, 237
        DC8 196, 129, 238, 36, 254, 56, 246, 123, 78, 237, 168, 199, 98, 111
        DC8 82, 135, 140, 246, 21, 166, 218, 84, 127, 79, 116, 179, 124, 155
        DC8 47, 164, 105, 18, 211, 208, 45, 3, 2, 96, 87, 93, 144, 225, 31, 13
        DC8 234, 6, 45, 115, 209, 111, 201, 241, 151, 93, 15, 118, 1, 51, 71, 3
        DC8 172, 57, 126, 114, 100, 57, 114, 88, 239, 153, 208, 190, 58, 124
        DC8 107, 69, 30, 199, 49, 159, 49, 43, 143, 117, 56, 156, 186, 180, 35
        DC8 40, 139, 131, 2, 3, 1, 0, 1, 2, 129, 129, 0, 143, 205, 32, 48, 239
        DC8 132, 91, 46, 123, 137, 132, 187, 72, 218, 44, 198, 89, 234, 151
        DC8 124, 34, 238, 215, 129, 210, 32, 214, 173, 238, 125, 208, 54, 11
        DC8 140, 99, 105, 90, 101, 73, 101, 98, 133, 67, 20, 84, 241, 21, 163
        DC8 69, 213, 9, 46, 34, 24, 133, 172, 205, 57, 160, 152, 184, 51, 107
        DC8 176, 165, 184, 205, 79, 84, 110, 89, 64, 157, 239, 147, 253, 107
        DC8 17, 9, 178, 169, 14, 92, 45, 104, 70, 112, 54, 78, 21, 218, 248
        DC8 109, 107, 224, 184, 29, 18, 177, 194, 53, 14, 148, 88, 72, 194, 187
        DC8 149, 73, 217, 198, 98, 199, 149, 182, 125, 202, 233, 227, 18, 227
        DC8 42, 160, 161, 207, 28, 192, 113, 2, 65, 0, 228, 107, 23, 201, 164
        DC8 99, 80, 98, 91, 207, 244, 255, 102, 109, 31, 206, 151, 168, 41, 110
        DC8 32, 146, 220, 23, 160, 126, 94, 188, 234, 130, 86, 217, 182, 180
        DC8 211, 232, 116, 221, 108, 201, 100, 133, 222, 217, 176, 85, 118, 176
        DC8 231, 4, 193, 3, 204, 178, 226, 200, 214, 44, 138, 70, 50, 192, 214
        DC8 137, 2, 65, 0, 210, 134, 161, 149, 130, 176, 182, 72, 53, 10, 159
        DC8 13, 110, 217, 183, 179, 113, 20, 82, 209, 37, 201, 232, 207, 184
        DC8 213, 15, 192, 94, 51, 171, 122, 128, 252, 184, 69, 48, 117, 120
        DC8 159, 183, 194, 198, 226, 27, 207, 40, 227, 49, 249, 207, 245, 251
        DC8 38, 187, 148, 62, 62, 68, 81, 36, 63, 206, 171, 2, 65, 0, 179, 199
        DC8 206, 155, 56, 181, 170, 73, 32, 54, 87, 128, 197, 159, 82, 15, 138
        DC8 178, 34, 153, 185, 45, 157, 233, 66, 186, 243, 218, 1, 65, 193, 21
        DC8 238, 133, 248, 219, 215, 79, 136, 22, 34, 246, 114, 230, 39, 177
        DC8 188, 143, 147, 228, 219, 254, 31, 153, 20, 130, 58, 128, 39, 253, 4
        DC8 105, 94, 241, 2, 64, 98, 25, 224, 115, 246, 25, 120, 103, 127, 103
        DC8 250, 163, 220, 210, 209, 90, 105, 200, 41, 171, 82, 43, 155, 52, 40
        DC8 146, 8, 44, 0, 249, 156, 223, 145, 249, 177, 184, 116, 19, 89, 105
        DC8 59, 205, 36, 182, 58, 117, 55, 61, 95, 141, 100, 77, 224, 129, 181
        DC8 9, 40, 84, 5, 171, 181, 243, 145, 207, 2, 65, 0, 164, 195, 207, 62
        DC8 56, 71, 164, 117, 18, 73, 37, 202, 156, 65, 116, 28, 17, 20, 124
        DC8 59, 114, 83, 65, 199, 133, 6, 128, 115, 52, 203, 144, 42, 214, 174
        DC8 16, 82, 15, 247, 103, 110, 189, 139, 148, 37, 100, 102, 84, 41, 255
        DC8 164, 119, 189, 72, 216, 247, 128, 25, 126, 50, 226, 229, 205, 128
        DC8 163, 0, 0

        SECTION `.data`:DATA:REORDER:NOROOT(2)
// __absolute unsigned char sslServerServer[1001]
sslServerServer:
        DATA
        DC8 45, 45, 45, 45, 45, 66, 69, 71, 73, 78, 32, 67, 69, 82, 84, 73, 70
        DC8 73, 67, 65, 84, 69, 45, 45, 45, 45, 45, 10, 77, 73, 73, 67, 116
        DC8 106, 67, 67, 65, 104, 56, 67, 65, 81, 115, 119, 68, 81, 89, 74, 75
        DC8 111, 90, 73, 104, 118, 99, 78, 65, 81, 69, 70, 66, 81, 65, 119, 103
        DC8 97, 81, 120, 67, 122, 65, 74, 66, 103, 78, 86, 66, 65, 89, 84, 65
        DC8 107, 108, 79, 77, 82, 69, 119, 68, 119, 89, 68, 10, 86, 81, 81, 73
        DC8 69, 119, 104, 76, 89, 88, 74, 117, 89, 88, 82, 104, 97, 122, 69, 83
        DC8 77, 66, 65, 71, 65, 49, 85, 69, 66, 120, 77, 74, 81, 109, 70, 117
        DC8 90, 50, 70, 115, 98, 51, 74, 108, 77, 82, 69, 119, 68, 119, 89, 68
        DC8 86, 81, 81, 75, 69, 119, 104, 72, 89, 87, 108, 117, 10, 85, 51, 66
        DC8 104, 98, 106, 69, 85, 77, 66, 73, 71, 65, 49, 85, 69, 67, 120, 77
        DC8 76, 82, 87, 53, 110, 97, 87, 53, 108, 90, 88, 74, 112, 98, 109, 99
        DC8 120, 71, 68, 65, 87, 66, 103, 78, 86, 66, 65, 77, 84, 68, 122, 69
        DC8 53, 77, 105, 52, 120, 78, 106, 103, 117, 77, 83, 52, 53, 10, 79, 83
        DC8 66, 74, 84, 106, 69, 114, 77, 67, 107, 71, 67, 83, 113, 71, 83, 73
        DC8 98, 51, 68, 81, 69, 74, 65, 82, 89, 99, 99, 50, 108, 105, 89, 88
        DC8 78, 112, 99, 121, 53, 119, 100, 88, 74, 118, 97, 71, 108, 48, 81
        DC8 71, 100, 104, 97, 87, 53, 122, 99, 71, 70, 117, 76, 109, 78, 118
        DC8 10, 98, 84, 65, 101, 70, 119, 48, 120, 77, 84, 65, 52, 77, 68, 81
        DC8 119, 78, 106, 77, 53, 78, 68, 86, 97, 70, 119, 48, 120, 77, 106, 65
        DC8 52, 77, 68, 77, 119, 78, 106, 77, 53, 78, 68, 86, 97, 77, 73, 71
        DC8 104, 77, 81, 115, 119, 67, 81, 89, 68, 86, 81, 81, 71, 69, 119, 74
        DC8 74, 10, 84, 106, 69, 82, 77, 65, 56, 71, 65, 49, 85, 69, 67, 66, 77
        DC8 73, 83, 50, 70, 121, 98, 109, 70, 48, 89, 87, 115, 120, 69, 106, 65
        DC8 81, 66, 103, 78, 86, 66, 65, 99, 84, 67, 85, 74, 117, 89, 87, 100
        DC8 104, 98, 71, 57, 121, 90, 84, 69, 82, 77, 65, 56, 71, 65, 49, 85
        DC8 69, 10, 67, 104, 77, 73, 82, 50, 70, 112, 98, 108, 78, 119, 89, 87
        DC8 52, 120, 70, 68, 65, 83, 66, 103, 78, 86, 66, 65, 115, 84, 67, 48
        DC8 86, 117, 90, 50, 108, 117, 90, 87, 86, 121, 97, 87, 53, 110, 77, 82
        DC8 85, 119, 69, 119, 89, 68, 86, 81, 81, 68, 69, 119, 119, 120, 79, 84
        DC8 73, 117, 10, 77, 84, 89, 52, 76, 106, 69, 117, 79, 84, 107, 120, 75
        DC8 122, 65, 112, 66, 103, 107, 113, 104, 107, 105, 71, 57, 119, 48, 66
        DC8 67, 81, 69, 87, 72, 72, 78, 112, 89, 109, 70, 122, 97, 88, 77, 117
        DC8 99, 72, 86, 121, 98, 50, 104, 112, 100, 69, 66, 110, 89, 87, 108
        DC8 117, 99, 51, 66, 104, 10, 98, 105, 53, 106, 98, 50, 48, 119, 103
        DC8 90, 56, 119, 68, 81, 89, 74, 75, 111, 90, 73, 104, 118, 99, 78, 65
        DC8 81, 69, 66, 66, 81, 65, 68, 103, 89, 48, 65, 77, 73, 71, 74, 65
        DC8 111, 71, 66, 65, 76, 118, 88, 43, 98, 54, 100, 84, 68, 115, 70, 78
        DC8 112, 57, 118, 104, 84, 77, 117, 10, 85, 70, 52, 113, 102, 82, 100
        DC8 79, 109, 49, 52, 79, 117, 114, 88, 114, 89, 83, 54, 87, 84, 48, 71
        DC8 105, 74, 72, 109, 111, 55, 99, 83, 66, 55, 105, 84, 43, 79, 80, 90
        DC8 55, 84, 117, 50, 111, 120, 50, 74, 118, 85, 111, 101, 77, 57, 104
        DC8 87, 109, 50, 108, 82, 47, 84, 51, 83, 122, 10, 102, 74, 115, 118
        DC8 112, 71, 107, 83, 48, 57, 65, 116, 65, 119, 74, 103, 86, 49, 50, 81
        DC8 52, 82, 56, 78, 54, 103, 89, 116, 99, 57, 70, 118, 121, 102, 71, 88
        DC8 88, 81, 57, 50, 65, 84, 78, 72, 65, 54, 119, 53, 102, 110, 74, 107
        DC8 79, 88, 74, 89, 55, 53, 110, 81, 118, 106, 112, 56, 10, 97, 48, 85
        DC8 101, 120, 122, 71, 102, 77, 83, 117, 80, 100, 84, 105, 99, 117, 114
        DC8 81, 106, 75, 73, 117, 68, 65, 103, 77, 66, 65, 65, 69, 119, 68, 81
        DC8 89, 74, 75, 111, 90, 73, 104, 118, 99, 78, 65, 81, 69, 70, 66, 81
        DC8 65, 68, 103, 89, 69, 65, 109, 122, 47, 89, 66, 77, 83, 57, 10, 72
        DC8 107, 121, 98, 121, 119, 116, 89, 43, 54, 67, 83, 73, 76, 118, 118
        DC8 73, 69, 49, 70, 73, 115, 82, 53, 72, 121, 76, 97, 55, 114, 107, 81
        DC8 65, 104, 75, 57, 69, 43, 56, 68, 87, 99, 54, 50, 90, 104, 50, 105
        DC8 57, 113, 50, 115, 68, 67, 77, 51, 119, 51, 72, 75, 113, 81, 51, 70
        DC8 10, 82, 84, 117, 117, 107, 49, 88, 99, 83, 107, 76, 47, 116, 115
        DC8 120, 54, 110, 54, 97, 99, 47, 47, 97, 84, 122, 98, 120, 102, 118
        DC8 114, 73, 79, 48, 68, 101, 122, 50, 108, 88, 52, 48, 97, 121, 102
        DC8 112, 101, 119, 55, 55, 48, 78, 81, 97, 77, 116, 108, 68, 73, 67, 76
        DC8 83, 112, 49, 100, 10, 74, 52, 85, 68, 51, 89, 53, 77, 116, 78, 87
        DC8 74, 82, 80, 55, 54, 99, 89, 89, 83, 99, 74, 57, 81, 102, 119, 74
        DC8 78, 119, 80, 81, 122, 89, 73, 48, 61, 10, 45, 45, 45, 45, 45, 69
        DC8 78, 68, 32, 67, 69, 82, 84, 73, 70, 73, 67, 65, 84, 69, 45, 45, 45
        DC8 45, 45, 10, 0, 0, 0
//   56 #include "modules/http/gsn_httpc.h"
//   57 #include "parser/s2w_command.h"
//   58 #include "parser/s2w_parse.h"
//   59 #ifdef S2W_COAP_SUPPORT
//   60 #include "modules/coap/gsn_coap.h"
//   61 #include "modules/coap/gsn_coap_impl.h"
//   62 #endif
//   63 
//   64 //#define GSN_SSL_CLIENT_SUPPORT
//   65 //#define GSN_SSL_SERVER_SUPPORT
//   66 #ifdef S2W_SSL_SERVER_SUPPORT
//   67 #include "modules/ssl/gsn_ssl.h"
//   68 #endif
//   69 #if defined(S2W_DTLS_CLIENT_SUPPORT)
//   70 #include "modules/dtls/gsn_dtls.h"
//   71 #endif
//   72 #ifdef S2W_IPv6_SUPPORT
//   73 #include "Nx_icmp.h"
//   74 #endif
//   75 
//   76 #include "mqtt_main/mqtt_main.h"
//   77 /**
//   78  ******************************************************************************
//   79  * @file s2w_net_gainspan.c
//   80  * @brief S2W Application geps interface routines.
//   81  *      This file contains the s2w application specific implimentation which
//   82  *      Interface the s2w command processing network stack.
//   83 ******************************************************************************/
//   84 
//   85 
//   86 /*****************************************************************************
//   87   *  Public Variables
//   88   *****************************************************************************/
//   89 
//   90 extern APP_MAIN_CTX_T *s2wappMainTaskCtxt;
//   91 //extern UINT32 nwConfigSuccess ;
//   92 extern GSN_NOTIFICATION_FUNC_T s2wappMainTaskNotifier;
//   93 extern S2W_PROFILE_T s2wCurrent;
//   94 extern UINT8 s2wAutoConnState ;
//   95 extern S2W_PROFILE_PARAMS_T profile_params;
//   96 /*****************************************************************************
//   97   *  Private Variables
//   98   *****************************************************************************/
//   99 

        SECTION `.bss`:DATA:REORDER:NOROOT(2)
//  100 GSN_OSAL_SEM_T s2wSocketCloseSem;
s2wSocketCloseSem:
        DS8 28

        SECTION `.bss`:DATA:REORDER:NOROOT(2)
//  101 GSN_OSAL_SEM_T s2wUdpSocketCloseSem;
s2wUdpSocketCloseSem:
        DS8 28
//  102 
//  103 #define S2W_TLS_DEFAULT_FRAGMENT_SIZE 1398
//  104 #define S2W_TLS_HEADER_LENGTH 5
//  105 #define S2W_TLS_CONN_ALERT_FATAL 2
//  106 #define S2W_TLS_CONN_STATUS_FAIL 0
//  107 #define S2W_TLS_CONN_STATUS_SUCCESS 1
//  108 
//  109 /* Socket descriptor value to indicate unused S2W_CID_T
//  110  */
//  111 
//  112 /* Definitions for conType of S2W_CID_T
//  113  */
//  114 #define UDP 1
//  115 #define TCP 2
//  116 
//  117 /* Timer for TCP connection timeout
//  118  */
//  119 //PRIVATE S2W_TIMER_T s2wTcpConnectTimer;
//  120 
//  121 /* Timer for UDP connection close
//  122  */
//  123 //PRIVATE S2W_TIMER_T s2wUdpCloseTimer;
//  124 
//  125 /* Event flags for TCP connection timeout
//  126  */
//  127 //PRIVATE GH_EFLAGS s2wTcpConnectEflags;
//  128 
//  129 /* Possible values for s2wTcpConnectEflags
//  130  */
//  131 #define CONNECT_SUCCESS  0x01
//  132 #define CONNECT_FAIL     0x02
//  133 #define CONNECT_TIMEOUT  0x04
//  134 
//  135 
//  136 __no_init S2W_CID_T s2wCidList[MAX_CID_RANGE];
//  137 
//  138 /**
//  139  * @brief Buffer to hold the recieved data.
//  140  */
//  141 __no_init UINT8 s2wRxBuf[S2W_RX_BUF_SIZE];
//  142 
//  143 /* Events to register the socket callback for
//  144  */
//  145 #define S2W_RXCALLBACK_FLAGS (NX_BSD_CB_TCP_RECIEVE | NX_BSD_CB_UDP_RECIEVE | NX_BSD_CB_TCP_LISTEN | NX_BSD_CB_TCP_DISCONNECT |	NX_BSD_CB_SOCKET_ERROR)
//  146 //#define S2W_RXCALLBACK_FLAGS NX_BSD_CB_TCP_LISTEN
//  147 /* stack for net rx task
//  148  */
//  149 __no_init PUBLIC UINT8 s2wNetRecvTaskStack[APP_CFG_NET_RX_STACK_SIZE];
//  150 
//  151 extern GSN_OSAL_QUEUE_T appMainThreadMsgQueue;
//  152 #ifdef S2W_PING_TRACE
//  153 extern UINT8 s2wPingStarted;
//  154 #endif
//  155 /* Queue for the receive task
//  156  */
//  157 PUBLIC GSN_OSAL_QUEUE_T s2wNetQueue;
s2wNetQueue:
        DS8 56

        SECTION `.noinit`:DATA:REORDER:NOROOT(3)
s2wCidList:
        DS8 4736
s2wNetRecvTaskStack:
        DS8 4096
//  158 __no_init UINT32 s2wNetQueueBuffer[ ((APP_CFG_NET_RX_MAX_MSG_IN_MBOX) * sizeof(S2W_MSG_T)) / sizeof(UINT32)];
s2wNetQueueBuffer:
        DS8 512

        SECTION `.noinit`:DATA:REORDER:NOROOT(2)
s2wRxBuf:
        DS8 1500
//  159 
//  160 extern S2W_SSL_CERT_SRAM_TABLE_T s2w_ssl_cert_table[];
//  161 
//  162 #define GSN_MAX_NUM_CERT        8
//  163 #define S2W_CERT_NAME_CA        "TLS_CA"
//  164 #define S2W_CERT_NAME_CLIENT    "TLS_CLIENT"
//  165 #define S2W_CERT_NAME_KEY       "TLS_KEY"
//  166 
//  167 #define S2W_SSL_CERT_NAME_CA        "SSL_CA"
//  168 #define S2W_SSL_CERT_NAME_SERVER    "SSL_SERVER"
//  169 #define S2W_SSL_CERT_NAME_KEY       "SSL_KEY"
//  170 
//  171 /*****************************************************************************
//  172   *  Private Functions
//  173   *****************************************************************************/
//  174 
//  175 VOID
//  176 AppS2wHal_NetRecvTask(UINT32 u32Address);
//  177 
//  178 
//  179 UINT8
//  180 AppS2wHal_CidGet(VOID);
//  181 
//  182 UINT8
//  183 AppS2wHal_CidFind(INT32 sd);
//  184 
//  185 PRIVATE VOID
//  186 AppS2wHal_RxCallBack(INT32 sock, NX_BSD_CB_EVENT_TYPE_T flags,UINT32 port);
//  187 
//  188 
//  189 PRIVATE UINT8
//  190 AppS2wHal_NetImmediateClose(UINT8 cid);
//  191 
//  192 PUBLIC UINT8
//  193 AppS2wHal_CidGet(VOID);
//  194 
//  195 PRIVATE GSN_STATUS
//  196 AppS2w_SslLocalClose(UINT8 cid);
//  197 
//  198 PRIVATE VOID
//  199 AppS2wHal_HttpCloseTimeout(VOID *unused);
//  200 
//  201 #ifdef S2W_HTTPC_SUPPORT
//  202 PRIVATE UINT8
//  203 AppS2wHal_HttpLocalClose(UINT32 cid);
//  204 #endif
//  205 PUBLIC GSN_STATUS 
//  206 AppS2w_SslClose(UINT8 cid);
//  207 
//  208 #ifdef S2W_COAP_SUPPORT
//  209 PUBLIC GSN_COAP_CONTEXT_T*
//  210 AppS2wHal_CoapHandleGet(UINT8 cid);
//  211 #endif
//  212 extern GSN_HTTPC_CONF_INFO_T httpConfInfo;
//  213 extern GSN_HTTP_USER_HEADER_TYPE_T headerTypes[];
//  214 extern GSN_HTTP_USER_HEADER_TYPE_T headerTypesModified[];
//  215 extern int tlsv1_client_established(struct tlsv1_client *conn);
//  216 
//  217 
//  218 
//  219 /*****************************************************************************
//  220   *  Public Functions
//  221   *****************************************************************************/
//  222 /**
//  223  ******************************************************************
//  224  * @ingroup S2w-Application
//  225  * @brief Get the pointer to s2wCidList entry for a given cid.
//  226  *
//  227  ******************************************************************/
//  228 

        SECTION `.text`:CODE:NOROOT(1)
          CFI Block cfiBlock10 Using cfiCommon0
          CFI Function AppS2wHal_CidListElementGet
          CFI NoCalls
        THUMB
//  229 PUBLIC S2W_CID_T*
//  230 AppS2wHal_CidListElementGet(UINT8 cid)
//  231 {
//  232 	return (&s2wCidList[cid]);
AppS2wHal_CidListElementGet:
        MOV      R1,#+296
        LDR.W    R2,??DataTable58
        MLA      R0,R1,R0,R2
        BX       LR               ;; return
          CFI EndBlock cfiBlock10
//  233 }
//  234 /**
//  235  ******************************************************************
//  236  * @ingroup S2w-Application
//  237  * @brief S2w udp client open function.
//  238  *    This function opens a new udp client socket and store the socket info
//  239  *    into the corresponding Cid list and registers any receive events on this
//  240  *    socket with network stack.
//  241  * @param peerData - IN the address of the data structure contain the udp server
//  242  *                      info.
//  243  *.@param cidNo    - IN the address to which the cid number to be stored.
//  244  *.@param srcPort  - IN the source port to which the the udp client socket
//  245  *                     to be bind.
//  246  * @retval S2W_SUCCESS     - operation successfull.
//  247  * @retval S2W_SOCKFAILURE - operation failed
//  248  * @retval S2W_ENCID       - operation failed- no valid cid.
//  249  ******************************************************************/

        SECTION `.text`:CODE:NOROOT(1)
          CFI Block cfiBlock11 Using cfiCommon0
          CFI Function AppS2wHal_NetUdpClient
        THUMB
//  250 PUBLIC UINT8
//  251 AppS2wHal_NetUdpClient(S2W_NETDATA_T *peerData, UINT8 *cidNo, UINT16 srcPort)
//  252 {
AppS2wHal_NetUdpClient:
        PUSH     {R4-R9,LR}
          CFI R14 Frame(CFA, -4)
          CFI R9 Frame(CFA, -8)
          CFI R8 Frame(CFA, -12)
          CFI R7 Frame(CFA, -16)
          CFI R6 Frame(CFA, -20)
          CFI R5 Frame(CFA, -24)
          CFI R4 Frame(CFA, -28)
          CFI CFA R13+28
        SUB      SP,SP,#+52
          CFI CFA R13+80
        MOV      R4,R0
        MOV      R9,R1
        MOV      R6,R2
//  253     UINT8 cid;
//  254     INT32 sd,addressLength, ret;
//  255 
//  256     struct sockaddr_in srcAddr;
//  257     struct sockaddr localAddress;
//  258     
//  259     /* Get free connection identifier list entry. */
//  260     cid = AppS2wHal_CidGet();
          CFI FunCall AppS2wHal_CidGet
        BL       AppS2wHal_CidGet
        MOV      R7,R0
//  261     if (cid == INVALID_CID)
        CMP      R7,#+255
        IT       EQ 
        MOVEQ    R0,#+4
//  262     {
//  263         return S2W_ENCID;
        BEQ.N    ??AppS2wHal_NetUdpClient_0
//  264     }
//  265     /* check the node has a valid ip */
//  266      //if(nwConfigSuccess != TRUE)
//  267      {
//  268         // return S2W_SOCKFAILURE;
//  269      }
//  270 
//  271     if ((sd = socket(AF_INET, SOCK_DGRAM, 0)) == -1)
        BL       ?Subroutine5
??CrossCallReturnLabel_8:
        MOV      R8,R0
        CMN      R8,#+1
        BEQ.N    ??AppS2wHal_NetUdpClient_1
//  272     {
//  273         return S2W_SOCKFAILURE;
//  274     }
//  275     /* if a valid src port passed bind with that else leave it */
//  276     if(srcPort > 0)
        CBZ.N    R6,??AppS2wHal_NetUdpClient_2
//  277     {
//  278         srcAddr.sin_family = AF_INET;
        MOVS     R0,#+2
        STRH     R0,[SP, #+16]
//  279         srcAddr.sin_port = htons(srcPort);
//  280         srcAddr.sin_addr.s_addr = 0;//htonl(INADDR_ANY);
//  281         if (bind(sd, (struct sockaddr *)&srcAddr, sizeof(srcAddr)) == -1)
        MOVS     R2,#+16
        LSLS     R0,R6,#+8
        ORR      R0,R0,R6, LSR #+8
        STRH     R0,[SP, #+18]
        ADD      R1,SP,#+16
        MOVS     R0,#+0
        STR      R0,[SP, #+20]
        BL       ?Subroutine10
//  282         {
//  283             soc_close(sd);
//  284             return S2W_SOCKFAILURE;
//  285         }
//  286     }
??CrossCallReturnLabel_20:
        CMN      R0,#+1
        BEQ.N    ??AppS2wHal_NetUdpClient_3
//  287     else
//  288     {
//  289       srcAddr.sin_family = AF_INET;
//  290       srcAddr.sin_port = NX_ANY_PORT;
//  291       srcAddr.sin_addr.s_addr = 0;//htonl(INADDR_ANY);
//  292       if (bind(sd, (struct sockaddr *)&srcAddr, sizeof(srcAddr)) == -1)
//  293       {
//  294           soc_close(sd);
//  295           return S2W_SOCKFAILURE;
//  296       }
//  297       
//  298     }
//  299     
//  300    
//  301       
//  302      
//  303     /* Update the connection identifier list with the server information. */
//  304     s2wCidList[cid].sd = sd;
??AppS2wHal_NetUdpClient_4:
        BL       ?Subroutine13
//  305     s2wCidList[cid].conType = UDP;
??CrossCallReturnLabel_29:
        MOVS     R2,#+1
        STR      R8,[R5, #+28]
        STRB     R2,[R0, R1]
//  306     s2wCidList[cid].conMode = S2W_NETDATA_MODE_CLIENT;
        MOVS     R0,#+0
        STRB     R0,[R5, #+1]
//  307     s2wCidList[cid].remotePort = (peerData->port);
        LDRH     R0,[R4, #+2]
        STRH     R0,[R5, #+4]
//  308     if(srcPort > 0)
        CBZ.N    R6,??AppS2wHal_NetUdpClient_5
//  309     {
//  310         s2wCidList[cid].localPort = srcPort;
        STRH     R6,[R5, #+2]
        B.N      ??AppS2wHal_NetUdpClient_6
//  311     }
??AppS2wHal_NetUdpClient_2:
        MOVS     R0,#+2
        STRH     R0,[SP, #+16]
        MOVS     R2,#+16
        MOVS     R0,#+0
        STRH     R0,[SP, #+18]
        STR      R0,[SP, #+20]
        ADD      R1,SP,#+16
        BL       ?Subroutine10
??CrossCallReturnLabel_19:
        CMN      R0,#+1
        BNE.N    ??AppS2wHal_NetUdpClient_4
??AppS2wHal_NetUdpClient_3:
        BL       ?Subroutine11
??CrossCallReturnLabel_24:
        B.N      ??AppS2wHal_NetUdpClient_1
//  312     else
//  313     {
//  314        addressLength = sizeof(localAddress);
??AppS2wHal_NetUdpClient_5:
        MOVS     R0,#+16
        STR      R0,[SP, #+4]
//  315        ret = getsockname(sd,&localAddress,&addressLength);
//  316        if(ret < 0)
        ADD      R2,SP,#+4
        ADD      R1,SP,#+32
        MOV      R0,R8
          CFI FunCall getsockname
        BL       getsockname
        CMP      R0,#+0
        BMI.N    ??AppS2wHal_NetUdpClient_7
//  317        {
//  318            AppS2wHal_NetClose(cid);
//  319            return S2W_SOCKFAILURE;
//  320        }
//  321        s2wCidList[cid].localPort = htons(((struct sockaddr_in*)&localAddress)->sin_port);
        LDRH     R0,[SP, #+34]
        LSLS     R1,R0,#+8
        ORR      R0,R1,R0, LSR #+8
        STRH     R0,[R5, #+2]
//  322     }
//  323     
//  324       memcpy(s2wCidList[cid].remoteIp,peerData->ipAddr,4);
??AppS2wHal_NetUdpClient_6:
        MOVS     R2,#+4
        ADDS     R1,R4,#+4
        ADDS     R0,R5,#+6
          CFI FunCall memcpy
        BL       memcpy
//  325     
//  326      
//  327 
//  328     // setsockopt(s2wCidList[cid].sd,SOL_SOCKET,SO_SNDTIMEO,(void*)&RecvTime,8);
//  329     // fcntl(s2wCidList[cid].sd , F_SETFL, O_NONBLOCK);
//  330     
//  331     struct timeval TimeOut;
//  332         TimeOut.tv_sec =  0;
        MOVS     R0,#+0
        STR      R0,[SP, #+8]
//  333         TimeOut.tv_usec = 1 * NX_MICROSECOND_PER_CPU_TICK;
//  334        // setsockopt(s2wCidList[cid].sd,SOL_SOCKET,SO_SNDTIMEO,(void*)&TimeOut,8);
//  335         ret = setsockopt(s2wCidList[cid].sd,SOL_SOCKET,SO_RCVTIMEO,(void*)&TimeOut,8);
//  336         if(ret < 0)
        ADD      R3,SP,#+8
        LDR.W    R0,??DataTable58_1  ;; 0x186a0
        STR      R0,[SP, #+12]
        BL       ?Subroutine18
??CrossCallReturnLabel_41:
        CMP      R0,#+0
        BPL.N    ??AppS2wHal_NetUdpClient_8
//  337         {
//  338             AppS2wHal_NetClose(cid);
??AppS2wHal_NetUdpClient_7:
        MOV      R0,R7
          CFI FunCall AppS2wHal_NetClose
        BL       AppS2wHal_NetClose
//  339             return S2W_SOCKFAILURE;
??AppS2wHal_NetUdpClient_1:
        MOVS     R0,#+3
        B.N      ??AppS2wHal_NetUdpClient_0
//  340         }
//  341      
//  342     /* Register the socket callback function to receive the events. */
//  343     nx_bsd_callback_register(s2wCidList[cid].sd, AppS2wHal_RxCallBack,S2W_RXCALLBACK_FLAGS);
??AppS2wHal_NetUdpClient_8:
        BL       ?Subroutine19
//  344     *cidNo = cid;
??CrossCallReturnLabel_43:
        STRB     R7,[R9, #+0]
//  345     return S2W_SUCCESS;
        MOVS     R0,#+0
??AppS2wHal_NetUdpClient_0:
        ADD      SP,SP,#+52
          CFI CFA R13+28
        POP      {R4-R9,PC}       ;; return
          CFI EndBlock cfiBlock11
//  346 
//  347 }
//  348 
//  349 #ifdef S2W_IPv6_SUPPORT
//  350 
//  351 PUBLIC UINT8
//  352 AppS2wHal_NetUdpClientv6(S2W_NETDATA_T *remoteServerData, UINT8 *cidNo, UINT16 srcPort)
//  353 {
//  354     UINT8 cid;
//  355     INT status;
//  356     INT32 sd;
//  357     GSN_NWIF_IP_CONFIG_T nwParams;
//  358     struct sockaddr_in6 CliAddr;
//  359 
//  360       if ((sd = socket(AF_INET6, SOCK_DGRAM, IPPROTO_UDP)) == -1)
//  361          {
//  362           return S2W_SOCKFAILURE;
//  363          }
//  364 
//  365      memset(&CliAddr,0,sizeof(struct sockaddr_in6));
//  366      
//  367     if(srcPort > 0)
//  368     {
//  369       
//  370         CliAddr.sin6_family = AF_INET6;
//  371         CliAddr.sin6_port = srcPort;
//  372        
//  373         GsnNwIf_IpConfigGet(&s2wappMainTaskCtxt->if0.nwifCtx,&nwParams);
//  374         
//  375         if(nwParams.ipv6.globalAddr)
//  376           COPY_IPV6_ADDRESS(((ULONG *)&nwParams.ipv6.globalAddr), (ULONG *)&(CliAddr.sin6_addr._S6_un._S6_u32));
//  377         else
//  378           COPY_IPV6_ADDRESS(((ULONG *)&nwParams.ipv6.linkLocalAddr), (ULONG *)&(CliAddr.sin6_addr._S6_un._S6_u32));
//  379          GSN_IPv6_CHANGE_ENDIAN((UINT32 *)CliAddr.sin6_addr._S6_un._S6_u32);
//  380         status = bind (sd, (struct sockaddr *) &CliAddr, sizeof(CliAddr));
//  381           
//  382         if(status < 0)
//  383         {
//  384           soc_close(sd);
//  385           return S2W_SOCKFAILURE;
//  386         }
//  387         
//  388     }
//  389     
//  390     /* Get free connection identifier list entry. */
//  391     
//  392     cid = AppS2wHal_CidGet();
//  393     if (cid == INVALID_CID)
//  394     {
//  395         return S2W_ENCID;
//  396     }
//  397   
//  398      /* Update the connection identifier list with the server information. */
//  399     
//  400     s2wCidList[cid].sd = sd;
//  401     s2wCidList[cid].conType = UDP;
//  402     s2wCidList[cid].conMode = S2W_NETDATA_MODE_CLIENT;
//  403     s2wCidList[cid].remotePort = remoteServerData->port;
//  404     s2wCidList[cid].addrType = ADDR_TYPE_IPv6;
//  405     if(srcPort > 0)
//  406     {
//  407         s2wCidList[cid].localPort = remoteServerData->port;
//  408     }
//  409     
//  410     memcpy(s2wCidList[cid].remoteIpv6,remoteServerData->ipv6Addr,16);
//  411     
//  412      
//  413     // setsockopt(s2wCidList[cid].sd,SOL_SOCKET,SO_SNDTIMEO,(void*)&RecvTime,8);
//  414      
//  415     // fcntl(s2wCidList[cid].sd , F_SETFL, O_NONBLOCK);
//  416     struct timeval TimeOut;
//  417         TimeOut.tv_sec =  0;
//  418         TimeOut.tv_usec = 1 * NX_MICROSECOND_PER_CPU_TICK;
//  419         //setsockopt(s2wCidList[cid].sd,SOL_SOCKET,SO_SNDTIMEO,(void*)&TimeOut,8);
//  420         setsockopt(s2wCidList[cid].sd,SOL_SOCKET,SO_RCVTIMEO,(void*)&TimeOut,8);
//  421     
//  422     nx_bsd_callback_register(s2wCidList[cid].sd, AppS2wHal_RxCallBack,S2W_RXCALLBACK_FLAGS);
//  423     
//  424     *cidNo = cid;
//  425     
//  426     return S2W_SUCCESS;
//  427 }
//  428 
//  429 PUBLIC UINT8
//  430 AppS2wHal_NetUdpServerv6(S2W_NETDATA_T *serverData, UINT8 *cidNo)
//  431 {
//  432   UINT8 cid;
//  433   INT32 sd;
//  434   struct sockaddr_in6 servAddr;
//  435   GSN_NWIF_IP_CONFIG_T nwParams;
//  436   
//  437   cid = AppS2wHal_CidGet();
//  438     if (cid == INVALID_CID)
//  439     {
//  440         return S2W_ENCID;
//  441     }
//  442     
//  443     if ((sd = socket( AF_INET6, SOCK_DGRAM, IPPROTO_UDP)) == -1)
//  444     {
//  445         return S2W_SOCKFAILURE;
//  446     }
//  447     memset(&servAddr,0,sizeof(struct sockaddr_in6));    
//  448     servAddr.sin6_family = AF_INET6;
//  449     servAddr.sin6_port = htons(serverData->port);
//  450     
//  451     GsnNwIf_IpConfigGet(&s2wappMainTaskCtxt->if0.nwifCtx,&nwParams);
//  452         
//  453     if(nwParams.ipv6.globalAddr)
//  454       COPY_IPV6_ADDRESS(((ULONG *)&nwParams.ipv6.globalAddr), (ULONG *)&(servAddr.sin6_addr._S6_un._S6_u32));
//  455     else
//  456       COPY_IPV6_ADDRESS(((ULONG *)&nwParams.ipv6.linkLocalAddr), (ULONG *)&(servAddr.sin6_addr._S6_un._S6_u32));
//  457     GSN_IPv6_CHANGE_ENDIAN((UINT32 *)servAddr.sin6_addr._S6_un._S6_u32);
//  458      if (bind(sd,  (struct sockaddr *)&servAddr, sizeof(servAddr)) == -1)
//  459     {
//  460         soc_close(sd);
//  461         return S2W_SOCKFAILURE;
//  462     }
//  463     
//  464     s2wCidList[cid].sd = sd;
//  465     s2wCidList[cid].conType = UDP;
//  466     s2wCidList[cid].conMode = S2W_NETDATA_MODE_SERVER;
//  467     s2wCidList[cid].localPort = serverData->port;
//  468     s2wCidList[cid].remotePort = 0;
//  469     s2wCidList[cid].addrType = ADDR_TYPE_IPv6;
//  470     memset(s2wCidList[cid].remoteIpv6,0,16);
//  471 
//  472      
//  473      //setsockopt(s2wCidList[cid].sd,SOL_SOCKET,SO_SNDTIMEO,(void*)&RecvTime,8);
//  474      
//  475      // fcntl(s2wCidList[cid].sd , F_SETFL, O_NONBLOCK);
//  476     
//  477     struct timeval TimeOut;
//  478         TimeOut.tv_sec =  0;
//  479         TimeOut.tv_usec = 1 * NX_MICROSECOND_PER_CPU_TICK;
//  480         //setsockopt(s2wCidList[cid].sd,SOL_SOCKET,SO_SNDTIMEO,(void*)&TimeOut,8);
//  481         setsockopt(s2wCidList[cid].sd,SOL_SOCKET,SO_RCVTIMEO,(void*)&TimeOut,8);
//  482     
//  483     nx_bsd_callback_register(s2wCidList[cid].sd, AppS2wHal_RxCallBack,S2W_RXCALLBACK_FLAGS);
//  484 
//  485     *cidNo = cid;
//  486     
//  487     return S2W_SUCCESS;
//  488    
//  489 }
//  490 
//  491 
//  492 PUBLIC UINT8
//  493 AppS2wHal_NetTcpClientv6(S2W_NETDATA_T *remoteServerData, UINT8 *cidNo)
//  494 {
//  495   
//  496     UINT32 cid;
//  497     INT32 sd;
//  498     INT32 status;
//  499     struct sockaddr_in6 destAddr;
//  500     
//  501     cid = AppS2wHal_CidGet();
//  502     if (cid == INVALID_CID)
//  503     {
//  504         return S2W_ENCID;
//  505     }
//  506     
//  507     if ((sd = socket(AF_INET6, SOCK_STREAM, IPPROTO_TCP)) == -1)
//  508     {
//  509         return S2W_SOCKFAILURE;
//  510     }
//  511     
//  512     memset(&destAddr, 0, sizeof(destAddr));
//  513     
//  514     destAddr.sin6_family = AF_INET6;
//  515     COPY_IPV6_ADDRESS((ULONG*)remoteServerData->ipv6Addr, (ULONG *)&(destAddr.sin6_addr._S6_un._S6_u32));
//  516     destAddr.sin6_port = htons(remoteServerData->port);
//  517      GSN_IPv6_CHANGE_ENDIAN((UINT32 *)destAddr.sin6_addr._S6_un._S6_u32);
//  518     
//  519     s2wCidList[cid].sd = sd;
//  520     s2wCidList[cid].conType = TCP;
//  521     s2wCidList[cid].conMode = S2W_NETDATA_MODE_CLIENT;
//  522     s2wCidList[cid].remotePort = remoteServerData->port;
//  523     s2wCidList[cid].addrType = ADDR_TYPE_IPv6;
//  524     
//  525     memcpy(s2wCidList[cid].remoteIpv6,remoteServerData->ipv6Addr,16);
//  526     
//  527      
//  528     // setsockopt(s2wCidList[cid].sd,SOL_SOCKET,SO_SNDTIMEO,(void*)&RecvTime,8);
//  529      
//  530       
//  531       
//  532     nx_bsd_callback_register(s2wCidList[cid].sd, AppS2wHal_RxCallBack,S2W_RXCALLBACK_FLAGS);
//  533     
//  534     status = connect(sd, (struct sockaddr *)&destAddr, sizeof(destAddr));
//  535     
//  536     if (status < 0 )
//  537     {
//  538         AppS2wHal_NetClose(cid);
//  539         return S2W_SOCKFAILURE;
//  540     }
//  541 
//  542     *cidNo = cid;
//  543 
//  544     s2wCidList[cid].sslflag = FALSE;
//  545     
//  546     //fcntl(s2wCidList[cid].sd , F_SETFL, O_NONBLOCK);
//  547     struct timeval TimeOut;
//  548         TimeOut.tv_sec =  0;
//  549         TimeOut.tv_usec = 1 * NX_MICROSECOND_PER_CPU_TICK;
//  550         //setsockopt(s2wCidList[cid].sd,SOL_SOCKET,SO_SNDTIMEO,(void*)&TimeOut,8);
//  551         setsockopt(s2wCidList[cid].sd,SOL_SOCKET,SO_RCVTIMEO,(void*)&TimeOut,8);
//  552 
//  553     return S2W_SUCCESS;
//  554   
//  555 }
//  556 
//  557 
//  558 PUBLIC UINT8
//  559 AppS2wHal_NetTcpServerv6(S2W_NETDATA_T *serverData, UINT8 *cidNo)
//  560 {
//  561   INT32 sd;
//  562   UINT8 cid;
//  563   struct sockaddr_in6 servAddr;
//  564   GSN_NWIF_IP_CONFIG_T nwParams;
//  565 
//  566   cid = AppS2wHal_CidGet();
//  567   if (cid == INVALID_CID)
//  568   {
//  569       return S2W_ENCID;
//  570   }
//  571   
//  572   if ((sd = socket(AF_INET6, SOCK_STREAM, IPPROTO_TCP)) == -1)
//  573     {
//  574         return S2W_SOCKFAILURE;
//  575     }
//  576   
//  577   memset(&servAddr, 0, sizeof(servAddr));
//  578   
//  579   servAddr.sin6_family = AF_INET6;
//  580   servAddr.sin6_port = htons(serverData->port);
//  581   
//  582   GsnNwIf_IpConfigGet(&s2wappMainTaskCtxt->if0.nwifCtx,&nwParams);
//  583         
//  584   if(nwParams.ipv6.globalAddr)
//  585      COPY_IPV6_ADDRESS(((ULONG *)&nwParams.ipv6.globalAddr), (ULONG *)&(servAddr.sin6_addr._S6_un._S6_u32));
//  586   else
//  587      COPY_IPV6_ADDRESS(((ULONG *)&nwParams.ipv6.linkLocalAddr), (ULONG *)&(servAddr.sin6_addr._S6_un._S6_u32));
//  588      GSN_IPv6_CHANGE_ENDIAN((UINT32 *)servAddr.sin6_addr._S6_un._S6_u32);
//  589     if (bind(sd, (struct sockaddr *) &servAddr, sizeof(servAddr)) ==  -1)
//  590     {
//  591         soc_close(sd);
//  592         return S2W_SOCKFAILURE;
//  593     }
//  594     
//  595       if (listen(sd, 5) < 0)
//  596     {
//  597         soc_close(sd);
//  598         return S2W_SOCKFAILURE;
//  599     }
//  600 
//  601     
//  602     s2wCidList[cid].sd = sd;
//  603     s2wCidList[cid].conType = TCP;
//  604     s2wCidList[cid].conMode = S2W_NETDATA_MODE_SERVER;
//  605     s2wCidList[cid].localPort = serverData->port;
//  606     s2wCidList[cid].remotePort = 0;
//  607     memset(s2wCidList[cid].remoteIpv6,0,16);
//  608     s2wCidList[cid].addrType = ADDR_TYPE_IPv6;
//  609     
//  610      
//  611     // setsockopt(s2wCidList[cid].sd,SOL_SOCKET,SO_SNDTIMEO,(void*)&RecvTime,8);
//  612     
//  613     nx_bsd_callback_register(s2wCidList[cid].sd, AppS2wHal_RxCallBack,S2W_RXCALLBACK_FLAGS);
//  614 
//  615     *cidNo = cid;
//  616 
//  617     return S2W_SUCCESS;
//  618  
//  619 }
//  620 
//  621 
//  622 
//  623 #endif
//  624 

        SECTION `.text`:CODE:NOROOT(1)
          CFI Block cfiBlock12 Using cfiCommon0
          CFI Function AppS2w_ConnModeGet
          CFI NoCalls
        THUMB
//  625 PUBLIC UINT8 AppS2w_ConnModeGet(UINT8 cid)
//  626 {
//  627     return (s2wCidList[cid].conMode);
AppS2w_ConnModeGet:
        MOV      R1,#+296
        LDR.W    R2,??DataTable58
        MLA      R0,R1,R0,R2
        LDRB     R0,[R0, #+1]
        BX       LR               ;; return
          CFI EndBlock cfiBlock12
//  628 }
//  629 
//  630 
//  631 /**
//  632  ******************************************************************
//  633  * @ingroup S2w-Application
//  634  * @brief S2w tcp client open function.
//  635  *    This function opens a new tcp client socket and store the socket info
//  636  *    into the corresponding Cid list and registers any receive events on this
//  637  *    socket with network stack.
//  638  *    This fuction tries to connect to the remote server.
//  639  * @param peerData - IN the address of the data structure contain the tcp server
//  640  *                      info.
//  641  *.@param cidNo    - IN the address to which the cid number to be stored.
//  642  * @retval S2W_SUCCESS     - operation successfull.
//  643  * @retval S2W_SOCKFAILURE - operation failed
//  644  * @retval S2W_ENCID       - operation failed- no valid cid
//  645  ******************************************************************/

        SECTION `.text`:CODE:NOROOT(1)
          CFI Block cfiBlock13 Using cfiCommon0
          CFI Function AppS2wHal_NetTcpClient
        THUMB
//  646 PUBLIC UINT8
//  647 AppS2wHal_NetTcpClient(S2W_NETDATA_T *peerData, UINT8 *cidNo)
//  648 {
AppS2wHal_NetTcpClient:
        PUSH     {R4-R10,LR}
          CFI R14 Frame(CFA, -4)
          CFI R10 Frame(CFA, -8)
          CFI R9 Frame(CFA, -12)
          CFI R8 Frame(CFA, -16)
          CFI R7 Frame(CFA, -20)
          CFI R6 Frame(CFA, -24)
          CFI R5 Frame(CFA, -28)
          CFI R4 Frame(CFA, -32)
          CFI CFA R13+32
        BL       ?Subroutine7
//  649     struct sockaddr_in destAddr;
//  650     UINT32 cid;
//  651     INT32 sd;
//  652     INT32 ret;
//  653     ULONG connect_timeout =  (s2wCurrent.registers[S2W_REG_TCP_CONNECT_TIMEOUT]/100);
??CrossCallReturnLabel_11:
        MOV      R10,R1
        SUB      SP,SP,#+40
          CFI CFA R13+72
        MOVS     R1,#+100
        SDIV     R0,R0,R1
        STR      R0,[SP, #+4]
//  654     ULONG rexTimeOut=75,retransRate=1;
        MOVS     R0,#+75
        STR      R0,[SP, #+20]
        MOVS     R0,#+1
        STR      R0,[SP, #+16]
//  655 
//  656     /* get  a valid cid */
//  657     cid = AppS2wHal_CidGet();
          CFI FunCall AppS2wHal_CidGet
        BL       AppS2wHal_CidGet
        MOV      R7,R0
//  658     if (cid == INVALID_CID)
        CMP      R7,#+255
        BNE.N    ??AppS2wHal_NetTcpClient_0
//  659     {
//  660 	    S2w_Printf("\r\n error 1");
        ADR.W    R0,`?<Constant "\\r\\n error 1">`
          CFI FunCall S2w_Printf
        BL       S2w_Printf
//  661         return S2W_ENCID;
        MOVS     R0,#+4
        B.N      ??AppS2wHal_NetTcpClient_1
//  662     }
//  663 
//  664     /* open a tcp client socket */
//  665     if ((sd = socket(AF_INET, SOCK_STREAM, 0)) == -1)
??AppS2wHal_NetTcpClient_0:
        MOVS     R2,#+0
        MOVS     R1,#+1
        BL       ??Subroutine5_0
??CrossCallReturnLabel_6:
        MOV      R8,R0
        CMN      R8,#+1
        BNE.N    ??AppS2wHal_NetTcpClient_2
//  666     {
//  667 	    S2w_Printf("\r\n error 2");
        ADR.W    R0,`?<Constant "\\r\\n error 2">`
          CFI FunCall S2w_Printf
        BL       S2w_Printf
//  668         return S2W_SOCKFAILURE;
        MOVS     R0,#+3
        B.N      ??AppS2wHal_NetTcpClient_1
//  669     }
//  670 
//  671     /** Make the socket non blocking. */
//  672     //tfBlockingState(sd, TM_BLOCKING_OFF);
//  673 
//  674     ret = setsockopt(sd,IP_PROTOTCP,TCP_REX_TIMER_RATE,(void*)&retransRate,4);
//  675     if (ret < 0 )
??AppS2wHal_NetTcpClient_2:
        MOVS     R0,#+4
        STR      R0,[SP, #+0]
        ADD      R3,SP,#+16
        MOVS     R2,#+43
        BL       ??Subroutine12_0
??CrossCallReturnLabel_26:
        CMP      R0,#+0
        BPL.N    ??AppS2wHal_NetTcpClient_3
//  676     {
//  677 	    S2w_Printf("\r\n error 3");
        ADR.W    R0,`?<Constant "\\r\\n error 3">`
        B.N      ??AppS2wHal_NetTcpClient_4
//  678     	soc_close(sd);
//  679         return S2W_FAILURE;
//  680     }
//  681     ret = setsockopt(sd,IP_PROTOTCP,TCP_MAXRT,(void*)&rexTimeOut,4);
//  682     if (ret < 0 )
??AppS2wHal_NetTcpClient_3:
        MOVS     R0,#+4
        STR      R0,[SP, #+0]
        ADD      R3,SP,#+20
        BL       ?Subroutine12
??CrossCallReturnLabel_28:
        CMP      R0,#+0
        BPL.N    ??AppS2wHal_NetTcpClient_5
//  683     {
//  684 	    S2w_Printf("\r\n error 4");
        ADR.W    R0,`?<Constant "\\r\\n error 4">`
        B.N      ??AppS2wHal_NetTcpClient_4
//  685     	soc_close(sd);
//  686         return S2W_FAILURE;
//  687     }
//  688 
//  689     ret = setsockopt(sd,IP_PROTOTCP,CONNECT_TIMEOUT_TM,(void*)&connect_timeout,4);
//  690     if (ret < 0 )
??AppS2wHal_NetTcpClient_5:
        BL       ?Subroutine25
??CrossCallReturnLabel_60:
        MOVS     R2,#+64
        BL       ??Subroutine12_0
??CrossCallReturnLabel_25:
        CMP      R0,#+0
        BPL.N    ??AppS2wHal_NetTcpClient_6
//  691     {
//  692 	    S2w_Printf("\r\n error 5");
        ADR.W    R0,`?<Constant "\\r\\n error 5">`
??AppS2wHal_NetTcpClient_4:
          CFI FunCall S2w_Printf
        BL       S2w_Printf
//  693     	soc_close(sd);
        BL       ?Subroutine11
//  694         return S2W_FAILURE;
??CrossCallReturnLabel_23:
        B.N      ??AppS2wHal_NetTcpClient_7
//  695     }
//  696 
//  697     /** Connect the socket to the server. */
//  698     destAddr.sin_family = AF_INET;
??AppS2wHal_NetTcpClient_6:
        BL       ?Subroutine3
//  699     destAddr.sin_port = htons(peerData->port);
//  700     memcpy(&(destAddr.sin_addr.s_addr),&peerData->ipAddr,sizeof(destAddr.sin_addr.s_addr));
//  701 
//  702 
//  703     /* register the callback for any socket events */
//  704     nx_bsd_callback_register(sd, AppS2wHal_RxCallBack,S2W_RXCALLBACK_FLAGS);
??CrossCallReturnLabel_1:
        MOVS     R2,#+61
        LDR.W    R1,??DataTable58_2
        MOV      R0,R8
          CFI FunCall nx_bsd_callback_register
        BL       nx_bsd_callback_register
//  705 
//  706     ret = connect(sd, (struct sockaddr *)&destAddr, sizeof(destAddr));
        MOVS     R2,#+16
        ADD      R1,SP,#+24
        MOV      R0,R8
          CFI FunCall connect
        BL       connect
        MOV      R9,R0
//  707      /*
//  708      * Update the connection identifier list with connection information
//  709      * except the type.
//  710      */
//  711     s2wCidList[cid].sd = sd;
        BL       ?Subroutine13
??CrossCallReturnLabel_30:
        ADDS     R6,R5,#+4
//  712     s2wCidList[cid].conType = TCP;
        MOVS     R2,#+2
        STR      R8,[R6, #+24]
        STRB     R2,[R0, R1]
//  713     s2wCidList[cid].conMode = S2W_NETDATA_MODE_CLIENT_TRANSIENT;
        MOVS     R0,#+7
        STRB     R0,[R5, #+1]
//  714     s2wCidList[cid].remotePort = peerData->port;
//  715     memcpy(s2wCidList[cid].remoteIp,(UINT8*)peerData->ipAddr,4);
        MOVS     R2,#+4
        LDRH     R0,[R4, #+2]
        STRH     R0,[R5, #+4]
        ADDS     R1,R4,#+4
        ADDS     R0,R5,#+6
          CFI FunCall memcpy
        BL       memcpy
//  716 
//  717     if (ret < 0 )
        CMP      R9,#+0
        BPL.N    ??AppS2wHal_NetTcpClient_8
//  718     {
//  719         //S2w_Debug("connect failed: %d\r\n", tfGetSocketError(sd));
//  720         S2w_Printf("\r\n error 6");
        ADR.W    R0,`?<Constant "\\r\\n error 6">`
          CFI FunCall S2w_Printf
        BL       S2w_Printf
//  721         AppS2wHal_NetClose(cid);
        MOV      R0,R7
          CFI FunCall AppS2wHal_NetClose
        BL       AppS2wHal_NetClose
//  722         return S2W_FAILURE;
??AppS2wHal_NetTcpClient_7:
        MOVS     R0,#+1
        B.N      ??AppS2wHal_NetTcpClient_1
//  723     }
//  724     *cidNo = cid;
??AppS2wHal_NetTcpClient_8:
        STRB     R7,[R10, #+0]
//  725 	s2wCidList[cid].conMode = S2W_NETDATA_MODE_CLIENT;
        MOVS     R0,#+0
        STRB     R0,[R5, #+1]
//  726     s2wCidList[cid].sslflag = FALSE;
        STRB     R0,[R5, #+44]
//  727 	 s2wCidList[cid].serverCid = INVALID_CID;
//  728     /* reconfigure connect timeout, since we are making it non blocking */
//  729     connect_timeout =5;
//  730     
//  731     //fcntl(sd , F_SETFL, O_NONBLOCK);
//  732     struct timeval TimeOut;
//  733     TimeOut.tv_sec =  0;
//  734     TimeOut.tv_usec = 1 * NX_MICROSECOND_PER_CPU_TICK;
//  735     setsockopt(s2wCidList[cid].sd,SOL_SOCKET,SO_RCVTIMEO,(void*)&TimeOut,8);
        ADD      R3,SP,#+8
        MOVS     R0,#+255
        STRB     R0,[R5, #+46]
        BL       ?Subroutine9
??CrossCallReturnLabel_15:
        LDR      R0,[R6, #+24]
          CFI FunCall setsockopt
        BL       setsockopt
//  736     setsockopt(s2wCidList[cid].sd,IP_PROTOTCP,CONNECT_TIMEOUT_TM,(void*)&connect_timeout,4);
        BL       ?Subroutine25
??CrossCallReturnLabel_61:
        LDR      R0,[R6, #+24]
        BL       ?Subroutine22
//  737 
//  738     return S2W_SUCCESS;
??CrossCallReturnLabel_51:
        MOVS     R0,#+0
??AppS2wHal_NetTcpClient_1:
        ADD      SP,SP,#+40
          CFI CFA R13+32
        POP      {R4-R10,PC}      ;; return
          CFI EndBlock cfiBlock13
//  739 }

        SECTION `.text`:CODE:NOROOT(2)
        SECTION_TYPE SHT_PROGBITS, 0
        DATA
`?<Constant "\\r\\n error 1">`:
        DC8 "\015\012 error 1"
        DC8 0

        SECTION `.text`:CODE:NOROOT(1)
          CFI Block cfiCond14 Using cfiCommon0
          CFI Function AppS2wHal_NetTcpClient
          CFI Conditional ??CrossCallReturnLabel_51
          CFI R4 Frame(CFA, -32)
          CFI R5 Frame(CFA, -28)
          CFI R6 Frame(CFA, -24)
          CFI R7 Frame(CFA, -20)
          CFI R8 Frame(CFA, -16)
          CFI R9 Frame(CFA, -12)
          CFI R10 Frame(CFA, -8)
          CFI R14 Frame(CFA, -4)
          CFI CFA R13+72
          CFI Block cfiCond15 Using cfiCommon0
          CFI (cfiCond15) Function AppS2wHal_NetTcpClient_test
          CFI (cfiCond15) Conditional ??CrossCallReturnLabel_50
          CFI (cfiCond15) R4 Frame(CFA, -24)
          CFI (cfiCond15) R5 Frame(CFA, -20)
          CFI (cfiCond15) R6 Frame(CFA, -16)
          CFI (cfiCond15) R7 Frame(CFA, -12)
          CFI (cfiCond15) R8 Frame(CFA, -8)
          CFI (cfiCond15) R14 Frame(CFA, -4)
          CFI (cfiCond15) CFA R13+64
          CFI Block cfiPicker16 Using cfiCommon1
          CFI (cfiPicker16) NoFunction
          CFI (cfiPicker16) Picker
        THUMB
?Subroutine22:
        MOVS     R2,#+64
          CFI Block cfiCond17 Using cfiCommon0
          CFI (cfiCond17) Function AppS2wHal_NetClose
          CFI (cfiCond17) Conditional ??CrossCallReturnLabel_49
          CFI (cfiCond17) R4 Frame(CFA, -24)
          CFI (cfiCond17) R5 Frame(CFA, -20)
          CFI (cfiCond17) R6 Frame(CFA, -16)
          CFI (cfiCond17) R7 Frame(CFA, -12)
          CFI (cfiCond17) R8 Frame(CFA, -8)
          CFI (cfiCond17) R14 Frame(CFA, -4)
          CFI (cfiCond17) CFA R13+40
          CFI Block cfiCond18 Using cfiCommon0
          CFI (cfiCond18) Function AppS2wHal_NetCloseAll
          CFI (cfiCond18) Conditional ??CrossCallReturnLabel_52
          CFI (cfiCond18) R4 Frame(CFA, -32)
          CFI (cfiCond18) R5 Frame(CFA, -28)
          CFI (cfiCond18) R6 Frame(CFA, -24)
          CFI (cfiCond18) R7 Frame(CFA, -20)
          CFI (cfiCond18) R8 Frame(CFA, -16)
          CFI (cfiCond18) R9 Frame(CFA, -12)
          CFI (cfiCond18) R10 Frame(CFA, -8)
          CFI (cfiCond18) R14 Frame(CFA, -4)
          CFI (cfiCond18) CFA R13+48
??Subroutine22_0:
        MOVS     R1,#+3
          CFI FunCall AppS2wHal_NetTcpClient setsockopt
          CFI FunCall AppS2wHal_NetTcpClient_test setsockopt
          CFI FunCall AppS2wHal_NetClose setsockopt
          CFI FunCall AppS2wHal_NetCloseAll setsockopt
        B.W      setsockopt
          CFI EndBlock cfiCond14
          CFI EndBlock cfiCond15
          CFI EndBlock cfiPicker16
          CFI EndBlock cfiCond17
          CFI EndBlock cfiCond18

        SECTION `.text`:CODE:NOROOT(1)
          CFI Block cfiCond19 Using cfiCommon0
          CFI Function AppS2wHal_NetUdpClient
          CFI NoCalls
          CFI NoCalls
          CFI Conditional ??CrossCallReturnLabel_29
          CFI R4 Frame(CFA, -28)
          CFI R5 Frame(CFA, -24)
          CFI R6 Frame(CFA, -20)
          CFI R7 Frame(CFA, -16)
          CFI R8 Frame(CFA, -12)
          CFI R9 Frame(CFA, -8)
          CFI R14 Frame(CFA, -4)
          CFI CFA R13+80
          CFI Block cfiCond20 Using cfiCommon0
          CFI (cfiCond20) Function AppS2wHal_NetTcpClient
          CFI (cfiCond20) NoCalls AppS2wHal_NetUdpClient
          CFI (cfiCond20) NoCalls AppS2wHal_NetTcpClient
          CFI (cfiCond20) Conditional ??CrossCallReturnLabel_30
          CFI (cfiCond20) R4 Frame(CFA, -32)
          CFI (cfiCond20) R5 Frame(CFA, -28)
          CFI (cfiCond20) R6 Frame(CFA, -24)
          CFI (cfiCond20) R7 Frame(CFA, -20)
          CFI (cfiCond20) R8 Frame(CFA, -16)
          CFI (cfiCond20) R9 Frame(CFA, -12)
          CFI (cfiCond20) R10 Frame(CFA, -8)
          CFI (cfiCond20) R14 Frame(CFA, -4)
          CFI (cfiCond20) CFA R13+72
          CFI Block cfiPicker21 Using cfiCommon1
          CFI (cfiPicker21) NoFunction
          CFI (cfiPicker21) NoCalls AppS2wHal_NetUdpClient
          CFI (cfiPicker21) NoCalls AppS2wHal_NetTcpClient
          CFI (cfiPicker21) Picker
        THUMB
?Subroutine13:
        MOV      R0,#+296
        MULS     R0,R0,R7
        LDR.W    R1,??DataTable58
        ADDS     R5,R0,R1
        BX       LR
          CFI EndBlock cfiCond19
          CFI EndBlock cfiCond20
          CFI EndBlock cfiPicker21
//  740 

        SECTION `.text`:CODE:NOROOT(1)
          CFI Block cfiBlock22 Using cfiCommon0
          CFI Function AppS2wHal_NetTcpClient_test
        THUMB
//  741 PUBLIC UINT8
//  742 AppS2wHal_NetTcpClient_test(S2W_NETDATA_T *peerData, UINT8 *cidNo)
//  743 {
AppS2wHal_NetTcpClient_test:
        PUSH     {R4-R8,LR}
          CFI R14 Frame(CFA, -4)
          CFI R8 Frame(CFA, -8)
          CFI R7 Frame(CFA, -12)
          CFI R6 Frame(CFA, -16)
          CFI R5 Frame(CFA, -20)
          CFI R4 Frame(CFA, -24)
          CFI CFA R13+24
        BL       ?Subroutine7
//  744     struct sockaddr_in destAddr;
//  745     UINT32 cid;
//  746     INT32 sd;
//  747     INT32 ret;
//  748     ULONG connect_timeout =  (s2wCurrent.registers[S2W_REG_TCP_CONNECT_TIMEOUT]/100);
??CrossCallReturnLabel_12:
        MOV      R5,R1
        SUB      SP,SP,#+40
          CFI CFA R13+64
        MOVS     R1,#+100
        SDIV     R0,R0,R1
        STR      R0,[SP, #+4]
//  749     ULONG rexTimeOut=75,retransRate=1;
//  750 
//  751     /* get  a valid cid */
//  752     //cid = AppS2wHal_CidGet();
//  753 	cid = 0;
//  754     if (cid == INVALID_CID)
//  755     {
//  756 	    S2w_Printf("\r\n error 1");
//  757         return S2W_ENCID;
//  758     }
//  759 
//  760     /* open a tcp client socket */
//  761     if ((sd = socket(AF_INET, SOCK_STREAM, 0)) == -1)
        MOVS     R2,#+0
        MOVS     R0,#+75
        STR      R0,[SP, #+20]
        MOVS     R1,#+1
        MOVS     R0,#+1
        STR      R0,[SP, #+16]
        BL       ??Subroutine5_0
??CrossCallReturnLabel_5:
        MOV      R6,R0
        CMN      R6,#+1
        BNE.N    ??AppS2wHal_NetTcpClient_test_0
//  762     {
//  763 	    S2w_Printf("\r\n error 2");
        ADR.W    R0,`?<Constant "\\r\\n error 2">`
          CFI FunCall S2w_Printf
        BL       S2w_Printf
//  764         return S2W_SOCKFAILURE;
        MOVS     R0,#+3
        B.N      ??AppS2wHal_NetTcpClient_test_1
//  765     }
//  766 
//  767     /** Make the socket non blocking. */
//  768     //tfBlockingState(sd, TM_BLOCKING_OFF);
//  769 
//  770     ret = setsockopt(sd,IP_PROTOTCP,TCP_REX_TIMER_RATE,(void*)&retransRate,4);
//  771     if (ret < 0 )
??AppS2wHal_NetTcpClient_test_0:
        MOVS     R0,#+4
        STR      R0,[SP, #+0]
        ADD      R3,SP,#+16
        MOVS     R2,#+43
        BL       ?Subroutine23
??CrossCallReturnLabel_55:
        CMP      R0,#+0
        BPL.N    ??AppS2wHal_NetTcpClient_test_2
//  772     {
//  773 	    S2w_Printf("\r\n error 3");
        ADR.W    R0,`?<Constant "\\r\\n error 3">`
        B.N      ??AppS2wHal_NetTcpClient_test_3
//  774     	soc_close(sd);
//  775         return S2W_FAILURE;
//  776     }
//  777     ret = setsockopt(sd,IP_PROTOTCP,TCP_MAXRT,(void*)&rexTimeOut,4);
//  778     if (ret < 0 )
??AppS2wHal_NetTcpClient_test_2:
        MOVS     R0,#+4
        STR      R0,[SP, #+0]
        ADD      R3,SP,#+20
        MOVS     R2,#+41
        BL       ?Subroutine23
??CrossCallReturnLabel_54:
        CMP      R0,#+0
        BPL.N    ??AppS2wHal_NetTcpClient_test_4
//  779     {
//  780 	    S2w_Printf("\r\n error 4");
        ADR.W    R0,`?<Constant "\\r\\n error 4">`
        B.N      ??AppS2wHal_NetTcpClient_test_3
//  781     	soc_close(sd);
//  782         return S2W_FAILURE;
//  783     }
//  784 
//  785     ret = setsockopt(sd,IP_PROTOTCP,CONNECT_TIMEOUT_TM,(void*)&connect_timeout,4);
//  786     if (ret < 0 )
??AppS2wHal_NetTcpClient_test_4:
        BL       ?Subroutine25
??CrossCallReturnLabel_62:
        MOVS     R2,#+64
        BL       ?Subroutine23
??CrossCallReturnLabel_53:
        CMP      R0,#+0
        BPL.N    ??AppS2wHal_NetTcpClient_test_5
//  787     {
//  788 	    S2w_Printf("\r\n error 5");
        ADR.W    R0,`?<Constant "\\r\\n error 5">`
??AppS2wHal_NetTcpClient_test_3:
          CFI FunCall S2w_Printf
        BL       S2w_Printf
//  789     	soc_close(sd);
        MOV      R0,R6
          CFI FunCall soc_close
        BL       soc_close
//  790         return S2W_FAILURE;
        B.N      ??AppS2wHal_NetTcpClient_test_6
//  791     }
//  792 
//  793     /** Connect the socket to the server. */
//  794     destAddr.sin_family = AF_INET;
??AppS2wHal_NetTcpClient_test_5:
        BL       ?Subroutine3
//  795     destAddr.sin_port = htons(peerData->port);
//  796     memcpy(&(destAddr.sin_addr.s_addr),&peerData->ipAddr,sizeof(destAddr.sin_addr.s_addr));
//  797 
//  798 
//  799     /* register the callback for any socket events */
//  800     nx_bsd_callback_register(sd, AppS2wHal_RxCallBack,S2W_RXCALLBACK_FLAGS);
??CrossCallReturnLabel_0:
        MOVS     R2,#+61
        LDR.W    R1,??DataTable58_2
        MOV      R0,R6
          CFI FunCall nx_bsd_callback_register
        BL       nx_bsd_callback_register
//  801 
//  802     ret = connect(sd, (struct sockaddr *)&destAddr, sizeof(destAddr));
        MOVS     R2,#+16
        ADD      R1,SP,#+24
        MOV      R0,R6
          CFI FunCall connect
        BL       connect
        MOV      R8,R0
//  803      /*
//  804      * Update the connection identifier list with connection information
//  805      * except the type.
//  806      */
//  807     s2wCidList[cid].sd = sd;
        LDR.W    R7,??DataTable58
        STR      R6,[R7, #+28]
//  808     s2wCidList[cid].conType = TCP;
        MOVS     R0,#+2
        STRB     R0,[R7, #+0]
//  809     s2wCidList[cid].conMode = S2W_NETDATA_MODE_CLIENT_TRANSIENT;
//  810     s2wCidList[cid].remotePort = peerData->port;
//  811     memcpy(s2wCidList[cid].remoteIp,(UINT8*)peerData->ipAddr,4);
        MOVS     R2,#+4
        MOVS     R0,#+7
        STRB     R0,[R7, #+1]
        ADDS     R1,R4,#+4
        LDRH     R0,[R4, #+2]
        STRH     R0,[R7, #+4]
        ADDS     R0,R7,#+6
          CFI FunCall memcpy
        BL       memcpy
//  812 
//  813     if (ret < 0 )
        CMP      R8,#+0
        BPL.N    ??AppS2wHal_NetTcpClient_test_7
//  814     {
//  815         //S2w_Debug("connect failed: %d\r\n", tfGetSocketError(sd));
//  816         S2w_Printf("\r\n error 6");
        ADR.W    R0,`?<Constant "\\r\\n error 6">`
          CFI FunCall S2w_Printf
        BL       S2w_Printf
//  817         AppS2wHal_NetClose(cid);
        MOVS     R0,#+0
          CFI FunCall AppS2wHal_NetClose
        BL       AppS2wHal_NetClose
//  818         return S2W_FAILURE;
??AppS2wHal_NetTcpClient_test_6:
        MOVS     R0,#+1
        B.N      ??AppS2wHal_NetTcpClient_test_1
//  819     }
//  820     *cidNo = cid;
??AppS2wHal_NetTcpClient_test_7:
        MOVS     R0,#+0
        STRB     R0,[R5, #+0]
//  821 	s2wCidList[cid].conMode = S2W_NETDATA_MODE_CLIENT;
        STRB     R0,[R7, #+1]
//  822     s2wCidList[cid].sslflag = FALSE;
        STRB     R0,[R7, #+44]
//  823 	 s2wCidList[cid].serverCid = INVALID_CID;
//  824     /* reconfigure connect timeout, since we are making it non blocking */
//  825     connect_timeout =5;
//  826     
//  827     //fcntl(sd , F_SETFL, O_NONBLOCK);
//  828     struct timeval TimeOut;
//  829     TimeOut.tv_sec =  0;
//  830     TimeOut.tv_usec = 1 * NX_MICROSECOND_PER_CPU_TICK;
//  831     setsockopt(s2wCidList[cid].sd,SOL_SOCKET,SO_RCVTIMEO,(void*)&TimeOut,8);
        ADD      R3,SP,#+8
        MOVS     R0,#+255
        STRB     R0,[R7, #+46]
        BL       ?Subroutine9
??CrossCallReturnLabel_16:
        LDR      R0,[R7, #+28]
          CFI FunCall setsockopt
        BL       setsockopt
//  832     setsockopt(s2wCidList[cid].sd,IP_PROTOTCP,CONNECT_TIMEOUT_TM,(void*)&connect_timeout,4);
        BL       ?Subroutine25
??CrossCallReturnLabel_63:
        LDR      R0,[R7, #+28]
        BL       ?Subroutine22
//  833 
//  834     return S2W_SUCCESS;
??CrossCallReturnLabel_50:
        MOVS     R0,#+0
??AppS2wHal_NetTcpClient_test_1:
        ADD      SP,SP,#+40
          CFI CFA R13+24
        POP      {R4-R8,PC}       ;; return
          CFI EndBlock cfiBlock22
//  835 }

        SECTION `.text`:CODE:NOROOT(2)
        SECTION_TYPE SHT_PROGBITS, 0
        DATA
`?<Constant "\\r\\n error 2">`:
        DC8 "\015\012 error 2"
        DC8 0

        SECTION `.text`:CODE:NOROOT(2)
        SECTION_TYPE SHT_PROGBITS, 0
        DATA
`?<Constant "\\r\\n error 3">`:
        DC8 "\015\012 error 3"
        DC8 0

        SECTION `.text`:CODE:NOROOT(2)
        SECTION_TYPE SHT_PROGBITS, 0
        DATA
`?<Constant "\\r\\n error 4">`:
        DC8 "\015\012 error 4"
        DC8 0

        SECTION `.text`:CODE:NOROOT(2)
        SECTION_TYPE SHT_PROGBITS, 0
        DATA
`?<Constant "\\r\\n error 5">`:
        DC8 "\015\012 error 5"
        DC8 0

        SECTION `.text`:CODE:NOROOT(2)
        SECTION_TYPE SHT_PROGBITS, 0
        DATA
`?<Constant "\\r\\n error 6">`:
        DC8 "\015\012 error 6"
        DC8 0

        SECTION `.text`:CODE:NOROOT(1)
          CFI Block cfiCond23 Using cfiCommon0
          CFI Function AppS2wHal_NetTcpClient
          CFI NoCalls
          CFI NoCalls
          CFI NoCalls
          CFI Conditional ??CrossCallReturnLabel_60
          CFI R4 Frame(CFA, -32)
          CFI R5 Frame(CFA, -28)
          CFI R6 Frame(CFA, -24)
          CFI R7 Frame(CFA, -20)
          CFI R8 Frame(CFA, -16)
          CFI R9 Frame(CFA, -12)
          CFI R10 Frame(CFA, -8)
          CFI R14 Frame(CFA, -4)
          CFI CFA R13+72
          CFI Block cfiCond24 Using cfiCommon0
          CFI (cfiCond24) Function AppS2wHal_NetTcpClient
          CFI (cfiCond24) NoCalls AppS2wHal_NetTcpClient
          CFI (cfiCond24) NoCalls AppS2wHal_NetTcpServer
          CFI (cfiCond24) NoCalls AppS2wHal_NetTcpClient_test
          CFI (cfiCond24) Conditional ??CrossCallReturnLabel_61
          CFI (cfiCond24) R4 Frame(CFA, -32)
          CFI (cfiCond24) R5 Frame(CFA, -28)
          CFI (cfiCond24) R6 Frame(CFA, -24)
          CFI (cfiCond24) R7 Frame(CFA, -20)
          CFI (cfiCond24) R8 Frame(CFA, -16)
          CFI (cfiCond24) R9 Frame(CFA, -12)
          CFI (cfiCond24) R10 Frame(CFA, -8)
          CFI (cfiCond24) R14 Frame(CFA, -4)
          CFI (cfiCond24) CFA R13+72
          CFI Block cfiCond25 Using cfiCommon0
          CFI (cfiCond25) Function AppS2wHal_NetTcpClient_test
          CFI (cfiCond25) NoCalls AppS2wHal_NetTcpClient
          CFI (cfiCond25) NoCalls AppS2wHal_NetTcpServer
          CFI (cfiCond25) NoCalls AppS2wHal_NetTcpClient_test
          CFI (cfiCond25) Conditional ??CrossCallReturnLabel_62
          CFI (cfiCond25) R4 Frame(CFA, -24)
          CFI (cfiCond25) R5 Frame(CFA, -20)
          CFI (cfiCond25) R6 Frame(CFA, -16)
          CFI (cfiCond25) R7 Frame(CFA, -12)
          CFI (cfiCond25) R8 Frame(CFA, -8)
          CFI (cfiCond25) R14 Frame(CFA, -4)
          CFI (cfiCond25) CFA R13+64
          CFI Block cfiCond26 Using cfiCommon0
          CFI (cfiCond26) Function AppS2wHal_NetTcpClient_test
          CFI (cfiCond26) NoCalls AppS2wHal_NetTcpClient
          CFI (cfiCond26) NoCalls AppS2wHal_NetTcpServer
          CFI (cfiCond26) NoCalls AppS2wHal_NetTcpClient_test
          CFI (cfiCond26) Conditional ??CrossCallReturnLabel_63
          CFI (cfiCond26) R4 Frame(CFA, -24)
          CFI (cfiCond26) R5 Frame(CFA, -20)
          CFI (cfiCond26) R6 Frame(CFA, -16)
          CFI (cfiCond26) R7 Frame(CFA, -12)
          CFI (cfiCond26) R8 Frame(CFA, -8)
          CFI (cfiCond26) R14 Frame(CFA, -4)
          CFI (cfiCond26) CFA R13+64
          CFI Block cfiCond27 Using cfiCommon0
          CFI (cfiCond27) Function AppS2wHal_NetTcpServer
          CFI (cfiCond27) NoCalls AppS2wHal_NetTcpClient
          CFI (cfiCond27) NoCalls AppS2wHal_NetTcpServer
          CFI (cfiCond27) NoCalls AppS2wHal_NetTcpClient_test
          CFI (cfiCond27) Conditional ??CrossCallReturnLabel_64
          CFI (cfiCond27) R4 Frame(CFA, -24)
          CFI (cfiCond27) R5 Frame(CFA, -20)
          CFI (cfiCond27) R6 Frame(CFA, -16)
          CFI (cfiCond27) R7 Frame(CFA, -12)
          CFI (cfiCond27) R8 Frame(CFA, -8)
          CFI (cfiCond27) R14 Frame(CFA, -4)
          CFI (cfiCond27) CFA R13+48
          CFI Block cfiPicker28 Using cfiCommon1
          CFI (cfiPicker28) NoFunction
          CFI (cfiPicker28) NoCalls AppS2wHal_NetTcpClient
          CFI (cfiPicker28) NoCalls AppS2wHal_NetTcpServer
          CFI (cfiPicker28) NoCalls AppS2wHal_NetTcpClient_test
          CFI (cfiPicker28) Picker
        THUMB
?Subroutine25:
        MOVS     R0,#+4
        STR      R0,[SP, #+0]
        ADD      R3,SP,#+4
        BX       LR
          CFI EndBlock cfiCond23
          CFI EndBlock cfiCond24
          CFI EndBlock cfiCond25
          CFI EndBlock cfiCond26
          CFI EndBlock cfiCond27
          CFI EndBlock cfiPicker28

        SECTION `.text`:CODE:NOROOT(1)
          CFI Block cfiCond29 Using cfiCommon0
          CFI Function AppS2wHal_NetTcpClient_test
          CFI Conditional ??CrossCallReturnLabel_55
          CFI R4 Frame(CFA, -24)
          CFI R5 Frame(CFA, -20)
          CFI R6 Frame(CFA, -16)
          CFI R7 Frame(CFA, -12)
          CFI R8 Frame(CFA, -8)
          CFI R14 Frame(CFA, -4)
          CFI CFA R13+64
          CFI Block cfiCond30 Using cfiCommon0
          CFI (cfiCond30) Function AppS2wHal_NetTcpClient_test
          CFI (cfiCond30) Conditional ??CrossCallReturnLabel_54
          CFI (cfiCond30) R4 Frame(CFA, -24)
          CFI (cfiCond30) R5 Frame(CFA, -20)
          CFI (cfiCond30) R6 Frame(CFA, -16)
          CFI (cfiCond30) R7 Frame(CFA, -12)
          CFI (cfiCond30) R8 Frame(CFA, -8)
          CFI (cfiCond30) R14 Frame(CFA, -4)
          CFI (cfiCond30) CFA R13+64
          CFI Block cfiCond31 Using cfiCommon0
          CFI (cfiCond31) Function AppS2wHal_NetTcpClient_test
          CFI (cfiCond31) Conditional ??CrossCallReturnLabel_53
          CFI (cfiCond31) R4 Frame(CFA, -24)
          CFI (cfiCond31) R5 Frame(CFA, -20)
          CFI (cfiCond31) R6 Frame(CFA, -16)
          CFI (cfiCond31) R7 Frame(CFA, -12)
          CFI (cfiCond31) R8 Frame(CFA, -8)
          CFI (cfiCond31) R14 Frame(CFA, -4)
          CFI (cfiCond31) CFA R13+64
          CFI Block cfiPicker32 Using cfiCommon1
          CFI (cfiPicker32) NoFunction
          CFI (cfiPicker32) Picker
        THUMB
?Subroutine23:
        MOVS     R1,#+3
        MOV      R0,R6
          CFI FunCall AppS2wHal_NetTcpClient_test setsockopt
          CFI FunCall AppS2wHal_NetTcpClient_test setsockopt
          CFI FunCall AppS2wHal_NetTcpClient_test setsockopt
        B.W      setsockopt
          CFI EndBlock cfiCond29
          CFI EndBlock cfiCond30
          CFI EndBlock cfiCond31
          CFI EndBlock cfiPicker32

        SECTION `.text`:CODE:NOROOT(1)
          CFI Block cfiCond33 Using cfiCommon0
          CFI Function AppS2wHal_NetTcpClient
          CFI NoCalls
          CFI NoCalls
          CFI Conditional ??CrossCallReturnLabel_15
          CFI R4 Frame(CFA, -32)
          CFI R5 Frame(CFA, -28)
          CFI R6 Frame(CFA, -24)
          CFI R7 Frame(CFA, -20)
          CFI R8 Frame(CFA, -16)
          CFI R9 Frame(CFA, -12)
          CFI R10 Frame(CFA, -8)
          CFI R14 Frame(CFA, -4)
          CFI CFA R13+72
          CFI Block cfiCond34 Using cfiCommon0
          CFI (cfiCond34) Function AppS2wHal_NetTcpClient_test
          CFI (cfiCond34) NoCalls AppS2wHal_NetTcpClient
          CFI (cfiCond34) NoCalls AppS2wHal_NetTcpClient_test
          CFI (cfiCond34) Conditional ??CrossCallReturnLabel_16
          CFI (cfiCond34) R4 Frame(CFA, -24)
          CFI (cfiCond34) R5 Frame(CFA, -20)
          CFI (cfiCond34) R6 Frame(CFA, -16)
          CFI (cfiCond34) R7 Frame(CFA, -12)
          CFI (cfiCond34) R8 Frame(CFA, -8)
          CFI (cfiCond34) R14 Frame(CFA, -4)
          CFI (cfiCond34) CFA R13+64
          CFI Block cfiPicker35 Using cfiCommon1
          CFI (cfiPicker35) NoFunction
          CFI (cfiPicker35) NoCalls AppS2wHal_NetTcpClient
          CFI (cfiPicker35) NoCalls AppS2wHal_NetTcpClient_test
          CFI (cfiPicker35) Picker
        THUMB
?Subroutine9:
        MOVS     R2,#+20
        MOVS     R0,#+5
        STR      R0,[SP, #+4]
        MOVS     R1,#+1
        MOVS     R0,#+0
        STR      R0,[SP, #+8]
        LDR.W    R0,??DataTable58_1  ;; 0x186a0
        STR      R0,[SP, #+12]
        MOVS     R0,#+8
        STR      R0,[SP, #+0]
        BX       LR
          CFI EndBlock cfiCond33
          CFI EndBlock cfiCond34
          CFI EndBlock cfiPicker35

        SECTION `.text`:CODE:NOROOT(1)
          CFI Block cfiCond36 Using cfiCommon0
          CFI Function AppS2wHal_NetTcpClient
          CFI NoCalls
          CFI NoCalls
          CFI Conditional ??CrossCallReturnLabel_11
          CFI R4 Frame(CFA, -32)
          CFI R5 Frame(CFA, -28)
          CFI R6 Frame(CFA, -24)
          CFI R7 Frame(CFA, -20)
          CFI R8 Frame(CFA, -16)
          CFI R9 Frame(CFA, -12)
          CFI R10 Frame(CFA, -8)
          CFI R14 Frame(CFA, -4)
          CFI CFA R13+32
          CFI Block cfiCond37 Using cfiCommon0
          CFI (cfiCond37) Function AppS2wHal_NetTcpClient_test
          CFI (cfiCond37) NoCalls AppS2wHal_NetTcpClient
          CFI (cfiCond37) NoCalls AppS2wHal_NetTcpClient_test
          CFI (cfiCond37) Conditional ??CrossCallReturnLabel_12
          CFI (cfiCond37) R4 Frame(CFA, -24)
          CFI (cfiCond37) R5 Frame(CFA, -20)
          CFI (cfiCond37) R6 Frame(CFA, -16)
          CFI (cfiCond37) R7 Frame(CFA, -12)
          CFI (cfiCond37) R8 Frame(CFA, -8)
          CFI (cfiCond37) R14 Frame(CFA, -4)
          CFI (cfiCond37) CFA R13+24
          CFI Block cfiPicker38 Using cfiCommon1
          CFI (cfiPicker38) NoFunction
          CFI (cfiPicker38) NoCalls AppS2wHal_NetTcpClient
          CFI (cfiPicker38) NoCalls AppS2wHal_NetTcpClient_test
          CFI (cfiPicker38) Picker
        THUMB
?Subroutine7:
        MOV      R4,R0
        LDR.W    R0,??DataTable65
        LDRH     R0,[R0, #+456]
        BX       LR
          CFI EndBlock cfiCond36
          CFI EndBlock cfiCond37
          CFI EndBlock cfiPicker38

        SECTION `.text`:CODE:NOROOT(1)
          CFI Block cfiCond39 Using cfiCommon0
          CFI Function AppS2wHal_NetTcpClient
          CFI Conditional ??CrossCallReturnLabel_1
          CFI R4 Frame(CFA, -32)
          CFI R5 Frame(CFA, -28)
          CFI R6 Frame(CFA, -24)
          CFI R7 Frame(CFA, -20)
          CFI R8 Frame(CFA, -16)
          CFI R9 Frame(CFA, -12)
          CFI R10 Frame(CFA, -8)
          CFI R14 Frame(CFA, -4)
          CFI CFA R13+72
          CFI Block cfiCond40 Using cfiCommon0
          CFI (cfiCond40) Function AppS2wHal_NetTcpClient_test
          CFI (cfiCond40) Conditional ??CrossCallReturnLabel_0
          CFI (cfiCond40) R4 Frame(CFA, -24)
          CFI (cfiCond40) R5 Frame(CFA, -20)
          CFI (cfiCond40) R6 Frame(CFA, -16)
          CFI (cfiCond40) R7 Frame(CFA, -12)
          CFI (cfiCond40) R8 Frame(CFA, -8)
          CFI (cfiCond40) R14 Frame(CFA, -4)
          CFI (cfiCond40) CFA R13+64
          CFI Block cfiPicker41 Using cfiCommon1
          CFI (cfiPicker41) NoFunction
          CFI (cfiPicker41) Picker
        THUMB
?Subroutine3:
        MOVS     R0,#+2
        STRH     R0,[SP, #+24]
        MOVS     R2,#+4
        LDRH     R0,[R4, #+2]
        LSLS     R1,R0,#+8
        ORR      R0,R1,R0, LSR #+8
        STRH     R0,[SP, #+26]
        ADDS     R1,R4,#+4
        ADD      R0,SP,#+28
          CFI FunCall AppS2wHal_NetTcpClient memcpy
          CFI FunCall AppS2wHal_NetTcpClient_test memcpy
        B.W      memcpy
          CFI EndBlock cfiCond39
          CFI EndBlock cfiCond40
          CFI EndBlock cfiPicker41
//  836 
//  837 
//  838 
//  839 
//  840 /**
//  841  ******************************************************************
//  842  * @ingroup S2w-Application
//  843  * @brief S2w udp server open function.
//  844  *    This function opens a new udp server socket and store the socket info
//  845  *    into the corresponding Cid list and registers any receive events on this
//  846  *    socket with network stack.
//  847  * @param serverData - IN the address of the data structure contain the udp
//  848  *                     server info.
//  849  *.@param cidNo      - IN the address to which the cid number to be stored.
//  850  * @retval S2W_SUCCESS     - operation successfull.
//  851  * @retval S2W_SOCKFAILURE - operation failed
//  852  * @retval S2W_ENCID       - operation failed- no valid cid
//  853  ******************************************************************/

        SECTION `.text`:CODE:NOROOT(1)
          CFI Block cfiBlock42 Using cfiCommon0
          CFI Function AppS2wHal_NetUdpServer
        THUMB
//  854 PUBLIC UINT8
//  855 AppS2wHal_NetUdpServer(S2W_NETDATA_T *serverData, UINT8 *cidNo)
//  856 {
AppS2wHal_NetUdpServer:
        PUSH     {R4-R8,LR}
          CFI R14 Frame(CFA, -4)
          CFI R8 Frame(CFA, -8)
          CFI R7 Frame(CFA, -12)
          CFI R6 Frame(CFA, -16)
          CFI R5 Frame(CFA, -20)
          CFI R4 Frame(CFA, -24)
          CFI CFA R13+24
        SUB      SP,SP,#+32
          CFI CFA R13+56
        MOV      R6,R0
        MOV      R4,R1
//  857     UINT8 cid;
//  858     INT32 sd, ret;
//  859     struct sockaddr_in srcAddr;
//  860 
//  861     cid = AppS2wHal_CidGet();
          CFI FunCall AppS2wHal_CidGet
        BL       AppS2wHal_CidGet
        MOV      R5,R0
//  862     if (cid == INVALID_CID)
        CMP      R5,#+255
        IT       EQ 
        MOVEQ    R0,#+4
//  863     {
//  864         return S2W_ENCID;
        BEQ.N    ??AppS2wHal_NetUdpServer_0
//  865     }
//  866 
//  867     /* check the node has a valid ip
//  868      */
//  869      //if(nwConfigSuccess != TRUE)
//  870      {
//  871          //return S2W_SOCKFAILURE;
//  872      }
//  873     /* open the udp server socket
//  874      */
//  875     if ((sd = socket(AF_INET, SOCK_DGRAM, 0)) == -1)
        BL       ?Subroutine5
??CrossCallReturnLabel_7:
        MOV      R8,R0
        CMN      R8,#+1
        BEQ.N    ??AppS2wHal_NetUdpServer_1
//  876     {
//  877         return S2W_SOCKFAILURE;
//  878     }
//  879     srcAddr.sin_family = AF_INET;
        MOVS     R0,#+2
        STRH     R0,[SP, #+12]
//  880     srcAddr.sin_port = htons(serverData->port);
//  881     srcAddr.sin_addr.s_addr = 0;//htonl(INADDR_ANY);
//  882 
//  883     /* bind the socket with source addess
//  884      */
//  885     if (bind(sd, (struct sockaddr *)&srcAddr,
//  886           sizeof(srcAddr)) == -1)
        MOVS     R2,#+16
        LDRH     R0,[R6, #+2]
        BL       ?Subroutine17
??CrossCallReturnLabel_38:
        ADD      R1,SP,#+12
        MOVS     R0,#+0
        STR      R0,[SP, #+16]
        BL       ?Subroutine10
??CrossCallReturnLabel_18:
        CMN      R0,#+1
        BNE.N    ??AppS2wHal_NetUdpServer_2
//  887     {
//  888         soc_close(sd);
        BL       ?Subroutine11
//  889         return S2W_SOCKFAILURE;
??CrossCallReturnLabel_22:
        B.N      ??AppS2wHal_NetUdpServer_1
//  890     }
//  891 
//  892     /* fill the cid list the socket parameters
//  893      */
//  894     s2wCidList[cid].sd = sd;
??AppS2wHal_NetUdpServer_2:
        MOV      R0,#+296
        MULS     R0,R0,R5
        LDR.W    R1,??DataTable58
        ADDS     R7,R0,R1
//  895     s2wCidList[cid].conType = UDP;
        MOVS     R2,#+1
        STR      R8,[R7, #+28]
        STRB     R2,[R0, R1]
//  896     s2wCidList[cid].conMode = S2W_NETDATA_MODE_SERVER;
        STRB     R2,[R7, #+1]
//  897     s2wCidList[cid].localPort = serverData->port;
//  898     s2wCidList[cid].remotePort = 0;
//  899     memset(s2wCidList[cid].remoteIp,0,4);
        MOVS     R2,#+4
        LDRH     R0,[R6, #+2]
        STRH     R0,[R7, #+2]
        MOVS     R1,#+0
        MOVS     R0,#+0
        STRH     R0,[R7, #+4]
        ADDS     R0,R7,#+6
          CFI FunCall memset
        BL       memset
//  900     
//  901     
//  902      
//  903     // setsockopt(s2wCidList[cid].sd,SOL_SOCKET,SO_SNDTIMEO,(void*)&RecvTime,8);
//  904      
//  905          //    fcntl(s2wCidList[cid].sd , F_SETFL, O_NONBLOCK);
//  906     struct timeval TimeOut;
//  907         TimeOut.tv_sec =  0;
        MOVS     R0,#+0
        STR      R0,[SP, #+4]
//  908         TimeOut.tv_usec = 1 * NX_MICROSECOND_PER_CPU_TICK;
//  909        // setsockopt(s2wCidList[cid].sd,SOL_SOCKET,SO_SNDTIMEO,(void*)&TimeOut,8);
//  910         ret = setsockopt(s2wCidList[cid].sd,SOL_SOCKET,SO_RCVTIMEO,(void*)&TimeOut,8);
//  911         if(ret < 0)
        ADD      R3,SP,#+4
        LDR.W    R0,??DataTable58_1  ;; 0x186a0
        STR      R0,[SP, #+8]
        MOVS     R2,#+20
        MOVS     R0,#+8
        STR      R0,[SP, #+0]
        MOVS     R1,#+1
        LDR      R0,[R7, #+28]
          CFI FunCall setsockopt
        BL       setsockopt
        CMP      R0,#+0
        BPL.N    ??AppS2wHal_NetUdpServer_3
//  912         {
//  913             AppS2wHal_NetClose(cid);
        MOV      R0,R5
          CFI FunCall AppS2wHal_NetClose
        BL       AppS2wHal_NetClose
//  914             return S2W_SOCKFAILURE;
??AppS2wHal_NetUdpServer_1:
        MOVS     R0,#+3
        B.N      ??AppS2wHal_NetUdpServer_0
//  915         }
//  916 
//  917   
//  918       /* register the callback for any socket events
//  919      */
//  920     nx_bsd_callback_register(s2wCidList[cid].sd, AppS2wHal_RxCallBack,S2W_RXCALLBACK_FLAGS);
??AppS2wHal_NetUdpServer_3:
        BL       ?Subroutine20
//  921 
//  922     *cidNo = cid;
??CrossCallReturnLabel_46:
        STRB     R5,[R4, #+0]
//  923     return S2W_SUCCESS;
        MOVS     R0,#+0
??AppS2wHal_NetUdpServer_0:
        ADD      SP,SP,#+32
          CFI CFA R13+24
        POP      {R4-R8,PC}       ;; return
          CFI EndBlock cfiBlock42
//  924 }

        SECTION `.text`:CODE:NOROOT(1)
          CFI Block cfiCond43 Using cfiCommon0
          CFI Function AppS2wHal_NetUdpServer
          CFI Conditional ??CrossCallReturnLabel_46
          CFI R4 Frame(CFA, -24)
          CFI R5 Frame(CFA, -20)
          CFI R6 Frame(CFA, -16)
          CFI R7 Frame(CFA, -12)
          CFI R8 Frame(CFA, -8)
          CFI R14 Frame(CFA, -4)
          CFI CFA R13+56
          CFI Block cfiCond44 Using cfiCommon0
          CFI (cfiCond44) Function AppS2wHal_NetTcpServer
          CFI (cfiCond44) Conditional ??CrossCallReturnLabel_45
          CFI (cfiCond44) R4 Frame(CFA, -24)
          CFI (cfiCond44) R5 Frame(CFA, -20)
          CFI (cfiCond44) R6 Frame(CFA, -16)
          CFI (cfiCond44) R7 Frame(CFA, -12)
          CFI (cfiCond44) R8 Frame(CFA, -8)
          CFI (cfiCond44) R14 Frame(CFA, -4)
          CFI (cfiCond44) CFA R13+48
          CFI Block cfiPicker45 Using cfiCommon1
          CFI (cfiPicker45) NoFunction
          CFI (cfiPicker45) Picker
        THUMB
?Subroutine20:
        LDR      R0,[R7, #+28]
          CFI Block cfiCond46 Using cfiCommon0
          CFI (cfiCond46) Function AppS2w_SslClientOpen
          CFI (cfiCond46) Conditional ??CrossCallReturnLabel_44
          CFI (cfiCond46) R4 Frame(CFA, -36)
          CFI (cfiCond46) R5 Frame(CFA, -32)
          CFI (cfiCond46) R6 Frame(CFA, -28)
          CFI (cfiCond46) R7 Frame(CFA, -24)
          CFI (cfiCond46) R8 Frame(CFA, -20)
          CFI (cfiCond46) R9 Frame(CFA, -16)
          CFI (cfiCond46) R10 Frame(CFA, -12)
          CFI (cfiCond46) R11 Frame(CFA, -8)
          CFI (cfiCond46) R14 Frame(CFA, -4)
          CFI (cfiCond46) CFA R13+80
??Subroutine20_0:
        LDR.W    R1,??DataTable63
        MOVS     R2,#+61
          CFI FunCall AppS2wHal_NetUdpServer nx_bsd_callback_register
          CFI FunCall AppS2wHal_NetTcpServer nx_bsd_callback_register
          CFI FunCall AppS2w_SslClientOpen nx_bsd_callback_register
        B.W      nx_bsd_callback_register
          CFI EndBlock cfiCond43
          CFI EndBlock cfiCond44
          CFI EndBlock cfiPicker45
          CFI EndBlock cfiCond46

        SECTION `.text`:CODE:NOROOT(1)
          CFI Block cfiCond47 Using cfiCommon0
          CFI Function AppS2wHal_NetUdpClient
          CFI Conditional ??CrossCallReturnLabel_24
          CFI R4 Frame(CFA, -28)
          CFI R5 Frame(CFA, -24)
          CFI R6 Frame(CFA, -20)
          CFI R7 Frame(CFA, -16)
          CFI R8 Frame(CFA, -12)
          CFI R9 Frame(CFA, -8)
          CFI R14 Frame(CFA, -4)
          CFI CFA R13+80
          CFI Block cfiCond48 Using cfiCommon0
          CFI (cfiCond48) Function AppS2wHal_NetTcpClient
          CFI (cfiCond48) Conditional ??CrossCallReturnLabel_23
          CFI (cfiCond48) R4 Frame(CFA, -32)
          CFI (cfiCond48) R5 Frame(CFA, -28)
          CFI (cfiCond48) R6 Frame(CFA, -24)
          CFI (cfiCond48) R7 Frame(CFA, -20)
          CFI (cfiCond48) R8 Frame(CFA, -16)
          CFI (cfiCond48) R9 Frame(CFA, -12)
          CFI (cfiCond48) R10 Frame(CFA, -8)
          CFI (cfiCond48) R14 Frame(CFA, -4)
          CFI (cfiCond48) CFA R13+72
          CFI Block cfiCond49 Using cfiCommon0
          CFI (cfiCond49) Function AppS2wHal_NetUdpServer
          CFI (cfiCond49) Conditional ??CrossCallReturnLabel_22
          CFI (cfiCond49) R4 Frame(CFA, -24)
          CFI (cfiCond49) R5 Frame(CFA, -20)
          CFI (cfiCond49) R6 Frame(CFA, -16)
          CFI (cfiCond49) R7 Frame(CFA, -12)
          CFI (cfiCond49) R8 Frame(CFA, -8)
          CFI (cfiCond49) R14 Frame(CFA, -4)
          CFI (cfiCond49) CFA R13+56
          CFI Block cfiCond50 Using cfiCommon0
          CFI (cfiCond50) Function AppS2wHal_NetTcpServer
          CFI (cfiCond50) Conditional ??CrossCallReturnLabel_21
          CFI (cfiCond50) R4 Frame(CFA, -24)
          CFI (cfiCond50) R5 Frame(CFA, -20)
          CFI (cfiCond50) R6 Frame(CFA, -16)
          CFI (cfiCond50) R7 Frame(CFA, -12)
          CFI (cfiCond50) R8 Frame(CFA, -8)
          CFI (cfiCond50) R14 Frame(CFA, -4)
          CFI (cfiCond50) CFA R13+48
          CFI Block cfiPicker51 Using cfiCommon1
          CFI (cfiPicker51) NoFunction
          CFI (cfiPicker51) Picker
        THUMB
?Subroutine11:
        MOV      R0,R8
          CFI FunCall AppS2wHal_NetUdpClient soc_close
          CFI FunCall AppS2wHal_NetTcpClient soc_close
          CFI FunCall AppS2wHal_NetUdpServer soc_close
          CFI FunCall AppS2wHal_NetTcpServer soc_close
        B.W      soc_close
          CFI EndBlock cfiCond47
          CFI EndBlock cfiCond48
          CFI EndBlock cfiCond49
          CFI EndBlock cfiCond50
          CFI EndBlock cfiPicker51

        SECTION `.text`:CODE:NOROOT(1)
          CFI Block cfiCond52 Using cfiCommon0
          CFI Function AppS2wHal_NetUdpClient
          CFI Conditional ??CrossCallReturnLabel_20
          CFI R4 Frame(CFA, -28)
          CFI R5 Frame(CFA, -24)
          CFI R6 Frame(CFA, -20)
          CFI R7 Frame(CFA, -16)
          CFI R8 Frame(CFA, -12)
          CFI R9 Frame(CFA, -8)
          CFI R14 Frame(CFA, -4)
          CFI CFA R13+80
          CFI Block cfiCond53 Using cfiCommon0
          CFI (cfiCond53) Function AppS2wHal_NetUdpClient
          CFI (cfiCond53) Conditional ??CrossCallReturnLabel_19
          CFI (cfiCond53) R4 Frame(CFA, -28)
          CFI (cfiCond53) R5 Frame(CFA, -24)
          CFI (cfiCond53) R6 Frame(CFA, -20)
          CFI (cfiCond53) R7 Frame(CFA, -16)
          CFI (cfiCond53) R8 Frame(CFA, -12)
          CFI (cfiCond53) R9 Frame(CFA, -8)
          CFI (cfiCond53) R14 Frame(CFA, -4)
          CFI (cfiCond53) CFA R13+80
          CFI Block cfiCond54 Using cfiCommon0
          CFI (cfiCond54) Function AppS2wHal_NetUdpServer
          CFI (cfiCond54) Conditional ??CrossCallReturnLabel_18
          CFI (cfiCond54) R4 Frame(CFA, -24)
          CFI (cfiCond54) R5 Frame(CFA, -20)
          CFI (cfiCond54) R6 Frame(CFA, -16)
          CFI (cfiCond54) R7 Frame(CFA, -12)
          CFI (cfiCond54) R8 Frame(CFA, -8)
          CFI (cfiCond54) R14 Frame(CFA, -4)
          CFI (cfiCond54) CFA R13+56
          CFI Block cfiCond55 Using cfiCommon0
          CFI (cfiCond55) Function AppS2wHal_NetTcpServer
          CFI (cfiCond55) Conditional ??CrossCallReturnLabel_17
          CFI (cfiCond55) R4 Frame(CFA, -24)
          CFI (cfiCond55) R5 Frame(CFA, -20)
          CFI (cfiCond55) R6 Frame(CFA, -16)
          CFI (cfiCond55) R7 Frame(CFA, -12)
          CFI (cfiCond55) R8 Frame(CFA, -8)
          CFI (cfiCond55) R14 Frame(CFA, -4)
          CFI (cfiCond55) CFA R13+48
          CFI Block cfiPicker56 Using cfiCommon1
          CFI (cfiPicker56) NoFunction
          CFI (cfiPicker56) Picker
        THUMB
?Subroutine10:
        MOV      R0,R8
          CFI FunCall AppS2wHal_NetUdpClient bind
          CFI FunCall AppS2wHal_NetUdpClient bind
          CFI FunCall AppS2wHal_NetUdpServer bind
          CFI FunCall AppS2wHal_NetTcpServer bind
        B.W      bind
          CFI EndBlock cfiCond52
          CFI EndBlock cfiCond53
          CFI EndBlock cfiCond54
          CFI EndBlock cfiCond55
          CFI EndBlock cfiPicker56
//  925 
//  926 
//  927 /**
//  928  ******************************************************************
//  929  * @ingroup S2w-Application
//  930  * @brief S2w tcp server open function.
//  931  *    This function opens a new tcp server socket and store the socket info
//  932  *    into the corresponding Cid list and registers any receive events on this
//  933  *    socket with network stack.
//  934  * @param serverData - IN the address of the data structure contain the tcp
//  935  *                     server info.
//  936  *.@param cidNo      - IN the address to which the cid number to be stored.
//  937  * @retval S2W_SUCCESS     - operation successfull.
//  938  * @retval S2W_SOCKFAILURE - operation failed
//  939  * @retval S2W_ENCID       - operation failed- no valid cid
//  940  ******************************************************************/

        SECTION `.text`:CODE:NOROOT(1)
          CFI Block cfiBlock57 Using cfiCommon0
          CFI Function AppS2wHal_NetTcpServer
        THUMB
//  941 PUBLIC UINT8
//  942 AppS2wHal_NetTcpServer(S2W_NETDATA_T *serverData, UINT8 *cidNo)
//  943 {
AppS2wHal_NetTcpServer:
        PUSH     {R4-R8,LR}
          CFI R14 Frame(CFA, -4)
          CFI R8 Frame(CFA, -8)
          CFI R7 Frame(CFA, -12)
          CFI R6 Frame(CFA, -16)
          CFI R5 Frame(CFA, -20)
          CFI R4 Frame(CFA, -24)
          CFI CFA R13+24
        SUB      SP,SP,#+24
          CFI CFA R13+48
        MOV      R4,R0
//  944     INT32 sd, ret;
//  945     struct sockaddr_in srcAddr;
//  946     UINT8 cid;
//  947     ULONG rexTimeOut=25;
        MOVS     R0,#+25
        MOV      R5,R1
        STR      R0,[SP, #+4]
//  948 
//  949     cid = AppS2wHal_CidGet();
          CFI FunCall AppS2wHal_CidGet
        BL       AppS2wHal_CidGet
        MOV      R6,R0
//  950     if (cid == INVALID_CID)
        CMP      R6,#+255
        IT       EQ 
        MOVEQ    R0,#+4
//  951     {
//  952         return S2W_ENCID;
        BEQ.N    ??AppS2wHal_NetTcpServer_0
//  953     }
//  954 
//  955     /* open the tcp server socket */
//  956     if ((sd = socket(AF_INET, SOCK_STREAM, 0)) == -1)
        MOVS     R2,#+0
        MOVS     R1,#+1
        BL       ??Subroutine5_0
??CrossCallReturnLabel_4:
        MOV      R8,R0
        CMN      R8,#+1
        BEQ.N    ??AppS2wHal_NetTcpServer_1
//  957     {
//  958         return S2W_SOCKFAILURE;
//  959     }
//  960 
//  961     srcAddr.sin_family = AF_INET;
        MOVS     R0,#+2
        STRH     R0,[SP, #+8]
//  962     srcAddr.sin_port = htons(serverData->port);
//  963     srcAddr.sin_addr.s_addr = htonl(0);
//  964 
//  965     /*  bind the source port  */
//  966     if (bind(sd, (struct sockaddr *)&srcAddr, sizeof(srcAddr)) == -1)
        MOVS     R2,#+16
        LDRH     R0,[R4, #+2]
        LSLS     R1,R0,#+8
        ORR      R0,R1,R0, LSR #+8
        STRH     R0,[SP, #+10]
        ADD      R1,SP,#+8
        MOVS     R0,#+0
        STR      R0,[SP, #+12]
        BL       ?Subroutine10
??CrossCallReturnLabel_17:
        CMN      R0,#+1
        BEQ.N    ??AppS2wHal_NetTcpServer_2
//  967     {
//  968         soc_close(sd);
//  969         return S2W_SOCKFAILURE;
//  970     }
//  971     if (listen(sd, 5) < 0)
        MOVS     R1,#+5
        MOV      R0,R8
          CFI FunCall listen
        BL       listen
        CMP      R0,#+0
        BPL.N    ??AppS2wHal_NetTcpServer_3
//  972     {
//  973         soc_close(sd);
??AppS2wHal_NetTcpServer_2:
        BL       ?Subroutine11
//  974         return S2W_SOCKFAILURE;
??CrossCallReturnLabel_21:
        B.N      ??AppS2wHal_NetTcpServer_1
//  975     }
//  976 
//  977     /* fill the cid list */
//  978     s2wCidList[cid].sd = sd;
??AppS2wHal_NetTcpServer_3:
        MOV      R0,#+296
        MULS     R0,R0,R6
        LDR.W    R1,??DataTable58
        ADDS     R7,R0,R1
//  979     s2wCidList[cid].conType = TCP;
        MOVS     R2,#+2
        STR      R8,[R7, #+28]
        STRB     R2,[R0, R1]
//  980     s2wCidList[cid].conMode = S2W_NETDATA_MODE_SERVER;
        MOVS     R0,#+1
        STRB     R0,[R7, #+1]
//  981     s2wCidList[cid].localPort = serverData->port;
//  982     s2wCidList[cid].remotePort = 0;
//  983     s2wCidList[cid].maxConn = 15;
//  984     memset(s2wCidList[cid].remoteIp,0,4);
        MOVS     R2,#+4
        LDRH     R0,[R4, #+2]
        STRH     R0,[R7, #+2]
        MOVS     R1,#+0
        MOVS     R0,#+0
        STRH     R0,[R7, #+4]
        MOVS     R0,#+15
        STRB     R0,[R7, #+32]
        ADDS     R0,R7,#+6
          CFI FunCall memset
        BL       memset
//  985     //sockOption = -1;
//  986     //setsockopt(sd, 0, TCP_MAXRT, (const char*)&sockOption,
//  987     //           sizeof(sockOption));
//  988     ret = setsockopt(sd,IP_PROTOTCP,TCP_MAXRT,(void*)&rexTimeOut,4);
//  989     if(ret < 0)
        BL       ?Subroutine25
??CrossCallReturnLabel_64:
        BL       ?Subroutine12
??CrossCallReturnLabel_27:
        CMP      R0,#+0
        BPL.N    ??AppS2wHal_NetTcpServer_4
//  990     {
//  991         AppS2wHal_NetClose(cid);
        MOV      R0,R6
          CFI FunCall AppS2wHal_NetClose
        BL       AppS2wHal_NetClose
//  992         return S2W_SOCKFAILURE;
??AppS2wHal_NetTcpServer_1:
        MOVS     R0,#+3
        B.N      ??AppS2wHal_NetTcpServer_0
//  993     }
//  994     //sockOption1 = 2000;
//  995     //setsockopt(sd, SOL_SOCKET, SO_RCVBUF,(const char*)&sockOption1,
//  996      //          sizeof(sockOption1));
//  997     
//  998     
//  999      
// 1000      //setsockopt(s2wCidList[cid].sd,SOL_SOCKET,SO_SNDTIMEO,(void*)&RecvTime,8);
// 1001     /* register the callback for any socket events */
// 1002  
// 1003     nx_bsd_callback_register(s2wCidList[cid].sd, AppS2wHal_RxCallBack,S2W_RXCALLBACK_FLAGS);
??AppS2wHal_NetTcpServer_4:
        BL       ?Subroutine20
// 1004     *cidNo = cid;
??CrossCallReturnLabel_45:
        STRB     R6,[R5, #+0]
// 1005     return S2W_SUCCESS;
        MOVS     R0,#+0
??AppS2wHal_NetTcpServer_0:
        B.W      ?Subroutine0
          CFI EndBlock cfiBlock57
// 1006 }

        SECTION `.text`:CODE:NOROOT(1)
          CFI Block cfiCond58 Using cfiCommon0
          CFI Function AppS2wHal_NetTcpClient
          CFI Conditional ??CrossCallReturnLabel_28
          CFI R4 Frame(CFA, -32)
          CFI R5 Frame(CFA, -28)
          CFI R6 Frame(CFA, -24)
          CFI R7 Frame(CFA, -20)
          CFI R8 Frame(CFA, -16)
          CFI R9 Frame(CFA, -12)
          CFI R10 Frame(CFA, -8)
          CFI R14 Frame(CFA, -4)
          CFI CFA R13+72
          CFI Block cfiCond59 Using cfiCommon0
          CFI (cfiCond59) Function AppS2wHal_NetTcpServer
          CFI (cfiCond59) Conditional ??CrossCallReturnLabel_27
          CFI (cfiCond59) R4 Frame(CFA, -24)
          CFI (cfiCond59) R5 Frame(CFA, -20)
          CFI (cfiCond59) R6 Frame(CFA, -16)
          CFI (cfiCond59) R7 Frame(CFA, -12)
          CFI (cfiCond59) R8 Frame(CFA, -8)
          CFI (cfiCond59) R14 Frame(CFA, -4)
          CFI (cfiCond59) CFA R13+48
          CFI Block cfiPicker60 Using cfiCommon1
          CFI (cfiPicker60) NoFunction
          CFI (cfiPicker60) Picker
        THUMB
?Subroutine12:
        MOVS     R2,#+41
          CFI Block cfiCond61 Using cfiCommon0
          CFI (cfiCond61) Function AppS2wHal_NetTcpClient
          CFI (cfiCond61) Conditional ??CrossCallReturnLabel_26
          CFI (cfiCond61) R4 Frame(CFA, -32)
          CFI (cfiCond61) R5 Frame(CFA, -28)
          CFI (cfiCond61) R6 Frame(CFA, -24)
          CFI (cfiCond61) R7 Frame(CFA, -20)
          CFI (cfiCond61) R8 Frame(CFA, -16)
          CFI (cfiCond61) R9 Frame(CFA, -12)
          CFI (cfiCond61) R10 Frame(CFA, -8)
          CFI (cfiCond61) R14 Frame(CFA, -4)
          CFI (cfiCond61) CFA R13+72
          CFI Block cfiCond62 Using cfiCommon0
          CFI (cfiCond62) Function AppS2wHal_NetTcpClient
          CFI (cfiCond62) Conditional ??CrossCallReturnLabel_25
          CFI (cfiCond62) R4 Frame(CFA, -32)
          CFI (cfiCond62) R5 Frame(CFA, -28)
          CFI (cfiCond62) R6 Frame(CFA, -24)
          CFI (cfiCond62) R7 Frame(CFA, -20)
          CFI (cfiCond62) R8 Frame(CFA, -16)
          CFI (cfiCond62) R9 Frame(CFA, -12)
          CFI (cfiCond62) R10 Frame(CFA, -8)
          CFI (cfiCond62) R14 Frame(CFA, -4)
          CFI (cfiCond62) CFA R13+72
??Subroutine12_0:
        MOVS     R1,#+3
        MOV      R0,R8
          CFI FunCall AppS2wHal_NetTcpClient setsockopt
          CFI FunCall AppS2wHal_NetTcpServer setsockopt
          CFI FunCall AppS2wHal_NetTcpClient setsockopt
          CFI FunCall AppS2wHal_NetTcpClient setsockopt
        B.W      setsockopt
          CFI EndBlock cfiCond58
          CFI EndBlock cfiCond59
          CFI EndBlock cfiPicker60
          CFI EndBlock cfiCond61
          CFI EndBlock cfiCond62

        SECTION `.text`:CODE:NOROOT(1)
          CFI Block cfiCond63 Using cfiCommon0
          CFI Function AppS2wHal_NetUdpClient
          CFI Conditional ??CrossCallReturnLabel_8
          CFI R4 Frame(CFA, -28)
          CFI R5 Frame(CFA, -24)
          CFI R6 Frame(CFA, -20)
          CFI R7 Frame(CFA, -16)
          CFI R8 Frame(CFA, -12)
          CFI R9 Frame(CFA, -8)
          CFI R14 Frame(CFA, -4)
          CFI CFA R13+80
          CFI Block cfiCond64 Using cfiCommon0
          CFI (cfiCond64) Function AppS2wHal_NetUdpServer
          CFI (cfiCond64) Conditional ??CrossCallReturnLabel_7
          CFI (cfiCond64) R4 Frame(CFA, -24)
          CFI (cfiCond64) R5 Frame(CFA, -20)
          CFI (cfiCond64) R6 Frame(CFA, -16)
          CFI (cfiCond64) R7 Frame(CFA, -12)
          CFI (cfiCond64) R8 Frame(CFA, -8)
          CFI (cfiCond64) R14 Frame(CFA, -4)
          CFI (cfiCond64) CFA R13+56
          CFI Block cfiPicker65 Using cfiCommon1
          CFI (cfiPicker65) NoFunction
          CFI (cfiPicker65) Picker
        THUMB
?Subroutine5:
        MOVS     R2,#+0
        MOVS     R1,#+2
          CFI Block cfiCond66 Using cfiCommon0
          CFI (cfiCond66) Function AppS2wHal_NetTcpClient
          CFI (cfiCond66) Conditional ??CrossCallReturnLabel_6
          CFI (cfiCond66) R4 Frame(CFA, -32)
          CFI (cfiCond66) R5 Frame(CFA, -28)
          CFI (cfiCond66) R6 Frame(CFA, -24)
          CFI (cfiCond66) R7 Frame(CFA, -20)
          CFI (cfiCond66) R8 Frame(CFA, -16)
          CFI (cfiCond66) R9 Frame(CFA, -12)
          CFI (cfiCond66) R10 Frame(CFA, -8)
          CFI (cfiCond66) R14 Frame(CFA, -4)
          CFI (cfiCond66) CFA R13+72
          CFI Block cfiCond67 Using cfiCommon0
          CFI (cfiCond67) Function AppS2wHal_NetTcpClient_test
          CFI (cfiCond67) Conditional ??CrossCallReturnLabel_5
          CFI (cfiCond67) R4 Frame(CFA, -24)
          CFI (cfiCond67) R5 Frame(CFA, -20)
          CFI (cfiCond67) R6 Frame(CFA, -16)
          CFI (cfiCond67) R7 Frame(CFA, -12)
          CFI (cfiCond67) R8 Frame(CFA, -8)
          CFI (cfiCond67) R14 Frame(CFA, -4)
          CFI (cfiCond67) CFA R13+64
          CFI Block cfiCond68 Using cfiCommon0
          CFI (cfiCond68) Function AppS2wHal_NetTcpServer
          CFI (cfiCond68) Conditional ??CrossCallReturnLabel_4
          CFI (cfiCond68) R4 Frame(CFA, -24)
          CFI (cfiCond68) R5 Frame(CFA, -20)
          CFI (cfiCond68) R6 Frame(CFA, -16)
          CFI (cfiCond68) R7 Frame(CFA, -12)
          CFI (cfiCond68) R8 Frame(CFA, -8)
          CFI (cfiCond68) R14 Frame(CFA, -4)
          CFI (cfiCond68) CFA R13+48
??Subroutine5_0:
        MOVS     R0,#+2
          CFI FunCall AppS2wHal_NetUdpClient socket
          CFI FunCall AppS2wHal_NetUdpServer socket
          CFI FunCall AppS2wHal_NetTcpClient socket
          CFI FunCall AppS2wHal_NetTcpClient_test socket
          CFI FunCall AppS2wHal_NetTcpServer socket
        B.W      socket
          CFI EndBlock cfiCond63
          CFI EndBlock cfiCond64
          CFI EndBlock cfiPicker65
          CFI EndBlock cfiCond66
          CFI EndBlock cfiCond67
          CFI EndBlock cfiCond68
// 1007 

        SECTION `.text`:CODE:NOROOT(1)
          CFI Block cfiBlock69 Using cfiCommon0
          CFI Function AppS2wHal_TcpSrvMaxConSet
          CFI NoCalls
        THUMB
// 1008 VOID AppS2wHal_TcpSrvMaxConSet(UINT8 cid,UINT32 maxCon)
// 1009 {
// 1010 	s2wCidList[cid].maxConn= maxCon;
AppS2wHal_TcpSrvMaxConSet:
        MOV      R2,#+296
        LDR.W    R3,??DataTable66
        MLA      R0,R2,R0,R3
        STRB     R1,[R0, #+32]
// 1011 }
        BX       LR               ;; return
          CFI EndBlock cfiBlock69
// 1012 
// 1013 /**
// 1014  ******************************************************************
// 1015  * @ingroup S2w-Application
// 1016  * @brief S2w socket close function.
// 1017  *    This function close the particular tcp/udp connection specified by cid no.
// 1018  *.@param cidNo      - IN the cid number corresponding to the socket to be closed.
// 1019  * @retval S2W_SUCCESS     - operation successfull.
// 1020  * @retval S2W_FAILURE     - operation failed
// 1021  * @retval S2W_EBADCID     - operation failed- cid passed is not valid.
// 1022  ******************************************************************/
// 1023 

        SECTION `.text`:CODE:NOROOT(1)
          CFI Block cfiBlock70 Using cfiCommon0
          CFI Function GsnSocketCallback
        THUMB
// 1024 VOID GsnSocketCallback ( INT32 SocketDescriptor, INT32 Flags )
// 1025 {
// 1026     GsnOsal_SemRelease(&s2wSocketCloseSem);
GsnSocketCallback:
        LDR.W    R0,??DataTable66_1
          CFI FunCall GsnOsal_SemRelease
        B.W      GsnOsal_SemRelease
          CFI EndBlock cfiBlock70
// 1027 }
// 1028 

        SECTION `.text`:CODE:NOROOT(1)
          CFI Block cfiBlock71 Using cfiCommon0
          CFI Function AppS2wHal_NetClose
        THUMB
// 1029 PUBLIC UINT8
// 1030 AppS2wHal_NetClose(UINT8 cid)
// 1031 {
AppS2wHal_NetClose:
        PUSH     {R4-R8,LR}
          CFI R14 Frame(CFA, -4)
          CFI R8 Frame(CFA, -8)
          CFI R7 Frame(CFA, -12)
          CFI R6 Frame(CFA, -16)
          CFI R5 Frame(CFA, -20)
          CFI R4 Frame(CFA, -24)
          CFI CFA R13+24
        SUB      SP,SP,#+16
          CFI CFA R13+40
        MOV      R4,R0
// 1032     S2W_CID_T *p;
// 1033     UINT32 opt=2;
        MOVS     R0,#+2
        STR      R0,[SP, #+4]
// 1034     /* Validate the connection identifier.
// 1035      */
// 1036     if (cid >= MAX_CID_RANGE)
        CMP      R4,#+16
        BGE.N    ??AppS2wHal_NetClose_0
// 1037     {
// 1038         return S2W_EBADCID;
// 1039     }
// 1040 
// 1041     p = &s2wCidList[cid];
        MOV      R8,#+296
        LDR.W    R7,??DataTable58
        MLA      R5,R8,R4,R7
// 1042     if ((p->sd == CID_NOTINUSE) || (p->s2wCidCloseInProgress == TRUE))
        LDR      R0,[R5, #+28]
        CMN      R0,#+1
        ITT      NE 
        LDRBNE   R1,[R5, #+280]
        CMPNE    R1,#+1
        BNE.N    ??AppS2wHal_NetClose_1
// 1043     {
// 1044         return S2W_EBADCID;
??AppS2wHal_NetClose_0:
        MOVS     R0,#+5
        B.N      ??AppS2wHal_NetClose_2
// 1045     }
// 1046     p->s2wCidCloseInProgress = TRUE;
??AppS2wHal_NetClose_1:
        MOVS     R1,#+1
        STRB     R1,[R5, #+280]
// 1047     /* Close the connection.
// 1048      */
// 1049      if(s2wCidList[cid].allocatedTo == 1)
        LDRB     R1,[R5, #+48]
        CMP      R1,#+1
        IT       EQ 
        MOVEQ    R0,#+1
// 1050 	 	return S2W_FAILURE;
        BEQ.N    ??AppS2wHal_NetClose_2
// 1051 
// 1052     if((p->conType == TCP) && (p->conMode == S2W_NETDATA_MODE_CLIENT))
        LDRB     R1,[R5, #+0]
        CMP      R1,#+2
        ITT      EQ 
        LDRBEQ   R1,[R5, #+1]
        CMPEQ    R1,#+0
        BNE.N    ??CrossCallReturnLabel_49
// 1053     {
// 1054     	setsockopt(p->sd, IP_PROTOTCP, TCP_MAX_REXMIT, (const char*)&opt,
// 1055                sizeof(opt));
        MOVS     R1,#+4
        STR      R1,[SP, #+0]
        ADD      R3,SP,#+4
        MOVS     R2,#+42
        BL       ??Subroutine22_0
// 1056     }
// 1057 	nx_bsd_callback_register(p->sd, NULL, 0);
??CrossCallReturnLabel_49:
        LDR      R0,[R5, #+28]
        BL       ?Subroutine24
// 1058 
// 1059 #if defined (S2W_HTTPS_SUPPORT) || (S2W_HTTPC_SUPPORT)
// 1060     /* if an http connection close using http close */
// 1061     if(p->httpflag == 1 )
??CrossCallReturnLabel_58:
        LDRB     R0,[R5, #+47]
        CMP      R0,#+1
        BNE.N    ??AppS2wHal_NetClose_3
// 1062     {
// 1063         AppS2wHal_HttpLocalClose(cid);
        MOV      R0,R4
          CFI FunCall AppS2wHal_HttpLocalClose
        BL       AppS2wHal_HttpLocalClose
        B.N      ??AppS2wHal_NetClose_4
// 1064     }
// 1065     else
// 1066 #endif
// 1067 #if defined(S2W_SSL_CLIENT_SUPPORT) || defined(S2W_SSL_SERVER_SUPPORT)
// 1068     if(p->sslflag == 1 )
??AppS2wHal_NetClose_3:
        BL       ?Subroutine31
??CrossCallReturnLabel_77:
        BNE.N    ??AppS2wHal_NetClose_5
// 1069     {
// 1070         AppS2w_SslLocalClose(cid);
        MOV      R0,R4
          CFI FunCall AppS2w_SslLocalClose
        BL       AppS2w_SslLocalClose
        B.N      ??AppS2wHal_NetClose_4
// 1071     }
// 1072     else
// 1073 #endif
// 1074 
// 1075     {
// 1076         soc_close(p->sd);
??AppS2wHal_NetClose_5:
        LDR      R0,[R5, #+28]
          CFI FunCall soc_close
        BL       soc_close
// 1077 	}
// 1078         if((p->conType == TCP) && (p->conMode == S2W_NETDATA_MODE_CLIENT))
??AppS2wHal_NetClose_4:
        LDRB     R0,[R5, #+0]
        CMP      R0,#+2
        ITT      EQ 
        LDRBEQ   R0,[R5, #+1]
        CMPEQ    R0,#+0
        BNE.N    ??AppS2wHal_NetClose_6
// 1079         {
// 1080 		 	if(s2wCidList[cid].serverCid != INVALID_CID)
        LDRB     R0,[R5, #+46]
        CMP      R0,#+255
        BEQ.N    ??AppS2wHal_NetClose_6
// 1081 		 	{
// 1082 		 		GsnOsal_SemAcquire ( &(s2wappMainTaskCtxt->s2wTcpClientCntSyncSem), GSN_OSAL_WAIT_FOREVER );
        LDR.W    R6,??DataTable69
        LDR      R0,[R6, #+0]
        MOVW     R4,#+33228
        MOV      R1,#-1
        ADDS     R0,R4,R0
          CFI FunCall GsnOsal_SemAcquire
        BL       GsnOsal_SemAcquire
// 1083 				s2wCidList[s2wCidList[cid].serverCid].clientConCount--;
        LDRB     R1,[R5, #+46]
        LDRB     R0,[R5, #+46]
        MLA      R1,R8,R1,R7
        MLA      R0,R8,R0,R7
        LDRB     R1,[R1, #+33]
        SUBS     R1,R1,#+1
        STRB     R1,[R0, #+33]
// 1084 			 	GsnOsal_SemRelease(&s2wappMainTaskCtxt->s2wTcpClientCntSyncSem);
        LDR      R0,[R6, #+0]
        ADDS     R0,R4,R0
          CFI FunCall GsnOsal_SemRelease
        BL       GsnOsal_SemRelease
// 1085 		 	}
// 1086         }
// 1087     
// 1088 #if 0   
// 1089      UINT32 i=0;
// 1090      if((p->conType == TCP) && (p->conMode == S2W_NETDATA_MODE_SERVER))
// 1091      {
// 1092        /* Close all the client CIDs connected to server as well */
// 1093         for (i = 0; i < MAX_CID_RANGE; i++)
// 1094         {
// 1095           if(s2wCidList[i].serverCid == cid)
// 1096           {
// 1097             soc_close(s2wCidList[i].sd);
// 1098             nx_bsd_callback_register(p->sd, NULL, 0);
// 1099             s2wCidList[i].sd = CID_NOTINUSE;
// 1100             s2wCidList[i].localPort = 0;
// 1101             s2wCidList[i].remotePort = 0;
// 1102             s2wCidList[i].addrType = 0;
// 1103             s2wCidList[i].s2wCidCloseInProgress = FALSE;
// 1104             
// 1105           }
// 1106         }
// 1107      }
// 1108 #endif
// 1109     /* Remove the entry from the connection identifier list.
// 1110      */
// 1111 
// 1112     p->sd = CID_NOTINUSE;
??AppS2wHal_NetClose_6:
        MOV      R0,#-1
        STR      R0,[R5, #+28]
// 1113     s2wCidList[cid].localPort = 0;
// 1114     s2wCidList[cid].remotePort = 0;
        MOVS     R1,#+0
        MOVS     R0,#+0
        STRH     R0,[R5, #+2]
        ADDS     R0,R5,#+2
        STRH     R1,[R0, #+2]
// 1115     s2wCidList[cid].addrType = 0;
        STRB     R1,[R0, #+25]
// 1116     p->s2wCidCloseInProgress = FALSE;
        MOVS     R0,#+0
        STRB     R0,[R5, #+280]
// 1117     return S2W_SUCCESS;
??AppS2wHal_NetClose_2:
        ADD      SP,SP,#+16
          CFI CFA R13+24
        POP      {R4-R8,PC}       ;; return
          CFI EndBlock cfiBlock71
// 1118 }

        SECTION `.text`:CODE:NOROOT(1)
          CFI Block cfiCond72 Using cfiCommon0
          CFI Function AppS2wHal_NetClose
          CFI Conditional ??CrossCallReturnLabel_58
          CFI R4 Frame(CFA, -24)
          CFI R5 Frame(CFA, -20)
          CFI R6 Frame(CFA, -16)
          CFI R7 Frame(CFA, -12)
          CFI R8 Frame(CFA, -8)
          CFI R14 Frame(CFA, -4)
          CFI CFA R13+40
          CFI Block cfiCond73 Using cfiCommon0
          CFI (cfiCond73) Function AppS2wHal_NetCloseAll
          CFI (cfiCond73) Conditional ??CrossCallReturnLabel_59
          CFI (cfiCond73) R4 Frame(CFA, -32)
          CFI (cfiCond73) R5 Frame(CFA, -28)
          CFI (cfiCond73) R6 Frame(CFA, -24)
          CFI (cfiCond73) R7 Frame(CFA, -20)
          CFI (cfiCond73) R8 Frame(CFA, -16)
          CFI (cfiCond73) R9 Frame(CFA, -12)
          CFI (cfiCond73) R10 Frame(CFA, -8)
          CFI (cfiCond73) R14 Frame(CFA, -4)
          CFI (cfiCond73) CFA R13+48
          CFI Block cfiPicker74 Using cfiCommon1
          CFI (cfiPicker74) NoFunction
          CFI (cfiPicker74) Picker
        THUMB
?Subroutine24:
        MOVS     R2,#+0
          CFI Block cfiCond75 Using cfiCommon0
          CFI (cfiCond75) Function AppS2w_SslClientOpen
          CFI (cfiCond75) Conditional ??CrossCallReturnLabel_57
          CFI (cfiCond75) R4 Frame(CFA, -36)
          CFI (cfiCond75) R5 Frame(CFA, -32)
          CFI (cfiCond75) R6 Frame(CFA, -28)
          CFI (cfiCond75) R7 Frame(CFA, -24)
          CFI (cfiCond75) R8 Frame(CFA, -20)
          CFI (cfiCond75) R9 Frame(CFA, -16)
          CFI (cfiCond75) R10 Frame(CFA, -12)
          CFI (cfiCond75) R11 Frame(CFA, -8)
          CFI (cfiCond75) R14 Frame(CFA, -4)
          CFI (cfiCond75) CFA R13+80
          CFI Block cfiCond76 Using cfiCommon0
          CFI (cfiCond76) Function AppS2w_SslLocalClose
          CFI (cfiCond76) Conditional ??CrossCallReturnLabel_56
          CFI (cfiCond76) R4 Frame(CFA, -12)
          CFI (cfiCond76) R5 Frame(CFA, -8)
          CFI (cfiCond76) R14 Frame(CFA, -4)
          CFI (cfiCond76) CFA R13+16
??Subroutine24_0:
        MOVS     R1,#+0
          CFI FunCall AppS2wHal_NetClose nx_bsd_callback_register
          CFI FunCall AppS2wHal_NetCloseAll nx_bsd_callback_register
          CFI FunCall AppS2w_SslClientOpen nx_bsd_callback_register
          CFI FunCall AppS2w_SslLocalClose nx_bsd_callback_register
        B.W      nx_bsd_callback_register
          CFI EndBlock cfiCond72
          CFI EndBlock cfiCond73
          CFI EndBlock cfiPicker74
          CFI EndBlock cfiCond75
          CFI EndBlock cfiCond76
// 1119 
// 1120 
// 1121 PRIVATE UINT8
// 1122 AppS2wHal_NetImmediateClose(UINT8 cid)
// 1123 {
// 1124     S2W_CID_T *p;
// 1125     UINT32 opt=2;
// 1126 
// 1127     /* Validate the connection identifier.
// 1128      */
// 1129     if (cid >= MAX_CID_RANGE)
// 1130     {
// 1131         return S2W_EBADCID;
// 1132     }
// 1133 
// 1134     p = &s2wCidList[cid];
// 1135     if ((p->sd == CID_NOTINUSE) || (p->s2wCidCloseInProgress == TRUE))
// 1136     {
// 1137         return S2W_EBADCID;
// 1138     }
// 1139 
// 1140     /* Close the connection.*/
// 1141     p->s2wCidCloseInProgress = TRUE;
// 1142     setsockopt(p->sd, IP_PROTOTCP, TCP_MAX_REXMIT, (const char*)&opt,
// 1143                sizeof(opt));
// 1144  #if defined (S2W_HTTPS_SUPPORT) || (S2W_HTTPC_SUPPORT)
// 1145      if(p->httpflag == 1 )
// 1146      {
// 1147          AppS2wHal_HttpLocalClose(cid);
// 1148      }
// 1149      else
// 1150  #endif
// 1151  #if defined(S2W_SSL_CLIENT_SUPPORT) || defined(S2W_SSL_SERVER_SUPPORT)
// 1152      if(p->sslflag == 1 )
// 1153      {
// 1154          AppS2w_SslLocalClose(cid);
// 1155 
// 1156      }
// 1157      else
// 1158  #endif
// 1159     {
// 1160   		nx_bsd_callback_register(p->sd, NULL, 0);
// 1161         soc_close(p->sd);
// 1162 
// 1163    }
// 1164 
// 1165 
// 1166     p->sd = CID_NOTINUSE;
// 1167     s2wCidList[cid].localPort = 0;
// 1168     s2wCidList[cid].remotePort = 0;
// 1169     p->s2wCidCloseInProgress = FALSE;
// 1170     return S2W_SUCCESS;
// 1171 }
// 1172 
// 1173 
// 1174 
// 1175 /**
// 1176  ******************************************************************
// 1177  * @ingroup S2w-Application
// 1178  * @brief S2w all socket close function.
// 1179  *    This function close all tcp/udp connection established in s2w.
// 1180  * @retval S2W_SUCCESS     - operation successfull.
// 1181  * @retval S2W_FAILURE     - operation failed
// 1182  ******************************************************************/

        SECTION `.text`:CODE:NOROOT(1)
          CFI Block cfiBlock77 Using cfiCommon0
          CFI Function AppS2wHal_NetCloseAll
        THUMB
// 1183 PUBLIC UINT8
// 1184 AppS2wHal_NetCloseAll(UINT8 flag)
// 1185 {
AppS2wHal_NetCloseAll:
        PUSH     {R4-R10,LR}
          CFI R14 Frame(CFA, -4)
          CFI R10 Frame(CFA, -8)
          CFI R9 Frame(CFA, -12)
          CFI R8 Frame(CFA, -16)
          CFI R7 Frame(CFA, -20)
          CFI R6 Frame(CFA, -24)
          CFI R5 Frame(CFA, -28)
          CFI R4 Frame(CFA, -32)
          CFI CFA R13+32
        MOV      R4,R0
        SUB      SP,SP,#+16
          CFI CFA R13+48
// 1186     UINT8 status = S2W_SUCCESS;
        MOVS     R0,#+0
// 1187     INT32 i;
// 1188 
// 1189     for (i = 0; i < MAX_CID_RANGE; i++)
        MOVS     R5,#+0
        MOV      R8,#+296
        LDR.W    R10,??DataTable66
// 1190     {
// 1191         if (s2wCidList[i].sd != CID_NOTINUSE && s2wCidList[i].allocatedTo != 1)
??AppS2wHal_NetCloseAll_0:
        MLA      R6,R8,R5,R10
        LDR      R1,[R6, #+28]
        CMN      R1,#+1
        ITT      NE 
        LDRBNE   R1,[R6, #+48]
        CMPNE    R1,#+1
        BEQ.N    ??AppS2wHal_NetCloseAll_1
// 1192         {
// 1193 	         if(flag == CID_NCLOSE)
        CBNZ.N   R4,??AppS2wHal_NetCloseAll_2
// 1194 	         {
// 1195 	            status = AppS2wHal_NetClose(i);
        UXTB     R0,R5
          CFI FunCall AppS2wHal_NetClose
        BL       AppS2wHal_NetClose
        B.N      ??AppS2wHal_NetCloseAll_1
// 1196 	         }
// 1197 	         else
// 1198 	         {
// 1199 	            status = AppS2wHal_NetImmediateClose(i);
??AppS2wHal_NetCloseAll_2:
        MOVS     R0,#+2
        UXTB     R9,R5
        STR      R0,[SP, #+4]
        MLA      R7,R8,R9,R10
        LDR      R0,[R7, #+28]
        CMN      R0,#+1
        ITT      NE 
        LDRBNE   R1,[R7, #+280]
        CMPNE    R1,#+1
        BEQ.N    ??AppS2wHal_NetCloseAll_3
        MOVS     R1,#+1
        STRB     R1,[R7, #+280]
        ADD      R3,SP,#+4
        MOVS     R1,#+4
        STR      R1,[SP, #+0]
        MOVS     R2,#+42
        BL       ??Subroutine22_0
// 1200 	         }
// 1201 
// 1202         }
??CrossCallReturnLabel_52:
        ADD      R0,R7,#+28
        LDRB     R1,[R0, #+19]
        CMP      R1,#+1
        BNE.N    ??AppS2wHal_NetCloseAll_4
        MOV      R0,R9
          CFI FunCall AppS2wHal_HttpLocalClose
        BL       AppS2wHal_HttpLocalClose
        B.N      ??AppS2wHal_NetCloseAll_5
??AppS2wHal_NetCloseAll_4:
        LDRB     R0,[R0, #+16]
        CMP      R0,#+1
        BNE.N    ??AppS2wHal_NetCloseAll_6
        MOV      R0,R9
          CFI FunCall AppS2w_SslLocalClose
        BL       AppS2w_SslLocalClose
        B.N      ??AppS2wHal_NetCloseAll_5
??AppS2wHal_NetCloseAll_6:
        LDR      R0,[R7, #+28]
        BL       ?Subroutine24
??CrossCallReturnLabel_59:
        LDR      R0,[R7, #+28]
          CFI FunCall soc_close
        BL       soc_close
??AppS2wHal_NetCloseAll_5:
        MOV      R0,#-1
        STR      R0,[R7, #+28]
        MOVS     R0,#+0
        STRH     R0,[R7, #+2]
        STRH     R0,[R7, #+4]
        STRB     R0,[R7, #+280]
        B.N      ??AppS2wHal_NetCloseAll_1
??AppS2wHal_NetCloseAll_3:
        MOVS     R0,#+5
// 1203         s2wCidList[i].localPort = 0;
??AppS2wHal_NetCloseAll_1:
        MOVS     R1,#+0
        STRH     R1,[R6, #+2]
// 1204         s2wCidList[i].remotePort = 0;
// 1205     }
        ADDS     R5,R5,#+1
        STRH     R1,[R6, #+4]
        CMP      R5,#+16
        BLT.N    ??AppS2wHal_NetCloseAll_0
// 1206     return status;
        ADD      SP,SP,#+16
          CFI CFA R13+32
        POP      {R4-R10,PC}      ;; return
          CFI EndBlock cfiBlock77
// 1207 }
// 1208 
// 1209 
// 1210 /**
// 1211  ******************************************************************
// 1212  * @ingroup S2w-Application
// 1213  * @brief S2w udp/tcp tx function
// 1214  *    This function send the data to the remote machine specified. This
// 1215  *    fuction use either tcp or udp as the protocol type.
// 1216  * @param cid      - IN the cid number corresponding to the socket connection.
// 1217  * @param destAddr - IN the socket structure for remote machine.
// 1218  * @param destPort - IN the remote port.
// 1219  * @param buf      - IN the data pointer.
// 1220  *.@param len      - IN the length of the buf to send.
// 1221  * @retval S2W_SUCCESS           - operation successfull.
// 1222  * @retval S2W_ENCID/S2W_EBADCID - operation failed-no valid cid
// 1223  * @@retval S2W_FAILURE          - operation failed.
// 1224  ******************************************************************/

        SECTION `.text`:CODE:NOROOT(1)
          CFI Block cfiBlock78 Using cfiCommon0
          CFI Function AppS2wHal_NetTx
        THUMB
// 1225 PUBLIC UINT8
// 1226 AppS2wHal_NetTx(UINT8 cid, UINT8 *destAddr, UINT16 destPort,
// 1227                  VOID *buf, UINT32 len)
// 1228 {
AppS2wHal_NetTx:
        PUSH     {R4-R11,LR}
          CFI R14 Frame(CFA, -4)
          CFI R11 Frame(CFA, -8)
          CFI R10 Frame(CFA, -12)
          CFI R9 Frame(CFA, -16)
          CFI R8 Frame(CFA, -20)
          CFI R7 Frame(CFA, -24)
          CFI R6 Frame(CFA, -28)
          CFI R5 Frame(CFA, -32)
          CFI R4 Frame(CFA, -36)
          CFI CFA R13+36
        MOV      R10,R0
        MOV      R9,R3
// 1229     UINT32 status = S2W_SUCCESS;
// 1230     S2W_CID_T *p;
// 1231 	UINT8 *outDataBuf;
// 1232     p = &s2wCidList[cid];
        MOV      R0,#+296
        LDR.N    R3,??DataTable58
        MLA      R4,R0,R10,R3
        SUB      SP,SP,#+28
          CFI CFA R13+64
        LDRB     R3,[R4, #+1]
        LDRB     R0,[R4, #+0]
        LDR      R7,[SP, #+64]
        MOVS     R5,#+0
        CMP      R3,#+1
        BNE.N    ??AppS2wHal_NetTx_0
// 1233     if (p->conMode == S2W_NETDATA_MODE_SERVER)
// 1234     {
// 1235         struct sockaddr_in addr;
// 1236         if (p->conType == TCP)
        CMP      R0,#+2
        BEQ.N    ??AppS2wHal_NetTx_1
// 1237         {
// 1238             return S2W_FAILURE;
// 1239         }
// 1240 #ifdef S2W_IPv6_SUPPORT
// 1241       
// 1242         if(p->addrType & ADDR_TYPE_IPv6)
// 1243         {
// 1244           struct sockaddr_in6 servAddr;
// 1245           servAddr.sin6_family = AF_INET6;
// 1246           servAddr.sin6_port = htons(destPort);
// 1247           
// 1248           memcpy(servAddr.sin6_addr._S6_un._S6_u32,destAddr,16);
// 1249           GSN_IPv6_CHANGE_ENDIAN((UINT32 *)servAddr.sin6_addr._S6_un._S6_u32); 
// 1250             if (sendto(p->sd, buf, len, 0,(struct sockaddr *)&servAddr, sizeof(servAddr)) < 0)
// 1251         {
// 1252             status = S2W_FAILURE;
// 1253         }
// 1254           
// 1255         }
// 1256       else
// 1257       
// 1258 #endif //S2W_IPv6_SUPPORT 
// 1259       {
// 1260         addr.sin_family = AF_INET;
        MOVS     R0,#+2
        STRH     R0,[SP, #+12]
// 1261         addr.sin_port = htons(destPort);
        LSLS     R0,R2,#+8
        ORR      R0,R0,R2, LSR #+8
        STRH     R0,[SP, #+14]
// 1262         //*(ULONG*)destAddr = htonl(*(ULONG*)destAddr);
// 1263         memcpy(&(addr.sin_addr.s_addr), destAddr, sizeof(addr.sin_addr.s_addr));
        MOVS     R2,#+4
        ADD      R0,SP,#+16
          CFI FunCall memcpy
        BL       memcpy
// 1264 
// 1265         GsnSq_TaskMonitorStart(APP_CFG_SQ_SERIAL_INPUT_TASK_ID, (UINT32)cid);
        BL       ?Subroutine33
// 1266         if (sendto(p->sd, buf, len, 0,
// 1267            (struct sockaddr *)&addr, sizeof(addr)) < 0)
??CrossCallReturnLabel_86:
        BL       ?Subroutine16
// 1268         {
// 1269             //S2w_Debug("udp sendto fail: %d\r\n", tfGetSocketError(p->sd));
// 1270             //S2w_Debug("destaddr = %x\n\r", *(UINT32 *) destAddr);
// 1271             //S2w_Debug("destport = %x\n\r", destPort);
// 1272             status = S2W_FAILURE;
// 1273         }
// 1274         GsnSq_TaskMonitorStop( APP_CFG_SQ_SERIAL_INPUT_TASK_ID);
// 1275       }
// 1276     }
??CrossCallReturnLabel_37:
        B.N      ??AppS2wHal_NetTx_2
// 1277     else if((p->conType == UDP) && (p->conMode == S2W_NETDATA_MODE_CLIENT))
??AppS2wHal_NetTx_0:
        CMP      R0,#+1
        IT       EQ 
        CMPEQ    R3,#+0
        BNE.N    ??AppS2wHal_NetTx_3
// 1278     {
// 1279 #if defined(S2W_DTLS_CLIENT_SUPPORT)
// 1280         if ((s2wCidList[cid].sslflag == TRUE))
// 1281  		{
// 1282  			/*NOTE: IMP: The ssl can encode a max of 1338 bytes. Its beter to encode 1K at a time
// 1283  			and send it. So we need a loop mechanism to send the incomming data in 1K encoded
// 1284  			chunks....*/
// 1285  			//UINT32 outDataLen;
// 1286             UINT32 dataSent = 0;
// 1287  			UINT32 sendLen = 0;
// 1288  			while(len)
// 1289  			{
// 1290  				sendLen = (len > 1024)?1024:len;
// 1291                 GsnDtls_Send( (GSN_DTLS_CONN_T *)s2wCidList[cid].ssl.sslConn,
// 1292                 		(UINT8 *)((UINT8*)buf + dataSent), sendLen, 0 );
// 1293  				dataSent += sendLen;
// 1294  				len -= sendLen;
// 1295  			}
// 1296  		}
// 1297         else
// 1298 #endif
// 1299         {
// 1300       #ifdef S2W_IPv6_SUPPORT
// 1301         if(p->addrType & ADDR_TYPE_IPv6)
// 1302         {
// 1303           struct sockaddr_in6 servAddr;
// 1304           servAddr.sin6_family = AF_INET6;
// 1305           servAddr.sin6_port = htons(s2wCidList[cid].remotePort);
// 1306           
// 1307           
// 1308           memcpy(servAddr.sin6_addr._S6_un._S6_u32,s2wCidList[cid].remoteIpv6,16);
// 1309           GSN_IPv6_CHANGE_ENDIAN((UINT32 *)servAddr.sin6_addr._S6_un._S6_u32); 
// 1310             if (sendto(p->sd, buf, len, 0,(struct sockaddr *)&servAddr, sizeof(servAddr)) < 0)
// 1311         {
// 1312             status = S2W_FAILURE;
// 1313         }
// 1314 
// 1315         }
// 1316       else
// 1317       
// 1318 #endif //S2W_IPv6_SUPPORT       
// 1319       {
// 1320         struct sockaddr_in addr1;
// 1321         addr1.sin_family = AF_INET;
        MOVS     R0,#+2
        STRH     R0,[SP, #+12]
// 1322         addr1.sin_port = htons(s2wCidList[cid].remotePort);
// 1323         memcpy(&(addr1.sin_addr.s_addr),s2wCidList[cid].remoteIp ,
// 1324                   sizeof(addr1.sin_addr.s_addr));
        MOVS     R2,#+4
        LDRH     R0,[R4, #+4]
        BL       ?Subroutine17
??CrossCallReturnLabel_39:
        ADDS     R1,R4,#+6
        ADD      R0,SP,#+16
          CFI FunCall memcpy
        BL       memcpy
// 1325 
// 1326         GsnSq_TaskMonitorStart(APP_CFG_SQ_SERIAL_INPUT_TASK_ID, (UINT32)cid);
        BL       ?Subroutine33
// 1327         if (sendto(p->sd, buf, len, 0,
// 1328            (struct sockaddr *)&addr1, sizeof(addr1)) < 0)
??CrossCallReturnLabel_85:
        BL       ?Subroutine16
// 1329         {
// 1330             S2w_Debug("udp sendto fail: %d\r\n", 1);
// 1331         }
// 1332         GsnSq_TaskMonitorStop( APP_CFG_SQ_SERIAL_INPUT_TASK_ID);
// 1333       }
// 1334     }
// 1335     }
??CrossCallReturnLabel_36:
        B.N      ??AppS2wHal_NetTx_4
// 1336     else
// 1337     {
// 1338         /* do a socket send
// 1339          */
// 1340 
// 1341         //S2w_Debug("\r\nData sd %d, %d\r\n",s2wCidList[cid].sd,
// 1342             //tlsv1_client_established(s2wCidList[cid].ssl.sslConn->tlsv1Conn));
// 1343 
// 1344  #if defined(S2W_SSL_CLIENT_SUPPORT) || defined(S2W_SSL_SERVER_SUPPORT)
// 1345 
// 1346          if ((s2wCidList[cid].sslflag == TRUE))
??AppS2wHal_NetTx_3:
        LDRB     R0,[R4, #+44]
        CMP      R0,#+1
        BNE.N    ??AppS2wHal_NetTx_5
// 1347  		{
// 1348  			/*NOTE: IMP: The ssl can encode a max of 1338 bytes. Its beter to encode 1K at a time
// 1349  			and send it. So we need a loop mechanism to send the incomming data in 1K encoded
// 1350  			chunks....*/
// 1351  			UINT32 outDataLen, u32NoOfBytesSent;
// 1352  			UINT32 dataSent = 0;
        MOV      R11,R5
// 1353  			UINT32 sendLen = 0;
        B.N      ??AppS2wHal_NetTx_6
// 1354  			while(len)
// 1355  			{
// 1356  				sendLen = (len > 1024)?1024:len;
// 1357  #ifdef S2W_APP_SSL_PROVISION
// 1358  				ULONG64 curTime;
// 1359  				UINT32 diffTime, timeInMsec;
// 1360 
// 1361  				encryptStartTime = GsnSoftTmr_CurrentSystemTime();
// 1362  #endif
// 1363  				GsnSsl_Encode(s2wCidList[cid].ssl.sslConn, (UINT8 *)((UINT8*)buf + dataSent),
// 1364  							  sendLen, &outDataBuf,&outDataLen);
// 1365  #ifdef S2W_APP_SSL_PROVISION
// 1366  				curTime  = GsnSoftTmr_CurrentSystemTime();
// 1367  				diffTime = (curTime - encryptStartTime);
// 1368  				timeInMsec =   diffTime/(TIMER_INTERRUPT_1_MS);
// 1369  				S2w_Printf("\r\nSSL Tx Encryption Time in ms %d\r\n", timeInMsec);
// 1370  #endif
// 1371 
// 1372  				u32NoOfBytesSent = send(s2wCidList[cid].sd, (const char*)outDataBuf,
// 1373  										outDataLen, 0);
// 1374 
// 1375  				GsnSsl_Free(outDataBuf);
// 1376 
// 1377  				if ( outDataLen != u32NoOfBytesSent )
// 1378  				{
// 1379  					AppS2w_SslClose(cid);
// 1380  					return S2W_FAILURE;
// 1381  				}
// 1382  				dataSent += sendLen;
??AppS2wHal_NetTx_7:
        ADD      R11,R8,R11
// 1383  				len -= sendLen;
        SUB      R7,R7,R8
??AppS2wHal_NetTx_6:
        CBZ.N    R7,??AppS2wHal_NetTx_4
        CMP      R7,#+1024
        ITE      HI 
        MOVHI    R8,#+1024
        MOVLS    R8,R7
        ADD      R0,SP,#+4
        ADDS     R6,R4,#+4
        STR      R0,[SP, #+0]
        ADD      R3,SP,#+8
        LDR      R0,[R6, #+36]
        MOV      R2,R8
        ADD      R1,R11,R9
          CFI FunCall GsnSsl_Encode
        BL       GsnSsl_Encode
        LDR      R2,[SP, #+4]
        LDR      R1,[SP, #+8]
        LDR      R0,[R6, #+24]
        MOVS     R3,#+0
          CFI FunCall send
        BL       send
        MOV      R6,R0
        LDR      R0,[SP, #+8]
          CFI FunCall GsnSsl_Free
        BL       GsnSsl_Free
        LDR      R0,[SP, #+4]
        CMP      R0,R6
        BEQ.N    ??AppS2wHal_NetTx_7
        MOV      R0,R10
          CFI FunCall AppS2w_SslClose
        BL       AppS2w_SslClose
??AppS2wHal_NetTx_1:
        MOVS     R0,#+1
        B.N      ??AppS2wHal_NetTx_8
// 1384  			}
// 1385  		}
// 1386          else
// 1387 #endif
// 1388         {
// 1389            GsnSq_TaskMonitorStart(APP_CFG_SQ_SERIAL_INPUT_TASK_ID, (UINT32)cid);
??AppS2wHal_NetTx_5:
        BL       ?Subroutine33
// 1390           
// 1391 #ifdef S2W_IPv6_SUPPORT
// 1392         if(p->addrType & ADDR_TYPE_IPv6)
// 1393         {
// 1394           if (send(p->sd, buf, len, 0) < 0)
// 1395         {
// 1396 	        /*GsnOsal_SemAcquire(&s2wSyncSemID, GSN_OSAL_WAIT_FOREVER);
// 1397 	        // if the auto connection is enabled do not print this message
// 1398 	             if((!s2wAutoConnState ) && (!profile_params.autoConnect))
// 1399        	      {
// 1400             			//S2w_Printf("send() failed: %d\r\n", 1);
// 1401 			 }
// 1402 		         GsnOsal_SemRelease(&s2wSyncSemID);
// 1403             		*/
// 1404             status = S2W_FAILURE;
// 1405         }
// 1406           
// 1407           
// 1408         }
// 1409         else
// 1410 #endif //S2W_IPv6_SUPPORT 
// 1411         {
// 1412         if (send(p->sd, buf, len, 0) < 0)
??CrossCallReturnLabel_84:
        LDR      R0,[R4, #+28]
        MOVS     R3,#+0
        MOV      R2,R7
        MOV      R1,R9
          CFI FunCall send
        BL       send
??AppS2wHal_NetTx_2:
        CMP      R0,#+0
        IT       MI 
        MOVMI    R5,#+1
// 1413         {
// 1414             //GsnOsal_SemAcquire(&s2wSyncSemID, GSN_OSAL_WAIT_FOREVER);
// 1415             //if((!s2wAutoConnState ) && (!profile_params.autoConnect))
// 1416             //{
// 1417             //S2w_Printf("send() failed: %d\r\n", 1);
// 1418 			//}
// 1419             //GsnOsal_SemRelease(&s2wSyncSemID);
// 1420             status = S2W_FAILURE;
// 1421         }
// 1422 	}
// 1423         }
// 1424         GsnSq_TaskMonitorStop( APP_CFG_SQ_SERIAL_INPUT_TASK_ID);
??AppS2wHal_NetTx_4:
        MOVS     R0,#+10
          CFI FunCall GsnSq_TaskMonitorStop
        BL       GsnSq_TaskMonitorStop
// 1425 
// 1426     }
// 1427     if(s2wappMainTaskCtxt->serialDeviceId == S2W_PORT_FS_SPI)
        LDR.W    R1,??DataTable71
        LDR      R1,[R1, #+0]
        MOVW     R0,#+27384
        LDRB     R0,[R0, R1]
        CMP      R0,#+2
        IT       EQ 
          CFI FunCall s2wSpiFs_Flush
        BLEQ     s2wSpiFs_Flush
// 1428     {
// 1429          s2wSpiFs_Flush();
// 1430     }
// 1431     return status;
        MOV      R0,R5
??AppS2wHal_NetTx_8:
        B.N      ?Subroutine1
          CFI EndBlock cfiBlock78
// 1432 }

        SECTION `.text`:CODE:NOROOT(1)
          CFI Block cfiCond79 Using cfiCommon0
          CFI Function AppS2wHal_NetTx
          CFI Conditional ??CrossCallReturnLabel_86
          CFI R4 Frame(CFA, -36)
          CFI R5 Frame(CFA, -32)
          CFI R6 Frame(CFA, -28)
          CFI R7 Frame(CFA, -24)
          CFI R8 Frame(CFA, -20)
          CFI R9 Frame(CFA, -16)
          CFI R10 Frame(CFA, -12)
          CFI R11 Frame(CFA, -8)
          CFI R14 Frame(CFA, -4)
          CFI CFA R13+64
          CFI Block cfiCond80 Using cfiCommon0
          CFI (cfiCond80) Function AppS2wHal_NetTx
          CFI (cfiCond80) Conditional ??CrossCallReturnLabel_85
          CFI (cfiCond80) R4 Frame(CFA, -36)
          CFI (cfiCond80) R5 Frame(CFA, -32)
          CFI (cfiCond80) R6 Frame(CFA, -28)
          CFI (cfiCond80) R7 Frame(CFA, -24)
          CFI (cfiCond80) R8 Frame(CFA, -20)
          CFI (cfiCond80) R9 Frame(CFA, -16)
          CFI (cfiCond80) R10 Frame(CFA, -12)
          CFI (cfiCond80) R11 Frame(CFA, -8)
          CFI (cfiCond80) R14 Frame(CFA, -4)
          CFI (cfiCond80) CFA R13+64
          CFI Block cfiCond81 Using cfiCommon0
          CFI (cfiCond81) Function AppS2wHal_NetTx
          CFI (cfiCond81) Conditional ??CrossCallReturnLabel_84
          CFI (cfiCond81) R4 Frame(CFA, -36)
          CFI (cfiCond81) R5 Frame(CFA, -32)
          CFI (cfiCond81) R6 Frame(CFA, -28)
          CFI (cfiCond81) R7 Frame(CFA, -24)
          CFI (cfiCond81) R8 Frame(CFA, -20)
          CFI (cfiCond81) R9 Frame(CFA, -16)
          CFI (cfiCond81) R10 Frame(CFA, -12)
          CFI (cfiCond81) R11 Frame(CFA, -8)
          CFI (cfiCond81) R14 Frame(CFA, -4)
          CFI (cfiCond81) CFA R13+64
          CFI Block cfiPicker82 Using cfiCommon1
          CFI (cfiPicker82) NoFunction
          CFI (cfiPicker82) Picker
        THUMB
?Subroutine33:
        MOV      R1,R10
        MOVS     R0,#+10
          CFI FunCall AppS2wHal_NetTx GsnSq_TaskMonitorStart
          CFI FunCall AppS2wHal_NetTx GsnSq_TaskMonitorStart
          CFI FunCall AppS2wHal_NetTx GsnSq_TaskMonitorStart
        B.W      GsnSq_TaskMonitorStart
          CFI EndBlock cfiCond79
          CFI EndBlock cfiCond80
          CFI EndBlock cfiCond81
          CFI EndBlock cfiPicker82

        SECTION `.text`:CODE:NOROOT(1)
          CFI Block cfiCond83 Using cfiCommon0
          CFI Function AppS2wHal_NetUdpServer
          CFI NoCalls
          CFI NoCalls
          CFI Conditional ??CrossCallReturnLabel_38
          CFI R4 Frame(CFA, -24)
          CFI R5 Frame(CFA, -20)
          CFI R6 Frame(CFA, -16)
          CFI R7 Frame(CFA, -12)
          CFI R8 Frame(CFA, -8)
          CFI R14 Frame(CFA, -4)
          CFI CFA R13+56
          CFI Block cfiCond84 Using cfiCommon0
          CFI (cfiCond84) Function AppS2wHal_NetTx
          CFI (cfiCond84) NoCalls AppS2wHal_NetTx
          CFI (cfiCond84) NoCalls AppS2wHal_NetUdpServer
          CFI (cfiCond84) Conditional ??CrossCallReturnLabel_39
          CFI (cfiCond84) R4 Frame(CFA, -36)
          CFI (cfiCond84) R5 Frame(CFA, -32)
          CFI (cfiCond84) R6 Frame(CFA, -28)
          CFI (cfiCond84) R7 Frame(CFA, -24)
          CFI (cfiCond84) R8 Frame(CFA, -20)
          CFI (cfiCond84) R9 Frame(CFA, -16)
          CFI (cfiCond84) R10 Frame(CFA, -12)
          CFI (cfiCond84) R11 Frame(CFA, -8)
          CFI (cfiCond84) R14 Frame(CFA, -4)
          CFI (cfiCond84) CFA R13+64
          CFI Block cfiPicker85 Using cfiCommon1
          CFI (cfiPicker85) NoFunction
          CFI (cfiPicker85) NoCalls AppS2wHal_NetTx
          CFI (cfiPicker85) NoCalls AppS2wHal_NetUdpServer
          CFI (cfiPicker85) Picker
        THUMB
?Subroutine17:
        LSLS     R1,R0,#+8
        ORR      R0,R1,R0, LSR #+8
        STRH     R0,[SP, #+14]
        BX       LR
          CFI EndBlock cfiCond83
          CFI EndBlock cfiCond84
          CFI EndBlock cfiPicker85

        SECTION `.text`:CODE:NOROOT(1)
          CFI Block cfiCond86 Using cfiCommon0
          CFI Function AppS2wHal_NetTx
          CFI Conditional ??CrossCallReturnLabel_37
          CFI R4 Frame(CFA, -36)
          CFI R5 Frame(CFA, -32)
          CFI R6 Frame(CFA, -28)
          CFI R7 Frame(CFA, -24)
          CFI R8 Frame(CFA, -20)
          CFI R9 Frame(CFA, -16)
          CFI R10 Frame(CFA, -12)
          CFI R11 Frame(CFA, -8)
          CFI R14 Frame(CFA, -4)
          CFI CFA R13+64
          CFI Block cfiCond87 Using cfiCommon0
          CFI (cfiCond87) Function AppS2wHal_NetTx
          CFI (cfiCond87) Conditional ??CrossCallReturnLabel_36
          CFI (cfiCond87) R4 Frame(CFA, -36)
          CFI (cfiCond87) R5 Frame(CFA, -32)
          CFI (cfiCond87) R6 Frame(CFA, -28)
          CFI (cfiCond87) R7 Frame(CFA, -24)
          CFI (cfiCond87) R8 Frame(CFA, -20)
          CFI (cfiCond87) R9 Frame(CFA, -16)
          CFI (cfiCond87) R10 Frame(CFA, -12)
          CFI (cfiCond87) R11 Frame(CFA, -8)
          CFI (cfiCond87) R14 Frame(CFA, -4)
          CFI (cfiCond87) CFA R13+64
          CFI Block cfiPicker88 Using cfiCommon1
          CFI (cfiPicker88) NoFunction
          CFI (cfiPicker88) Picker
        THUMB
?Subroutine16:
        MOVS     R0,#+16
        STR      R0,[SP, #+4]
        MOVS     R3,#+0
        ADD      R0,SP,#+12
        STR      R0,[SP, #+0]
        MOV      R2,R7
        LDR      R0,[R4, #+28]
        MOV      R1,R9
          CFI FunCall AppS2wHal_NetTx sendto
          CFI FunCall AppS2wHal_NetTx sendto
        B.W      sendto
          CFI EndBlock cfiCond86
          CFI EndBlock cfiCond87
          CFI EndBlock cfiPicker88
// 1433 
// 1434 
// 1435 /**
// 1436  ******************************************************************
// 1437  * @brief S2w cid info get function.
// 1438  *    This function get all info of the active active cids present.
// 1439  *.@param cidInfo      - IN the cid info structure pointer.
// 1440  * @param nos          - IN the address to which the number of active
// 1441  *                           cids to be stored.
// 1442  * @retval S2W_SUCCESS     - operation successfull.
// 1443  ******************************************************************/

        SECTION `.text`:CODE:NOROOT(1)
          CFI Block cfiBlock89 Using cfiCommon0
          CFI Function AppS2wHal_CidInfoGet
        THUMB
// 1444 PUBLIC UINT8
// 1445 AppS2wHal_CidInfoGet(S2W_CID_INFO_T cidInfo[],UINT32* nos)
// 1446 {
AppS2wHal_CidInfoGet:
        PUSH     {R0,R4-R11,LR}
          CFI R14 Frame(CFA, -4)
          CFI R11 Frame(CFA, -8)
          CFI R10 Frame(CFA, -12)
          CFI R9 Frame(CFA, -16)
          CFI R8 Frame(CFA, -20)
          CFI R7 Frame(CFA, -24)
          CFI R6 Frame(CFA, -28)
          CFI R5 Frame(CFA, -32)
          CFI R4 Frame(CFA, -36)
          CFI CFA R13+40
        SUB      SP,SP,#+24
          CFI CFA R13+64
// 1447     UINT8 i=0,j=0;
// 1448     struct sockaddr_in sockAddr;
// 1449     INT32 len = sizeof(sockAddr), ret;
        MOVS     R0,#+16
        MOV      R9,R1
        MOVS     R5,#+0
        STR      R0,[SP, #+0]
// 1450     for(i=0;i<MAX_CID_RANGE;i++)
        MOVS     R6,#+0
        LDR.W    R11,??DataTable58
// 1451     {
// 1452         if(s2wCidList[i].sd != CID_NOTINUSE) // valid cid
??AppS2wHal_CidInfoGet_0:
        MOV      R0,#+296
        MUL      R8,R0,R6
        ADD      R4,R8,R11
        LDR      R0,[R4, #+28]
        CMN      R0,#+1
        BEQ.N    ??AppS2wHal_CidInfoGet_1
// 1453         {
// 1454             cidInfo[j].cid = AppS2wHal_CidFind(s2wCidList[i].sd);
        MOVS     R1,#+12
        MUL      R10,R1,R5
        LDR      R1,[SP, #+24]
        ADD      R7,R10,R1
          CFI FunCall AppS2wHal_CidFind
        BL       AppS2wHal_CidFind
        STRB     R0,[R7, #+10]
// 1455             if(s2wCidList[i].localPort > 0)
        LDRH     R0,[R4, #+2]
        CBNZ.N   R0,??AppS2wHal_CidInfoGet_2
// 1456             {
// 1457                 cidInfo[j].localPort = s2wCidList[i].localPort;
// 1458             }
// 1459             else
// 1460             {
// 1461                 ret = getsockname(s2wCidList[i].sd, (struct sockaddr *)&sockAddr,
// 1462                              &len);
// 1463                 if(ret < 0)
        LDR      R0,[R4, #+28]
        ADD      R2,SP,#+0
        ADD      R1,SP,#+4
          CFI FunCall getsockname
        BL       getsockname
        CMP      R0,#+0
        BPL.N    ??AppS2wHal_CidInfoGet_3
// 1464                 {
// 1465                     //AppS2wHal_NetClose(cid);
// 1466                     return S2W_SOCKFAILURE;
        MOVS     R0,#+3
        B.N      ??AppS2wHal_CidInfoGet_4
// 1467                 }
// 1468                 cidInfo[j].localPort = ntohs(sockAddr.sin_port);
??AppS2wHal_CidInfoGet_3:
        LDRH     R0,[SP, #+6]
        LSLS     R1,R0,#+8
        ORR      R0,R1,R0, LSR #+8
??AppS2wHal_CidInfoGet_2:
        STRH     R0,[R7, #+2]
// 1469             }
// 1470             if (s2wCidList[i].conMode != S2W_NETDATA_MODE_SERVER)
        LDRB     R0,[R4, #+1]
        CMP      R0,#+1
        BEQ.N    ??AppS2wHal_CidInfoGet_5
// 1471             {
// 1472                 memcpy(cidInfo[j].remoteIp, s2wCidList[i].remoteIp,4);
        MOVS     R2,#+4
        ADDS     R1,R4,#+6
        ADDS     R0,R7,#+6
          CFI FunCall memcpy
        BL       memcpy
// 1473             }
// 1474             cidInfo[j].remotePort = s2wCidList[i].remotePort;
??AppS2wHal_CidInfoGet_5:
        LDRH     R0,[R4, #+4]
        STRH     R0,[R7, #+4]
// 1475             cidInfo[j].conType = s2wCidList[i].conType;
// 1476             cidInfo[j].conMode = s2wCidList[i].conMode;
// 1477             j = j+1;
        ADDS     R5,R5,#+1
        LDR      R0,[SP, #+24]
        LDRB     R1,[R8, R11]
        STRB     R1,[R10, R0]
        UXTB     R5,R5
        LDRB     R0,[R4, #+1]
        STRB     R0,[R7, #+1]
// 1478         }
// 1479 
// 1480     }
??AppS2wHal_CidInfoGet_1:
        ADDS     R6,R6,#+1
        UXTB     R6,R6
        CMP      R6,#+16
        BLT.N    ??AppS2wHal_CidInfoGet_0
// 1481     *nos = j;
        STR      R5,[R9, #+0]
// 1482     return S2W_SUCCESS;
        MOVS     R0,#+0
          CFI EndBlock cfiBlock89
??AppS2wHal_CidInfoGet_4:
        REQUIRE ?Subroutine1
        ;; // Fall through to label ?Subroutine1
// 1483 }

        SECTION `.text`:CODE:NOROOT(1)
          CFI Block cfiBlock90 Using cfiCommon0
          CFI NoFunction
          CFI NoCalls AppS2wHal_NetTx
          CFI NoCalls AppS2wHal_CidInfoGet
          CFI CFA R13+64
          CFI R4 Frame(CFA, -36)
          CFI R5 Frame(CFA, -32)
          CFI R6 Frame(CFA, -28)
          CFI R7 Frame(CFA, -24)
          CFI R8 Frame(CFA, -20)
          CFI R9 Frame(CFA, -16)
          CFI R10 Frame(CFA, -12)
          CFI R11 Frame(CFA, -8)
          CFI R14 Frame(CFA, -4)
        THUMB
?Subroutine1:
        ADD      SP,SP,#+28
          CFI CFA R13+36
        POP      {R4-R11,PC}      ;; return
          CFI EndBlock cfiBlock90
// 1484 
// 1485 
// 1486 /**
// 1487  ******************************************************************
// 1488  * @ingroup S2w-Application
// 1489  * @brief s2w network cid status get function.
// 1490  *    This function returns the status of the socket corresponding to
// 1491  *    the cid.
// 1492  * @param cid - IN the cid number
// 1493  * @retval TRUE  - the socket opened for that cid.
// 1494  * @retval FALSE - the socket not open for that cid.
// 1495  ******************************************************************/

        SECTION `.text`:CODE:NOROOT(1)
          CFI Block cfiBlock91 Using cfiCommon0
          CFI Function AppS2wHal_NetIsCidOpen
          CFI NoCalls
        THUMB
// 1496 PUBLIC UINT8
// 1497 AppS2wHal_NetIsCidOpen(UINT8 cid)
// 1498 {
// 1499     return !(cid >= MAX_CID_RANGE || s2wCidList[cid].sd == CID_NOTINUSE);
AppS2wHal_NetIsCidOpen:
        CMP      R0,#+16
        BGE.N    ??AppS2wHal_NetIsCidOpen_0
        MOV      R1,#+296
        LDR.W    R2,??DataTable66
        MLA      R0,R1,R0,R2
        LDR      R0,[R0, #+28]
        CMN      R0,#+1
        BEQ.N    ??AppS2wHal_NetIsCidOpen_0
        MOVS     R0,#+1
        BX       LR
??AppS2wHal_NetIsCidOpen_0:
        MOVS     R0,#+0
        BX       LR               ;; return
          CFI EndBlock cfiBlock91
// 1500 }
// 1501 
// 1502 
// 1503 /**
// 1504  ******************************************************************
// 1505  * @ingroup S2w-Application
// 1506  * @brief s2w Network initialize function
// 1507  *    This function create the network recv task and create queue for that
// 1508       task.
// 1509  * @retval VOID - None.
// 1510  ******************************************************************/

        SECTION `.text`:CODE:NOROOT(1)
          CFI Block cfiBlock92 Using cfiCommon0
          CFI Function AppS2wHal_NetInit
        THUMB
// 1511 PUBLIC VOID
// 1512 AppS2wHal_NetInit(VOID)
// 1513 {
AppS2wHal_NetInit:
        PUSH     {R0-R6,LR}
          CFI R14 Frame(CFA, -4)
          CFI R6 Frame(CFA, -8)
          CFI R5 Frame(CFA, -12)
          CFI R4 Frame(CFA, -16)
          CFI CFA R13+32
// 1514     UINT32 i;
// 1515 
// 1516     /* Mark all socket descriptor as 'not in use'.
// 1517      */
// 1518     for (i = 0; i < MAX_CID_RANGE; i++)
        MOVS     R0,#+0
        LDR.N    R4,??DataTable58
// 1519     {
// 1520         s2wCidList[i].sd = CID_NOTINUSE;
??AppS2wHal_NetInit_0:
        MOV      R1,#+296
        MLA      R1,R1,R0,R4
        MOV      R2,#-1
        STR      R2,[R1, #+28]
// 1521         s2wCidList[i].httpflag = 0;
// 1522         s2wCidList[i].localPort = 0;
// 1523     }
        ADDS     R0,R0,#+1
        MOVS     R2,#+0
        STRB     R2,[R1, #+47]
        STRH     R2,[R1, #+2]
        CMP      R0,#+16
        BCC.N    ??AppS2wHal_NetInit_0
// 1524     s2wappMainTaskCtxt->lastCidCreated = MAX_CID_RANGE-1;
        LDR.W    R5,??DataTable69
// 1525 
// 1526     //AppS2wHal_TimerInit(&s2wTcpConnectTimer, AppS2wHal_ConnectTimeout, NULL);
// 1527     //gh_eflags_create(&s2wTcpConnectEflags);
// 1528 
// 1529     GsnOsal_SemCreate  ( &s2wUdpSocketCloseSem, 0 );
        LDR.W    R6,??DataTable72
        LDR      R1,[R5, #+0]
        MOVW     R0,#+32744
        MOVS     R2,#+15
        STRB     R2,[R0, R1]
        MOVS     R1,#+0
        MOV      R0,R6
          CFI FunCall GsnOsal_SemCreate
        BL       GsnOsal_SemCreate
// 1530     //AppS2wHal_TimerInit(&s2wUdpCloseTimer, AppS2wHal_CloseTimeout, NULL);
// 1531 
// 1532     /* create the queue for the network receive task
// 1533      */
// 1534     GsnOsal_QueueCreate(&s2wNetQueue, 2,
// 1535                           (UINT8*)s2wNetQueueBuffer,
// 1536                           (sizeof(s2wNetQueueBuffer)));
        MOV      R0,#+512
        STR      R0,[SP, #+0]
        ADD      R3,R4,#+8832
        MOVS     R2,#+2
        MOVS     R1,#+0
        ADD      R0,R6,#+28
          CFI FunCall _tx_queue_create
        BL       _tx_queue_create
// 1537 
// 1538     /* create the network  receive task
// 1539      */
// 1540 
// 1541     GsnOsal_ThreadCreate(AppS2wHal_NetRecvTask,s2wappMainTaskCtxt,
// 1542                                 &s2wappMainTaskCtxt->s2wNetRxTask,
// 1543                                 "s2wNetRecvtask",
// 1544                                 APP_CFG_NET_RX_THREAD_PRIORITY,
// 1545                                 s2wNetRecvTaskStack,
// 1546                                 sizeof(s2wNetRecvTaskStack),
// 1547                                 GSN_OSAL_THREAD_INITIAL_READY);
        MOVS     R0,#+1
        STR      R0,[SP, #+12]
        MOV      R0,#+4096
        STR      R0,[SP, #+8]
        ADD      R0,R4,#+4736
        STR      R0,[SP, #+4]
        MOVS     R0,#+10
        LDR      R1,[R5, #+0]
        ADR.W    R3,`?<Constant "s2wNetRecvtask">`
        STR      R0,[SP, #+0]
        ADD      R2,R1,#+26624
        ADDS     R2,R2,#+220
        ADR.W    R0,AppS2wHal_NetRecvTask
          CFI FunCall GsnOsal_ThreadCreate
        BL       GsnOsal_ThreadCreate
// 1548 
// 1549 }
        POP      {R0-R6,PC}       ;; return
          CFI EndBlock cfiBlock92

        SECTION `.text`:CODE:NOROOT(2)
        SECTION_TYPE SHT_PROGBITS, 0
        DATA
??DataTable58:
        DC32     s2wCidList

        SECTION `.text`:CODE:NOROOT(2)
        SECTION_TYPE SHT_PROGBITS, 0
        DATA
??DataTable58_1:
        DC32     0x186a0

        SECTION `.text`:CODE:NOROOT(2)
        SECTION_TYPE SHT_PROGBITS, 0
        DATA
??DataTable58_2:
        DC32     AppS2wHal_RxCallBack

        SECTION `.text`:CODE:NOROOT(2)
        SECTION_TYPE SHT_PROGBITS, 0
        DATA
`?<Constant "s2wNetRecvtask">`:
        DC8 "s2wNetRecvtask"
        DC8 0
// 1550 
// 1551 
// 1552 /**
// 1553  ******************************************************************
// 1554  * @ingroup S2w-Application
// 1555  * @brief s2w Data receive task.
// 1556  *    This task waits on a message queue.  The network stack callback function
// 1557  *    will, when the event that data is available on a socket is received, send a
// 1558  *    message to this message queue containing the socket descriptor.  This task
// 1559  *    will receive the data from the socket and pass it on to the Serial2WiFi
// 1560  *    core, which will output the data on the serial port.
// 1561  *
// 1562  *   The purpose of this task is to avoid doing too much work in the
// 1563  *   network stack's callback function.
// 1564  ******************************************************************/
// 1565 extern GSN_OSAL_QUEUE_T MQTT_RECEIVE_QUEUE;

        SECTION `.text`:CODE:NOROOT(2)
          CFI Block cfiBlock93 Using cfiCommon0
          CFI Function AppS2wHal_NetRecvTask
        THUMB
// 1566 VOID
// 1567 AppS2wHal_NetRecvTask(UINT32 ctx)
// 1568 {
AppS2wHal_NetRecvTask:
        PUSH     {R4-R11,LR}
          CFI R14 Frame(CFA, -4)
          CFI R11 Frame(CFA, -8)
          CFI R10 Frame(CFA, -12)
          CFI R9 Frame(CFA, -16)
          CFI R8 Frame(CFA, -20)
          CFI R7 Frame(CFA, -24)
          CFI R6 Frame(CFA, -28)
          CFI R5 Frame(CFA, -32)
          CFI R4 Frame(CFA, -36)
          CFI CFA R13+36
        SUB      SP,SP,#+92
          CFI CFA R13+128
// 1569     INT32 dataLen=0,buffOfset,totalBytesToSnd;
        MOVS     R0,#+0
        STR      R0,[SP, #+12]
// 1570     UINT8 cid,newcid,status;
// 1571     INT32 new_sd;
// 1572     struct sockaddr_in addr;
// 1573 #ifdef S2W_IPv6_SUPPORT
// 1574     struct sockaddr_in6 fromAddr;
// 1575     INT32 addrlen1 = sizeof(struct sockaddr_in6);
// 1576     S2W_IPv6ADDR_T ipv6;
// 1577 
// 1578 #endif
// 1579     INT32 addrlen = sizeof(struct sockaddr_in);//, ret;
// 1580     
// 1581     UINT16 port;
// 1582     S2W_IPADDR_T ip;
// 1583     S2W_MSG_T recvMsg;
// 1584     UINT8 *rxDataBuf;
// 1585     INT32 semStat;
// 1586     UINT32 sentLen=0;
// 1587 
// 1588     //UINT8 status, *rcvBuf = NULL;
// 1589     //UINT32 rcvLen;
// 1590     INT32 ret;
// 1591 #ifdef S2W_THROUGHPUT_TEST                       	
// 1592 	UINT32 *seqNo;	
// 1593 	GSN_SYSTEM_TIME_T endTime,totalTime;	
// 1594 #endif	
// 1595 #ifdef S2W_HTTPC_SUPPORT
// 1596     ttHttpcConEntryPtr      conEntryPtr;
// 1597 #ifndef S2W_IP2WIFI_SUPPORT
// 1598 #ifdef S2W_HTTPS_SUPPORT
// 1599 
// 1600     UINT8 *rcvBuf = NULL;
// 1601     UINT32 rcvLen;
// 1602 #endif
// 1603 #endif
// 1604 #endif
// 1605     //INT32 semStat;
// 1606 	GSN_STATUS sslRet=GSN_FAILURE;
// 1607 #ifndef S2W_IP2WIFI_SUPPORT
// 1608     INT32 sslDataRxTimeout=5;
        MOV      R9,#+5
        MOVS     R0,#+16
        STR      R0,[SP, #+48]
        MOVS     R0,#+0
        STR      R0,[SP, #+40]
        MOV      R0,#-2147483648
        STR      R0,[SP, #+36]
        B.N      ??AppS2wHal_NetRecvTask_0
// 1609 #endif
// 1610     UINT8 socketRecvLoopCount=0;
// 1611 	
// 1612     while (1)
// 1613 
// 1614     {
// 1615         /* Task done with job, stop monitoring */
// 1616         /*GsnSq_TaskMonitorEnd( APP_SQ_NET_RX_TASK_ID);*/
// 1617 
// 1618         GsnOsal_QueueGet(&s2wNetQueue, (UINT8 *)&recvMsg, GSN_OSAL_WAIT_FOREVER);
// 1619         /* Task starting to process a job, start monitoring */
// 1620         switch (recvMsg.msgType)
// 1621         {
// 1622 			case S2W_RECV_TYPE_SOCK_DATA_DISCONNECT:
// 1623             case S2W_RECV_TYPE_SOCKET:
// 1624             {
// 1625                 cid = AppS2wHal_CidFind(recvMsg.rData.dataSock);
// 1626                 if (cid == INVALID_CID)
// 1627                 {
// 1628                 	#ifdef S2W_SEPARATE_NET_RX_TASK
// 1629                     	continue;
// 1630 					#else
// 1631 						break;
// 1632 					#endif /*S2W_SEPARATE_NET_RX_TASK*/
// 1633                 }
// 1634                 S2W_ASSERT(s2wCidList[cid].conType != 0);
// 1635 
// 1636 					INT32 intrStatus;
// 1637 
// 1638 					intrStatus = GsnOsal_IntrDisable();
// 1639 					s2wCidList[cid].s2wSockDataPending = 0;
// 1640 					/*re-enable all interrupts */
// 1641                     GsnOsal_IntrEnable(intrStatus );
// 1642                     socketRecvLoopCount=0;
// 1643                 do
// 1644                 {
// 1645                     socketRecvLoopCount++;
// 1646                     GsnSq_TaskMonitorStart(APP_CFG_SQ_NETRX_TASK_ID, cid);
// 1647                     if (s2wCidList[cid].conType == UDP)
// 1648                     {
// 1649 #ifdef S2W_IPv6_SUPPORT                              
// 1650                       if(s2wCidList[cid].addrType & ADDR_TYPE_IPv6)
// 1651                         dataLen = recvfrom(recvMsg.rData.dataSock,(char *)s2wRxBuf,sizeof(s2wRxBuf), 0,(struct sockaddr *) &fromAddr, &addrlen1);
// 1652                       else
// 1653 #endif //S2W_IPv6_SUPPORT
// 1654 #if defined(S2W_DTLS_CLIENT_SUPPORT)
// 1655               			if (s2wCidList[cid].sslflag == TRUE /*&& (dataLen > 0)*/)
// 1656                         {
// 1657                             dataLen = sizeof(s2wRxBuf);
// 1658                             addrlen = sizeof(struct sockaddr_in);
// 1659               			    GsnDtls_Receive( (GSN_DTLS_CONN_T *)s2wCidList[cid].ssl.sslConn,
// 1660               				    /*rxDataBuf*/s2wRxBuf, (UINT32*)&dataLen, 0/*MSG_DONTWAIT*/,
// 1661               				    (struct sockaddr *)&addr, &addrlen );
// 1662               			}
// 1663               			else
// 1664 #endif
// 1665                         dataLen = recvfrom(recvMsg.rData.dataSock, (char *)s2wRxBuf,
// 1666                                   sizeof(s2wRxBuf), 0,
// 1667                                   (struct sockaddr *)&addr, &addrlen);
// 1668 
// 1669                         if (dataLen > 0)
// 1670                         {
// 1671                             if( s2wCidList[cid].conMode == S2W_NETDATA_MODE_SERVER)
// 1672                             {
// 1673 #ifdef S2W_IPv6_SUPPORT                              
// 1674                               if(s2wCidList[cid].addrType & ADDR_TYPE_IPv6)
// 1675                               {
// 1676                                 //port = ntohs(fromAddr.sin6_port);
// 1677                                 port = htons(fromAddr.sin6_port);
// 1678                                 memcpy(ipv6,fromAddr.sin6_addr._S6_un._S6_u32,sizeof(ipv6));
// 1679                                 GSN_IPv6_CHANGE_ENDIAN((UINT32 *)ipv6);
// 1680                               }
// 1681                               else
// 1682 #endif //S2W_IPv6_SUPPORT                                
// 1683                               {                                
// 1684                                 port = htons(addr.sin_port);
// 1685                                 memcpy(ip, &(addr.sin_addr.s_addr), sizeof(ip));
// 1686                                 *(ULONG*)ip = htonl(*(ULONG*)ip);
// 1687                               }
// 1688                             }
// 1689                             else  /* Client  */
// 1690                             {
// 1691 #ifdef S2W_IPv6_SUPPORT
// 1692                               if(s2wCidList[cid].addrType & ADDR_TYPE_IPv6)  /* IPv6 */
// 1693                               {
// 1694                                 //if(!memcmp(s2wCidList[cid].remoteIpv6,fromAddr.sin6_addr._S6_un._S6_u32,sizeof(fromAddr.sin6_addr._S6_un._S6_u32)))
// 1695                                 {
// 1696                                   //port = ntohs(fromAddr.sin6_port);
// 1697                                   port = htons(fromAddr.sin6_port);
// 1698                                   memcpy(ipv6,fromAddr.sin6_addr._S6_un._S6_u32,sizeof(ipv6));
// 1699                                   GSN_IPv6_CHANGE_ENDIAN(ipv6);
// 1700                                 }
// 1701                                                                 
// 1702                               }
// 1703                               else 
// 1704                               
// 1705 #endif  //S2W_IPv6_SUPPORT
// 1706                               {
// 1707 
// 1708                                     //port = ntohs(addr.sin_port);
// 1709                                 port = 0;
??AppS2wHal_NetRecvTask_1:
        MOVS     R4,#+0
// 1710                                     //memcpy(ip, &(addr.sin_addr.s_addr), sizeof(ip));
// 1711                                     //*(ULONG*)ip = htonl(*(ULONG*)ip);
// 1712                                 *(ULONG*)ip=0;
        STR      R4,[SP, #+8]
// 1713                                 }
// 1714 
// 1715                               }
// 1716                             }
// 1717                         }
// 1718                     else
// 1719                     {
// 1720 #ifndef S2W_IP2WIFI_SUPPORT
// 1721                         /*dataLen = recv(recvMsg.rData.dataSock, (char *)s2wRxBuf,
// 1722                         sizeof(s2wRxBuf), MSG_DONTWAIT);*/
// 1723                         port = 0;
// 1724 
// 1725                         if (s2wCidList[cid].sslflag == TRUE /*&& (dataLen > 0)*/)
// 1726                         {
// 1727 #if defined(S2W_SSL_CLIENT_SUPPORT) || defined(S2W_SSL_SERVER_SUPPORT)
// 1728 //#if 0
// 1729                             s2wCidList[cid].ssl.sslConn->sslState = GSN_SSL_STATE_INIT;
// 1730 #ifdef S2W_SSL_SERVER_SUPPORT
// 1731 							if(TRUE == s2wCidList[cid].sslRemoteCliConctng)
// 1732 							{
// 1733 								/* a Remote client is setting up the ssl connection with tcp server.
// 1734 								  ssl connenction is done in WDD task context*/
// 1735 								//UINT32 msg;
// 1736 								GSN_SSL_RECV_PARAMS_T sslRecvParams;
// 1737 								sslRecvParams.pSslConn = s2wCidList[cid].ssl.sslConn;
// 1738 								sslRecvParams.sockDes = s2wCidList[cid].sd;
// 1739 								sslRecvParams.rxDataBuf = &rxDataBuf;
// 1740 								sslRecvParams.rxDataLen = (UINT32 *)&dataLen;
// 1741 								sslRecvParams.timeOut = 5;
// 1742 								//GsnOsal_SemCreate(&s2wCidList[cid].s2wSslRecvInProgress, 0);
// 1743 								s2wCidList[cid].pSslRecvParams = &sslRecvParams;
// 1744 								//msg = (S2W_MOD_NOTIF_CONN_START + cid);
// 1745 								//GsnMsgHandler_Post(s2wappMainTaskCtxt->pMsgHdlrExecInWddTsk, &msg);
// 1746 								//GsnOsal_SemAcquire(&s2wCidList[cid].s2wSslRecvInProgress,GSN_OSAL_WAIT_FOREVER);
// 1747 								ret = s2wCidList[cid].recvStatus;
// 1748 								//GsnOsal_SemDelete(&s2wCidList[cid].s2wSslRecvInProgress);
// 1749 								port = htons(s2wCidList[cid].remotePort);
// 1750 								memcpy(ip, &(s2wCidList[cid].remoteIp), sizeof(ip));
// 1751 								*(UINT32*)ip = htonl(*(UINT32*)ip);
// 1752 								ret = AppS2wProcess_NetAccept(s2wCidList[cid].serverCid,
// 1753 															  cid, ip,port);
// 1754 						        if (ret != S2W_SUCCESS)
// 1755 						        {
// 1756 						            soc_close(s2wCidList[cid].sd);
// 1757 						            return;
// 1758 						        }
// 1759 #if 1
// 1760                             	ret = GsnSsl_DataReceive(s2wCidList[cid].ssl.sslConn,
// 1761                                                          s2wCidList[cid].sd,
// 1762                                                          &rxDataBuf,
// 1763                                                          (UINT32 *)&dataLen,
// 1764                                                          5);
// 1765 #endif
// 1766 								s2wCidList[cid].sslRemoteCliConctng = FALSE;
// 1767 							}
// 1768 							else
// 1769 #endif
// 1770 							{
// 1771 								if(0 == sslDataRxTimeout)
// 1772 								{
// 1773 									/* if the timeout is zero, make the socket as non blocking*/
// 1774 									fcntl(s2wCidList[cid].sd, F_SETFL, O_NONBLOCK);
// 1775 								}
// 1776                                 
// 1777                             	sslRet = GsnSsl_DataReceive(s2wCidList[cid].ssl.sslConn,
// 1778                                                          s2wCidList[cid].sd,
// 1779                                                          &rxDataBuf,
// 1780                                                          (UINT32 *)&dataLen,
// 1781                                                          sslDataRxTimeout);
// 1782                                                    
// 1783 #ifdef THINGPLUS
// 1784 								if(rxDataBuf[0] == 0x20 || rxDataBuf[0] == 0x40 || rxDataBuf[0] == 0x50 || rxDataBuf[0] == 0x70 || rxDataBuf[0] == 0x90 || rxDataBuf[0] == 0xB0 || rxDataBuf[0] == 0xD0)
// 1785 								{
// 1786                                  
// 1787 		
// 1788 								  S2w_Printf("\r\n Receive Data rxDataBuf : %x %x %x %x",rxDataBuf[0],rxDataBuf[1],rxDataBuf[2],rxDataBuf[3]);
// 1789 								  S2w_Printf("\r\n QUEUE COUNT 1 : %d",MQTT_RECEIVE_QUEUE.tx_queue_available_storage);
// 1790 								  status = tx_queue_send(&MQTT_RECEIVE_QUEUE, rxDataBuf, TX_NO_WAIT);
// 1791 								  
// 1792 								}
// 1793 #endif
// 1794 								if(0 == sslDataRxTimeout)
// 1795 								{
// 1796 									/*restore back to blocking*/
// 1797 									fcntl(s2wCidList[cid].sd, F_SETFL, 0);
// 1798 								}
// 1799 							}
// 1800                             if(sslRet != GSN_SUCCESS)
// 1801                             {/*Error!*/
// 1802                             	dataLen = 0;/*Need to set explicitely as DataReceive() does not do so*/
// 1803                             }
// 1804 							sslDataRxTimeout=1;
// 1805 #endif
// 1806                         }
// 1807                         else if(s2wCidList[cid].httpflag ==  1)
// 1808                         { /* This section should be executed when http send not in progress.
// 1809                              This is ensured by opInProgress semophore */
// 1810 #ifdef S2W_HTTPS_SUPPORT
// 1811                             conEntryPtr = (ttHttpcConEntryPtr)s2wCidList[cid].pHttpData->pHttpHandle;
// 1812                             semStat = GsnOsal_SemAcquire(&s2wCidList[cid].pHttpData->opInProgress, GSN_OSAL_NO_WAIT);
// 1813                             if((semStat == GSN_OSAL_SUCCESS) && (conEntryPtr->hconHttpType == GSN_HTTPS))
// 1814                             {
// 1815                                 /* http send not in progress. Docode the data recieved */
// 1816                                 ret = GsnHttps_DataReceive(conEntryPtr->hConSsl, s2wCidList[cid].sd, &rcvBuf, &rcvLen, 5);
// 1817                                 if(rcvBuf != NULL)
// 1818                                 {
// 1819                                     GsnSsl_Free(rcvBuf);
// 1820                                 }
// 1821                                 if(ret == GSN_SSL_CLOSE_ALERT)
// 1822                                 {
// 1823                                     /* Recieved data is a Close alert. Send the alert back to server */
// 1824                                     GsnHttp_Alert(s2wCidList[cid].pHttpData->pHttpHandle);
// 1825 
// 1826                                 }
// 1827 
// 1828                             }
// 1829                             dataLen = 0;
// 1830                             if(semStat == GSN_OSAL_SUCCESS)
// 1831                             {
// 1832                                 GsnOsal_SemRelease(&s2wCidList[cid].pHttpData->opInProgress);
// 1833                             }
// 1834 #endif
// 1835                         }
// 1836 
// 1837                         else
// 1838                         {
// 1839                           
// 1840 #ifdef S2W_IPv6_SUPPORT
// 1841                           if(s2wCidList[cid].addrType & ADDR_TYPE_IPv6)
// 1842                             dataLen = recv(recvMsg.rData.dataSock, (char *)s2wRxBuf,sizeof(s2wRxBuf), 0);
// 1843                           else
// 1844 #endif //S2W_IPv6_SUPPORT 
// 1845 						  {
// 1846                             dataLen = recv(recvMsg.rData.dataSock, (char *)s2wRxBuf, sizeof(s2wRxBuf), 0);
// 1847 						  }
// 1848                         }
// 1849 #endif
// 1850                     }
// 1851                     if (dataLen <= 0)
// 1852                     {
// 1853                         S2w_Debug("Data len: %d\r\n", dataLen);
// 1854 						if(s2wCidList[cid].sslflag == TRUE && (sslRet == GSN_SUCCESS))
// 1855 							dataLen=1;
// 1856                     }
// 1857                     else
// 1858                     {
// 1859                         if((s2wCidList[cid].sslflag == TRUE) && (s2wCidList[cid].conType == TCP))
??AppS2wHal_NetRecvTask_2:
        BL       ?Subroutine31
??CrossCallReturnLabel_78:
        ITTTT    EQ 
        LDREQ    R0,[SP, #+32]
        LDREQ.W  R1,??DataTable66
        LDRBEQ   R0,[R0, R1]
        CMPEQ    R0,#+2
        BNE.W    ??AppS2wHal_NetRecvTask_3
// 1860                         {
// 1861                         	totalBytesToSnd = dataLen;
        LDR      R10,[SP, #+12]
// 1862                         	buffOfset=0;
        MOV      R11,#+0
// 1863                        		while(totalBytesToSnd)
// 1864                        		{
// 1865                        			GsnSq_TaskMonitorStop( APP_CFG_SQ_NETRX_TASK_ID);
??AppS2wHal_NetRecvTask_4:
        MOVS     R0,#+9
          CFI FunCall GsnSq_TaskMonitorStop
        BL       GsnSq_TaskMonitorStop
// 1866 								GsnSq_TaskMonitorStart(APP_CFG_SQ_NETRX_TASK_ID, cid);
        MOV      R1,R8
        MOVS     R0,#+9
          CFI FunCall GsnSq_TaskMonitorStart
        BL       GsnSq_TaskMonitorStart
// 1867 								sentLen =totalBytesToSnd >= S2W_RX_BUF_SIZE? S2W_RX_BUF_SIZE:totalBytesToSnd;
        MOVW     R0,#+1500
        CMP      R10,R0
        ITE      GE 
        STRGE    R0,[SP, #+4]
        STRLT    R10,[SP, #+4]
        B.N      ??AppS2wHal_NetRecvTask_5
??AppS2wHal_NetRecvTask_6:
        LDRB     R0,[R5, #+44]
        MOVS     R4,#+0
        CMP      R0,#+1
        BNE.N    ??AppS2wHal_NetRecvTask_7
        LDR      R0,[R7, #+36]
        STRH     R4,[R0, #+16]
        LDRB     R0,[R6, #+1]
        CMP      R0,#+1
        BNE.N    ??AppS2wHal_NetRecvTask_8
        LDR      R0,[R7, #+36]
        STR      R0,[SP, #+52]
        MOVS     R2,#+4
        LDR      R0,[R7, #+24]
        STR      R0,[SP, #+56]
        ADD      R0,SP,#+28
        STR      R0,[SP, #+60]
        ADD      R0,SP,#+12
        STR      R0,[SP, #+64]
        MOVS     R0,#+5
        STR      R0,[SP, #+68]
        ADD      R0,SP,#+52
        STR      R0,[R5, #+272]
        LDRH     R0,[R5, #+4]
        LSLS     R1,R0,#+8
        ORR      R4,R1,R0, LSR #+8
        ADDS     R1,R5,#+6
        ADD      R0,SP,#+8
          CFI FunCall memcpy
        BL       memcpy
        BL       ?Subroutine32
??CrossCallReturnLabel_81:
        UXTH     R3,R4
        LDRB     R0,[R6, #+2]
        ADD      R2,SP,#+8
        MOV      R1,R8
          CFI FunCall AppS2wProcess_NetAccept
        BL       AppS2wProcess_NetAccept
        CBZ.N    R0,??AppS2wHal_NetRecvTask_9
        LDR      R0,[R7, #+24]
          CFI FunCall soc_close
        BL       soc_close
        ADD      SP,SP,#+92
          CFI CFA R13+36
        POP      {R4-R11,PC}      ;; return
          CFI CFA R13+128
??AppS2wHal_NetRecvTask_9:
        MOVS     R0,#+5
        STR      R0,[SP, #+0]
        ADD      R3,SP,#+12
        LDR      R1,[R7, #+24]
        LDR      R0,[R7, #+36]
        ADD      R2,SP,#+28
          CFI FunCall GsnSsl_DataReceive
        BL       GsnSsl_DataReceive
        MOVS     R0,#+0
        STRB     R0,[R6, #+1]
        B.N      ??AppS2wHal_NetRecvTask_10
??AppS2wHal_NetRecvTask_8:
        CMP      R9,#+0
        BNE.N    ??AppS2wHal_NetRecvTask_11
        MOV      R2,#+16384
        LDR      R0,[R7, #+24]
        MOVS     R1,#+4
          CFI FunCall fcntl
        BL       fcntl
??AppS2wHal_NetRecvTask_11:
        STR      R9,[SP, #+0]
        LDR      R1,[R7, #+24]
        LDR      R0,[R7, #+36]
        ADD      R3,SP,#+12
        ADD      R2,SP,#+28
          CFI FunCall GsnSsl_DataReceive
        BL       GsnSsl_DataReceive
        STR      R0,[SP, #+36]
        CMP      R9,#+0
        BNE.N    ??AppS2wHal_NetRecvTask_10
        LDR      R0,[R7, #+24]
        MOVS     R2,#+0
        MOVS     R1,#+4
          CFI FunCall fcntl
        BL       fcntl
??AppS2wHal_NetRecvTask_10:
        LDR      R0,[SP, #+36]
        CBZ.N    R0,??AppS2wHal_NetRecvTask_12
        MOVS     R0,#+0
        STR      R0,[SP, #+12]
        MOV      R9,#+1
        B.N      ??CrossCallReturnLabel_112
??AppS2wHal_NetRecvTask_12:
        MOV      R9,#+1
        B.N      ??AppS2wHal_NetRecvTask_13
??AppS2wHal_NetRecvTask_7:
        LDRB     R0,[R6, #+3]
        CMP      R0,#+1
        BNE.N    ??AppS2wHal_NetRecvTask_14
        LDR      R0,[R6, #+8]
        LDR      R10,[R0], #+48
        MOVS     R1,#+0
          CFI FunCall GsnOsal_SemAcquire
        BL       GsnOsal_SemAcquire
        CBNZ.N   R0,??AppS2wHal_NetRecvTask_15
        LDR      R0,[R10, #+188]
        CMP      R0,#+1
        BEQ.N    ??AppS2wHal_NetRecvTask_16
??AppS2wHal_NetRecvTask_17:
        STR      R4,[SP, #+12]
        BL       ?Subroutine34
??CrossCallReturnLabel_90:
        B.N      ??AppS2wHal_NetRecvTask_13
??AppS2wHal_NetRecvTask_16:
        MOVS     R0,#+5
        STR      R0,[SP, #+0]
        ADD      R3,SP,#+44
        LDR      R1,[R7, #+24]
        LDR      R0,[R10, #+184]
        ADD      R2,SP,#+40
          CFI FunCall GsnHttps_DataReceive
        BL       GsnHttps_DataReceive
        MOV      R10,R0
        LDR      R0,[SP, #+40]
        CBZ.N    R0,??AppS2wHal_NetRecvTask_18
          CFI FunCall GsnSsl_Free
        BL       GsnSsl_Free
??AppS2wHal_NetRecvTask_18:
        LDR.W    R0,??DataTable74  ;; 0xb0000600
        CMP      R10,R0
        BNE.N    ??AppS2wHal_NetRecvTask_17
        LDR      R0,[R6, #+8]
        BL       ??Subroutine41_0
??CrossCallReturnLabel_109:
        B.N      ??AppS2wHal_NetRecvTask_17
??AppS2wHal_NetRecvTask_15:
        STR      R4,[SP, #+12]
        B.N      ??AppS2wHal_NetRecvTask_19
??AppS2wHal_NetRecvTask_14:
        LDR      R0,[SP, #+20]
        LDR.W    R1,??DataTable74_1
        MOVS     R3,#+0
        MOVW     R2,#+1500
          CFI FunCall recv
        BL       recv
        STR      R0,[SP, #+12]
??AppS2wHal_NetRecvTask_13:
        LDR      R0,[SP, #+12]
        CMP      R0,#+1
        BGE.W    ??AppS2wHal_NetRecvTask_2
??AppS2wHal_NetRecvTask_19:
        BL       ?Subroutine31
??CrossCallReturnLabel_79:
        ITT      EQ 
        LDREQ    R0,[SP, #+36]
        CMPEQ    R0,#+0
        BNE.N    ??CrossCallReturnLabel_112
        MOVS     R0,#+1
        STR      R0,[SP, #+12]
        B.N      ??CrossCallReturnLabel_112
// 1868                         		AppS2wProcess_NetRx(cid, (rxDataBuf+buffOfset), sentLen, 
// 1869 														(UINT8*)ip, port);
??AppS2wHal_NetRecvTask_5:
        LDR      R0,[SP, #+28]
        LDR      R2,[SP, #+4]
        UXTH     R4,R4
        ADD      R1,R11,R0
        BL       ?Subroutine42
// 1870   								buffOfset += sentLen;
??CrossCallReturnLabel_113:
        LDR      R0,[SP, #+4]
        ADD      R11,R0,R11
// 1871 								totalBytesToSnd -= sentLen;                        		
        SUBS     R10,R10,R0
// 1872                         	}
        BNE.W    ??AppS2wHal_NetRecvTask_4
// 1873                             GsnSsl_Free(rxDataBuf);
        LDR      R0,[SP, #+28]
          CFI FunCall GsnSsl_Free
        BL       GsnSsl_Free
        B.N      ??CrossCallReturnLabel_112
// 1874                         }
??AppS2wHal_NetRecvTask_3:
        LDR.W    R0,??DataTable74_1
        LDRB     R1,[R0, #+0]
        CMP      R1,#+32
        IT       NE 
        CMPNE    R1,#+64
        BEQ.N    ??AppS2wHal_NetRecvTask_20
        CMP      R1,#+80
        IT       NE 
        CMPNE    R1,#+112
        BEQ.N    ??AppS2wHal_NetRecvTask_20
        CMP      R1,#+144
        ITT      NE 
        CMPNE    R1,#+176
        CMPNE    R1,#+208
        BNE.N    ??AppS2wHal_NetRecvTask_21
// 1875 #if defined(S2W_DTLS_CLIENT_SUPPORT)
// 1876                         else if((s2wCidList[cid].sslflag == TRUE) && (s2wCidList[cid].conType == UDP))
// 1877                         {
// 1878                             /* For DTLS client*/
// 1879                             AppS2wProcess_NetRx(cid, s2wRxBuf, dataLen, (UINT8*)ip, port);
// 1880                             dataLen = 0;
// 1881 							GsnSsl_Free(rxDataBuf);
// 1882                         }
// 1883 #endif
// 1884                         else
// 1885                         {
// 1886 #ifdef LOCAL
// 1887 							if(s2wRxBuf[0] == 0x20 || s2wRxBuf[0] == 0x40 || s2wRxBuf[0] == 0x50 || s2wRxBuf[0] == 0x70 || s2wRxBuf[0] == 0x90 || s2wRxBuf[0] == 0xB0 || s2wRxBuf[0] == 0xD0)
// 1888 							{
// 1889                                   S2w_Printf("\r\n Receive Data s2wRxBuf : %x %x %x %x",s2wRxBuf[0],s2wRxBuf[1],s2wRxBuf[2],s2wRxBuf[3]);
??AppS2wHal_NetRecvTask_20:
        LDRB     R0,[R0, #+3]
        STR      R0,[SP, #+0]
        LDR.W    R0,??DataTable74_1
        LDRB     R3,[R0, #+2]
        LDRB     R2,[R0, #+1]
        ADR.W    R0,`?<Constant "\\r\\n Receive Data s2wRx...">`
          CFI FunCall S2w_Printf
        BL       S2w_Printf
// 1890 								  GsnOsal_QueuePut(&MQTT_RECEIVE_QUEUE, s2wRxBuf);
        LDR.W    R1,??DataTable74_1
        LDR.W    R0,??DataTable75
          CFI FunCall GsnOsal_QueuePut
        BL       GsnOsal_QueuePut
// 1891 								  //status = tx_queue_send(&MQTT_RECEIVE_QUEUE, s2wRxBuf, TX_NO_WAIT);
// 1892 							}
// 1893 #endif
// 1894 #ifdef S2W_THROUGHPUT_TEST                       
// 1895                         	if(s2wCidList[cid].tpTestInProgress == 0)	
// 1896                         	{
// 1897 #endif                        	
// 1898 #ifdef S2W_IPv6_SUPPORT
// 1899                           if(s2wCidList[cid].addrType & ADDR_TYPE_IPv6)
// 1900                             AppS2wProcess_NetRx(cid, s2wRxBuf, dataLen, (UINT8*)ipv6, port);
// 1901                           else
// 1902 						  
// 1903 #endif
// 1904 						  {
// 1905                             AppS2wProcess_NetRx(cid, s2wRxBuf, dataLen, (UINT8*)ip, port);
??AppS2wHal_NetRecvTask_21:
        LDR      R2,[SP, #+12]
        LDR.W    R1,??DataTable74_1
        UXTH     R4,R4
        BL       ?Subroutine42
// 1906 						  }
// 1907 #ifdef S2W_THROUGHPUT_TEST                       
// 1908                         	}
// 1909 							else
// 1910 							{
// 1911 								if(s2wCidList[cid].stats.packetsReceived== 0)
// 1912 								{
// 1913 									s2wCidList[cid].stats.startTime = GsnSoftTmr_CurrentSystemTime();										
// 1914 								}
// 1915 								//dataPattern = (UINT32 *)&s2wRxBuf[8];		
// 1916 								if(s2wCidList[cid].conType == UDP)
// 1917 								{
// 1918 									seqNo= (UINT32 *)&s2wRxBuf[0];																
// 1919 									if(s2wCidList[cid].stats.udpNxtSeqNo  !=  *seqNo )
// 1920 										s2wCidList[cid].stats.rxErr += (*seqNo - s2wCidList[cid].stats.udpNxtSeqNo);
// 1921 									s2wCidList[cid].stats.udpNxtSeqNo =  *seqNo + 1; 
// 1922 									s2wCidList[cid].stats.packetsReceived++;
// 1923 									s2wCidList[cid].stats.bytesReceived += dataLen;										
// 1924 								}
// 1925 								else
// 1926 								{
// 1927 									s2wCidList[cid].stats.packetsReceived++;
// 1928 									s2wCidList[cid].stats.bytesReceived += dataLen;
// 1929 								}
// 1930 								if(s2wCidList[cid].testMode == 4)
// 1931 								{
// 1932 									endTime = GsnSoftTmr_CurrentSystemTime();									
// 1933 									totalTime = SYSTIME_TO_SEC(endTime - s2wCidList[cid].stats.startTime);
// 1934 									s2wCidList[cid].stats.totalTime=totalTime;
// 1935 								}
// 1936 								else if(s2wCidList[cid].bytesToReceive == s2wCidList[cid].stats.bytesReceived)
// 1937 								{
// 1938 									endTime = GsnSoftTmr_CurrentSystemTime();									
// 1939 									totalTime = SYSTIME_TO_SEC(endTime - s2wCidList[cid].stats.startTime);
// 1940 									if(s2wCidList[cid].conType == UDP)
// 1941 									{
// 1942 									    S2w_Printf("\r\n Packet Received  : %d",s2wCidList[cid].stats.packetsReceived);
// 1943 										S2w_Printf("\r\n Packet Lost      : %d",s2wCidList[cid].stats.rxErr);
// 1944 									}
// 1945 									else
// 1946 									{
// 1947 										S2w_Printf("\r\n Bytes Received   : %lld",s2wCidList[cid].stats.bytesReceived); 
// 1948 									}									
// 1949 									S2w_Printf("\r\n Total Time Taken : %lld sec",totalTime);																		
// 1950 									S2w_Printf("\r\n Throuhput        : %lld Kbps",((s2wCidList[cid].stats.bytesReceived*8)/(1024*totalTime)));										
// 1951 									s2wCidList[cid].tpTestInProgress=0;										
// 1952 									if(s2wappMainTaskCtxt->serialDeviceId == S2W_PORT_FS_SPI)
// 1953 									{
// 1954 									    s2wSpiFs_Flush();
// 1955                                     }
// 1956 								}
// 1957                         	}
// 1958 #endif                          						
// 1959                         }
// 1960                     }
// 1961                     GsnSq_TaskMonitorStop( APP_CFG_SQ_NETRX_TASK_ID);
??CrossCallReturnLabel_112:
        MOVS     R0,#+9
          CFI FunCall GsnSq_TaskMonitorStop
        BL       GsnSq_TaskMonitorStop
// 1962                 }while((dataLen>0) && (socketRecvLoopCount<s2wCurrent.socRdCnt)); // max three packets read at a time, if data pending schedule the
        LDR      R0,[SP, #+12]
        CMP      R0,#+1
        BLT.W    ??AppS2wHal_NetRecvTask_22
        LDR.W    R1,??DataTable65
        LDRB     R0,[SP, #+16]
        LDRB     R1,[R1, #+960]
        CMP      R0,R1
        BCC.N    ??AppS2wHal_NetRecvTask_23
        ADD      R0,R5,#+144
        LDRB     R0,[R0, #+1]
        CMP      R0,#+0
        BNE.N    ??AppS2wHal_NetRecvTask_22
// 1963                                                                 // task again so that data from other socket not get delayed.
// 1964 
// 1965                 // post a msg to its own
// 1966                 if((dataLen > 0) && (s2wCidList[cid].s2wSockDataPending == 0))
// 1967                 {
// 1968 
// 1969                     intrStatus = GsnOsal_IntrDisable();
          CFI FunCall GsnOsal_IntrDisable
        BL       GsnOsal_IntrDisable
// 1970                     s2wCidList[cid].s2wSockDataPending = 1;
        ADD      R1,R5,#+144
        MOVS     R2,#+1
        STRB     R2,[R1, #+1]
// 1971                     /*re-enable all interrupts */
// 1972                     GsnOsal_IntrEnable(intrStatus );
          CFI FunCall GsnOsal_IntrEnable
        BL       GsnOsal_IntrEnable
// 1973                     GsnOsal_QueuePut(&s2wNetQueue,(UINT8*)&recvMsg);
// 1974                     break;
// 1975 			    }
// 1976 
// 1977                 if(S2W_RECV_TYPE_SOCK_DATA_DISCONNECT == recvMsg.msgType)
// 1978 
// 1979                 {
// 1980 #if defined(S2W_SSL_CLIENT_SUPPORT) || defined(S2W_SSL_SERVER_SUPPORT)
// 1981 //#if 0
// 1982                     if (s2wCidList[cid].sslflag == TRUE)
// 1983                     {
// 1984                         if(s2wCidList[cid].s2wUsrCloseFlag)
// 1985                         {
// 1986                             /* stop the http close waiting timer */
// 1987 							if(GSN_SUCCESS == AppS2wHal_TimerStop(&s2wCidList[cid].s2wUserCloseTimer))
// 1988 							{
// 1989 							  	/* release the semaphore so the close can finish */
// 1990 								GsnOsal_SemRelease(&s2wCidList[cid].s2wUserCloseInProgress);
// 1991 							}
// 1992 
// 1993 							#ifdef S2W_SEPARATE_NET_RX_TASK
// 1994                             	continue;/*!! Donot remove this*/
// 1995 							#else
// 1996 								break; /*!! Do not remove this*/
// 1997 							#endif/*S2W_SEPARATE_NET_RX_TASK*/
// 1998                         }
// 1999 						/* Close is not initialted by user. s2wCidList[cid].s2wUsrCloseFlag = 0
// 2000 						That's why we are here*/
// 2001 					   	GsnSsl_Alert(s2wCidList[cid].ssl.sslConn, s2wCidList[cid].sd);
// 2002 
// 2003                     }
// 2004 #else
// 2005 					if(0)
// 2006 					{
// 2007                     }
// 2008 #endif      					
// 2009 #ifdef S2W_HTTPC_SUPPORT
// 2010 					else if(s2wCidList[cid].httpflag && s2wCidList[cid].pHttpData)
// 2011 					{
// 2012 
// 2013 #ifdef S2W_HTTPS_SUPPORT
// 2014                         conEntryPtr = (ttHttpcConEntryPtr)s2wCidList[cid].pHttpData->pHttpHandle;
// 2015 						if(conEntryPtr->hconHttpType == GSN_HTTPS && s2wCidList[cid].s2wUsrCloseFlag)
// 2016 						{
// 2017 							/* stop the http close waiting timer */
// 2018 							if(GSN_SUCCESS == AppS2wHal_TimerStop(&s2wCidList[cid].s2wUserCloseTimer))
// 2019 							{
// 2020 								/* release the semaphore so the close can finish */
// 2021 								GsnOsal_SemRelease(&s2wCidList[cid].s2wUserCloseInProgress);
// 2022 							}
// 2023 
// 2024 							#ifdef S2W_SEPARATE_NET_RX_TASK
// 2025                             	continue;
// 2026 							#else
// 2027 								break;
// 2028 							#endif/*S2W_SEPARATE_NET_RX_TASK*/
// 2029 						}
// 2030 						/* Close is not initialted by user. s2wCidList[cid].s2wUsrCloseFlag = 0
// 2031 						That's why we are here*/
// 2032 						if(conEntryPtr->hconHttpType == GSN_HTTPS)
// 2033 						{
// 2034 							GsnOsal_SemAcquire(&s2wCidList[cid].pHttpData->opInProgress, GSN_OSAL_WAIT_FOREVER);
// 2035 							GsnSsl_Alert(s2wCidList[cid].ssl.sslConn, s2wCidList[cid].sd);
// 2036 							GsnOsal_SemRelease(&s2wCidList[cid].pHttpData->opInProgress);
// 2037 						}
// 2038 #endif /*S2W_HTTPS_SUPPORT*/
// 2039 						if(s2wCidList[cid].httpflag && s2wCidList[cid].pHttpData && s2wCidList[cid].pHttpData->httpType == GSN_HTTP)
// 2040 						{
// 2041 							GsnOsal_SemAcquire(&s2wCidList[cid].pHttpData->opInProgress, GSN_OSAL_WAIT_FOREVER);
// 2042 							/* opInProgress semaphore will be deleted in AppS2wHal_NetClose, release it here */
// 2043 							GsnOsal_SemRelease(&s2wCidList[cid].pHttpData->opInProgress);
// 2044 						}
// 2045 					}
// 2046 
// 2047 #endif
// 2048 
// 2049 					status = AppS2wHal_NetClose(cid);
// 2050 					if(s2wCidList[cid].s2wUsrCloseFlag == 0 && status == S2W_SUCCESS)
// 2051 					{
// 2052 /* Check the L2 connection exists
// 2053     Bug FIX 5083 - L2 disconnection while getting the data throws ERROR:SOCKET FAILURE and Disassociation Event
// 2054 */						
// 2055 						if(TRUE != GsnWdd_AssocStatusGet(&s2wappMainTaskCtxt->if0.wddCtx))
// 2056 						{
// 2057 							break;
// 2058 						}
// 2059 											
// 2060     	                GsnOsal_SemAcquire(&s2wSyncSemID, GSN_OSAL_WAIT_FOREVER);
// 2061 #ifdef S2W_ASYNC_MSG
// 2062 						if(s2wCurrent.asyncMsgFormat)
// 2063 						{
// 2064 							AppS2wProcess_AsyncStatusNotify(S2W_ASYNC_ECIDCLOSE, cid);
// 2065 						}
// 2066 						else
// 2067 #endif
// 2068                    		{
// 2069                         	AppS2wProcess_StatusNotify(S2W_ECIDCLOSE, cid);
// 2070                     	}
// 2071 	                    GsnOsal_SemRelease(&s2wSyncSemID);
// 2072 					}
// 2073                     if(((s2wCurrent.ncmAutoLvl != 0)  && (cid == s2wCurrent.ncmAutoCid) && (s2wCurrent.ncmAutoMgr == 1))
// 2074                        || profile_params.autoConnect )
// 2075                     {
// 2076                         UINT32 message = APP_EVENT_NCM_L4CONNECT;
// 2077                         (s2wappMainTaskNotifier)(message, s2wappMainTaskCtxt);
// 2078                     }
// 2079                 }
// 2080             }
// 2081             break;
// 2082 
// 2083 #ifndef S2W_IP2WIFI_SUPPORT
// 2084             case S2W_RECV_TYPE_SOCK_ERROR:
// 2085 
// 2086                 cid = AppS2wHal_CidFind(recvMsg.rData.dataSock);
// 2087                 if (cid == INVALID_CID)
// 2088                 {
// 2089                 	#ifdef S2W_SEPARATE_NET_RX_TASK
// 2090                     	continue;
// 2091 					#else
// 2092 						break;
// 2093 					#endif /*S2W_SEPARATE_NET_RX_TASK*/
// 2094                 }
// 2095                 // if data is pending on that socket defer the socket close
// 2096                 if(s2wCidList[cid].s2wSockDataPending)
// 2097                 {
// 2098 					GsnOsal_QueuePut(&s2wNetQueue,(UINT8*)&recvMsg);
// 2099 					break;
// 2100 				}
// 2101 #if defined(S2W_SSL_CLIENT_SUPPORT) || defined(S2W_SSL_SERVER_SUPPORT)
// 2102 //#if 0
// 2103 				if (s2wCidList[cid].sslflag == TRUE)
// 2104                 {
// 2105                      if(s2wCidList[cid].s2wUsrCloseFlag)
// 2106                      {
// 2107                         /* stop the http close waiting timer */
// 2108 						if(GSN_SUCCESS == AppS2wHal_TimerStop(&s2wCidList[cid].s2wUserCloseTimer))
// 2109 						{
// 2110 						  	/* release the semaphore so the close can finish */
// 2111 							GsnOsal_SemRelease(&s2wCidList[cid].s2wUserCloseInProgress);
// 2112 						}
// 2113                           #ifdef S2W_SEPARATE_NET_RX_TASK
// 2114                           	continue;
// 2115 						  #else
// 2116 						  	break;
// 2117 						  #endif /*S2W_SEPARATE_NET_RX_TASK*/
// 2118                      }
// 2119                 }
// 2120 #ifdef S2W_HTTPS_SUPPORT
// 2121 				else if(s2wCidList[cid].httpflag ==  1 && s2wCidList[cid].pHttpData)
// 2122                 {
// 2123 					conEntryPtr = (ttHttpcConEntryPtr)s2wCidList[cid].pHttpData->pHttpHandle;
// 2124 
// 2125 					if(conEntryPtr->hconHttpType == GSN_HTTPS && s2wCidList[cid].s2wUsrCloseFlag)
// 2126 					{
// 2127 						/* stop the http close waiting timer */
// 2128 						if(GSN_SUCCESS == AppS2wHal_TimerStop(&s2wCidList[cid].s2wUserCloseTimer))
// 2129 						{
// 2130 						  	/* release the semaphore so the close can finish */
// 2131 							GsnOsal_SemRelease(&s2wCidList[cid].s2wUserCloseInProgress);
// 2132 						}
// 2133 						#ifdef S2W_SEPARATE_NET_RX_TASK
// 2134 							continue; /*!! Donot remove this*/
// 2135 						#else
// 2136 							break; /*!! Donot remove this*/
// 2137 						#endif /*S2W_SEPARATE_NET_RX_TASK*/
// 2138 					}
// 2139                 }
// 2140 #endif /*GSN_HTTPS_SUPPORT*/
// 2141 #endif
// 2142     			AppS2wHal_NetClose(cid);
// 2143 				/* Check the L2 connection exists
// 2144 					Bug FIX 5083 - L2 disconnection while getting the data throws ERROR:SOCKET FAILURE and Disassociation Event
// 2145 				*/						
// 2146 				if(TRUE != GsnWdd_AssocStatusGet(&s2wappMainTaskCtxt->if0.wddCtx))
// 2147 				{
// 2148 					break;
// 2149 				}
// 2150 
// 2151 
// 2152                 GsnOsal_SemAcquire(&s2wSyncSemID, GSN_OSAL_WAIT_FOREVER);
// 2153 #ifdef S2W_UART_ENABLE
// 2154                 //while(0 == S2wUart_TxStatusGet());
// 2155 #endif
// 2156                 if((!s2wAutoConnState ) ||(( s2wState == S2W_STATE_CMD) && (s2wIsAutoconnected)))
// 2157                 {
// 2158 #ifdef S2W_ASYNC_MSG                
// 2159 					if(s2wCurrent.asyncMsgFormat)
// 2160 					{
// 2161 						AppS2wProcess_AsyncStatusNotify(S2W_ASYNC_SOCKFAILURE, cid);
// 2162 					}
// 2163 					else
// 2164 #endif
// 2165 	                {
// 2166 	                    AppS2wProcess_StatusNotify(S2W_SOCKFAILURE, cid);
// 2167 	                }
// 2168 			    }
// 2169 #ifdef S2W_UART_ENABLE
// 2170                 // while(0 == S2wUart_TxStatusGet());
// 2171 #endif
// 2172                  GsnOsal_SemRelease(&s2wSyncSemID);
// 2173              
// 2174                 if(((s2wCurrent.ncmAutoLvl != 0)  && (cid == s2wCurrent.ncmAutoCid) && (s2wCurrent.ncmAutoMgr == 1))
// 2175                    || profile_params.autoConnect )
// 2176                 {
// 2177                     UINT32 message = APP_EVENT_NCM_L4CONNECT;
// 2178                     //S2w_Printf("\r\n Rclose-connect back\r\n");
// 2179                     (s2wappMainTaskNotifier)(message, s2wappMainTaskCtxt);
// 2180                 }
// 2181             break;
// 2182 
// 2183             case S2W_RECV_TYPE_SOCK_DISCONNECT:
// 2184 
// 2185                 cid = AppS2wHal_CidFind(recvMsg.rData.dataSock);
// 2186                 if (cid == INVALID_CID)
// 2187                 {
// 2188                 	#ifdef S2W_SEPARATE_NET_RX_TASK
// 2189                     	continue;
// 2190 					#else
// 2191 						break;
// 2192 					#endif /*S2W_SEPARATE_NET_RX_TASK*/
// 2193                 }
// 2194                 // if data is pending on that socket defer the socket close
// 2195                 if(s2wCidList[cid].s2wSockDataPending)
// 2196                 {
// 2197 					GsnOsal_QueuePut(&s2wNetQueue,(UINT8*)&recvMsg);
??AppS2wHal_NetRecvTask_24:
        ADD      R1,SP,#+20
        LDR.W    R0,??DataTable77
          CFI FunCall GsnOsal_QueuePut
        BL       GsnOsal_QueuePut
// 2198 					break;
??AppS2wHal_NetRecvTask_0:
        LDR.W    R0,??DataTable77
        MOV      R2,#-1
        ADD      R1,SP,#+20
// 2199 				}
          CFI FunCall _tx_queue_receive
        BL       _tx_queue_receive
        LDRSH    R0,[SP, #+26]
        CMP      R0,#+47
        BEQ.N    ??AppS2wHal_NetRecvTask_25
        CMP      R0,#+49
        BEQ.W    ??AppS2wHal_NetRecvTask_26
        CMP      R0,#+50
        BEQ.W    ??AppS2wHal_NetRecvTask_27
        CMP      R0,#+51
        BEQ.W    ??AppS2wHal_NetRecvTask_28
        CMP      R0,#+52
        BEQ.W    ??AppS2wHal_NetRecvTask_29
        CMP      R0,#+53
        BEQ.N    ??AppS2wHal_NetRecvTask_25
        CMP      R0,#+54
        BEQ.W    ??AppS2wHal_NetRecvTask_30
        B.N      ??AppS2wHal_NetRecvTask_0
??AppS2wHal_NetRecvTask_25:
        BL       ?Subroutine37
??CrossCallReturnLabel_99:
        MOV      R8,R0
        CMP      R8,#+255
        BEQ.N    ??AppS2wHal_NetRecvTask_0
          CFI FunCall GsnOsal_IntrDisable
        BL       GsnOsal_IntrDisable
        MOV      R1,#+296
        MUL      R1,R1,R8
        STR      R1,[SP, #+32]
        LDR.W    R2,??DataTable66
        ADDS     R5,R1,R2
        ADD      R1,R5,#+144
        MOVS     R2,#+0
        STRB     R2,[R1, #+1]
          CFI FunCall GsnOsal_IntrEnable
        BL       GsnOsal_IntrEnable
        MOVS     R0,#+0
        STRB     R0,[SP, #+16]
        ADDS     R7,R5,#+4
        ADD      R6,R5,#+44
??AppS2wHal_NetRecvTask_23:
        LDRB     R0,[SP, #+16]
        ADDS     R0,R0,#+1
        STRB     R0,[SP, #+16]
        MOV      R1,R8
        MOVS     R0,#+9
          CFI FunCall GsnSq_TaskMonitorStart
        BL       GsnSq_TaskMonitorStart
        LDR      R0,[SP, #+32]
        LDR.W    R1,??DataTable66
        LDRB     R0,[R0, R1]
        CMP      R0,#+1
        BNE.W    ??AppS2wHal_NetRecvTask_6
        ADD      R0,SP,#+48
        STR      R0,[SP, #+4]
        MOVS     R3,#+0
        ADD      R0,SP,#+72
        STR      R0,[SP, #+0]
        MOVW     R2,#+1500
        LDR      R0,[SP, #+20]
        LDR.W    R1,??DataTable74_1
          CFI FunCall recvfrom
        BL       recvfrom
        STR      R0,[SP, #+12]
        CMP      R0,#+1
        BLT.N    ??CrossCallReturnLabel_82
        LDRB     R0,[R5, #+1]
        CMP      R0,#+1
        BNE.W    ??AppS2wHal_NetRecvTask_1
        LDRH     R0,[SP, #+74]
        LSLS     R1,R0,#+8
        ORR      R4,R1,R0, LSR #+8
        MOVS     R2,#+4
        ADD      R1,SP,#+76
        ADD      R0,SP,#+8
          CFI FunCall memcpy
        BL       memcpy
        BL       ?Subroutine32
??CrossCallReturnLabel_82:
        B.N      ??AppS2wHal_NetRecvTask_13
??AppS2wHal_NetRecvTask_22:
        LDRSH    R0,[SP, #+26]
        CMP      R0,#+53
??AppS2wHal_NetRecvTask_31:
        BNE.N    ??AppS2wHal_NetRecvTask_0
        BL       ?Subroutine31
??CrossCallReturnLabel_80:
        BNE.N    ??AppS2wHal_NetRecvTask_32
        LDRB     R0,[R5, #+144]
        CMP      R0,#+0
        BNE.N    ??AppS2wHal_NetRecvTask_33
        LDR      R1,[R7, #+24]
        LDR      R0,[R7, #+36]
          CFI FunCall GsnSsl_Alert
        BL       GsnSsl_Alert
        B.N      ??CrossCallReturnLabel_88
??AppS2wHal_NetRecvTask_32:
        LDRB     R0,[R6, #+3]
        CMP      R0,#+0
        ITT      NE 
        LDRNE    R0,[R6, #+8]
        CMPNE    R0,#+0
        BEQ.N    ??CrossCallReturnLabel_88
        BL       ?Subroutine40
??CrossCallReturnLabel_105:
        BNE.N    ??CrossCallReturnLabel_89
        LDRB     R0,[R5, #+144]
        CMP      R0,#+0
??AppS2wHal_NetRecvTask_33:
        BNE.W    ??AppS2wHal_NetRecvTask_34
        LDR      R0,[R6, #+8]
        BL       ?Subroutine28
??CrossCallReturnLabel_72:
        LDR      R1,[R7, #+24]
        LDR      R0,[R7, #+36]
          CFI FunCall GsnSsl_Alert
        BL       GsnSsl_Alert
        BL       ?Subroutine34
??CrossCallReturnLabel_89:
        LDRB     R0,[R6, #+3]
        CMP      R0,#+0
        ITT      NE 
        LDRNE    R0,[R6, #+8]
        CMPNE    R0,#+0
        BEQ.N    ??CrossCallReturnLabel_88
        LDRB     R1,[R0, #+12]
        CBNZ.N   R1,??CrossCallReturnLabel_88
        BL       ?Subroutine28
??CrossCallReturnLabel_71:
        BL       ?Subroutine34
??CrossCallReturnLabel_88:
        MOV      R0,R8
          CFI FunCall AppS2wHal_NetClose
        BL       AppS2wHal_NetClose
        MOV      R7,R0
        LDRB     R0,[R5, #+144]
        ORRS     R0,R7,R0
        BNE.W    ??AppS2wHal_NetRecvTask_35
        BL       ?Subroutine39
??CrossCallReturnLabel_104:
        CMP      R0,#+1
        BNE.N    ??AppS2wHal_NetRecvTask_31
        BL       ?Subroutine27
??CrossCallReturnLabel_69:
        B.N      ??AppS2wHal_NetRecvTask_36
??AppS2wHal_NetRecvTask_26:
        BL       ?Subroutine37
??CrossCallReturnLabel_98:
        MOV      R8,R0
        CMP      R8,#+255
        BEQ.N    ??AppS2wHal_NetRecvTask_37
        BL       ?Subroutine14
??CrossCallReturnLabel_31:
        LDRB     R1,[R0, #+145]
        CMP      R1,#+0
        BNE.N    ??AppS2wHal_NetRecvTask_38
        LDRB     R1,[R0, #+44]
        CMP      R1,#+1
        BEQ.N    ??AppS2wHal_NetRecvTask_39
        ADD      R1,R0,#+44
        LDRB     R2,[R1, #+3]
        CMP      R2,#+1
        BNE.N    ??AppS2wHal_NetRecvTask_40
        LDR      R1,[R1, #+8]
        CBZ.N    R1,??AppS2wHal_NetRecvTask_40
        LDR      R1,[R1, #+0]
        LDR      R1,[R1, #+188]
        CMP      R1,#+1
        BNE.N    ??AppS2wHal_NetRecvTask_40
??AppS2wHal_NetRecvTask_39:
        LDRB     R1,[R0, #+144]
        CBZ.N    R1,??AppS2wHal_NetRecvTask_40
        ADDS     R0,R0,#+88
        B.N      ??AppS2wHal_NetRecvTask_41
??AppS2wHal_NetRecvTask_40:
        MOV      R0,R8
          CFI FunCall AppS2wHal_NetClose
        BL       AppS2wHal_NetClose
        BL       ?Subroutine39
??CrossCallReturnLabel_103:
        CMP      R0,#+1
        BNE.N    ??AppS2wHal_NetRecvTask_37
        BL       ?Subroutine27
??CrossCallReturnLabel_68:
        LDR.W    R0,??DataTable78
        LDRB     R0,[R0, #+0]
        CBZ.N    R0,??AppS2wHal_NetRecvTask_42
        LDR.W    R0,??DataTable78_1
        LDRB     R0,[R0, #+0]
        CMP      R0,#+0
        BNE.N    ??AppS2wHal_NetRecvTask_43
        LDR.W    R0,??DataTable78_2
        LDRB     R0,[R0, #+0]
        CMP      R0,#+0
        BEQ.N    ??AppS2wHal_NetRecvTask_43
??AppS2wHal_NetRecvTask_42:
        BL       ?Subroutine21
??CrossCallReturnLabel_47:
        IT       NE 
        MOVNE    R0,#+0
        BNE.N    ??AppS2wHal_NetRecvTask_44
        MOVS     R0,#+3
        B.N      ??AppS2wHal_NetRecvTask_45
??AppS2wHal_NetRecvTask_27:
        BL       ?Subroutine37
??CrossCallReturnLabel_97:
        MOV      R8,R0
        CMP      R8,#+255
        BEQ.N    ??AppS2wHal_NetRecvTask_37
        BL       ?Subroutine15
??CrossCallReturnLabel_33:
        MLA      R5,R0,R8,R1
        LDRB     R0,[R5, #+145]
        CMP      R0,#+0
??AppS2wHal_NetRecvTask_38:
        BNE.W    ??AppS2wHal_NetRecvTask_24
// 2200 
// 2201 #if defined(S2W_SSL_CLIENT_SUPPORT) || defined(S2W_SSL_SERVER_SUPPORT)
// 2202 //#if 0                
// 2203 				if (s2wCidList[cid].sslflag == TRUE)
        ADD      R7,R5,#+28
        LDRB     R0,[R7, #+16]
        CMP      R0,#+1
        BNE.N    ??AppS2wHal_NetRecvTask_46
// 2204                 {
// 2205                      if(s2wCidList[cid].s2wUsrCloseFlag)
        LDRB     R0,[R5, #+144]
        CBZ.N    R0,??AppS2wHal_NetRecvTask_47
// 2206                      {
// 2207 						  if(GSN_SUCCESS == AppS2wHal_TimerStop(&s2wCidList[cid].s2wUserCloseTimer))
??AppS2wHal_NetRecvTask_34:
        ADD      R0,R5,#+88
??AppS2wHal_NetRecvTask_41:
          CFI FunCall AppS2wHal_TimerStop
        BL       AppS2wHal_TimerStop
        CMP      R0,#+0
        BNE.N    ??AppS2wHal_NetRecvTask_37
        B.N      ??AppS2wHal_NetRecvTask_48
// 2208 						  {
// 2209 							GsnOsal_SemRelease(&s2wCidList[cid].s2wUserCloseInProgress);
// 2210 						  }
// 2211                           #ifdef S2W_SEPARATE_NET_RX_TASK
// 2212                           	continue;
// 2213 						  #else
// 2214 							break;
// 2215 						  #endif /*S2W_SEPARATE_NET_RX_TASK*/
// 2216                      }
// 2217  					/* Send Alert*/
// 2218         			GsnSsl_Alert(s2wCidList[cid].ssl.sslConn, s2wCidList[cid].sd);
??AppS2wHal_NetRecvTask_47:
        LDR      R1,[R5, #+28]
        LDR      R0,[R7, #+12]
          CFI FunCall GsnSsl_Alert
        BL       GsnSsl_Alert
        B.N      ??CrossCallReturnLabel_87
// 2219                 }
// 2220 #else
// 2221 				if(0)
// 2222 				{
// 2223 				}
// 2224 #endif    
// 2225 #ifdef S2W_HTTPC_SUPPORT	
// 2226 				else if(s2wCidList[cid].httpflag ==  1 && s2wCidList[cid].pHttpData)
??AppS2wHal_NetRecvTask_46:
        LDRB     R0,[R7, #+19]
        CMP      R0,#+1
        BNE.N    ??CrossCallReturnLabel_87
        LDR      R0,[R7, #+24]
        CBZ.N    R0,??CrossCallReturnLabel_87
// 2227                 {
// 2228 
// 2229 					semStat =GsnOsal_SemAcquire(&s2wCidList[cid].pHttpData->opInProgress, GSN_OSAL_WAIT_FOREVER);
        BL       ?Subroutine28
// 2230 #ifdef S2W_HTTPS_SUPPORT                
// 2231 					conEntryPtr = (ttHttpcConEntryPtr)s2wCidList[cid].pHttpData->pHttpHandle;
// 2232 					/* The remote close can along with the data so if the send acquired the semaphore then need to
// 2233 					wait here so that the close operation can be performed.
// 2234 					*/
// 2235 					if(conEntryPtr->hconHttpType == GSN_HTTPS && s2wCidList[cid].s2wUsrCloseFlag)
??CrossCallReturnLabel_70:
        LDR      R0,[R7, #+24]
        BL       ?Subroutine40
??CrossCallReturnLabel_106:
        BNE.N    ??AppS2wHal_NetRecvTask_49
        LDRB     R0,[R5, #+144]
        CBZ.N    R0,??AppS2wHal_NetRecvTask_49
// 2236 					{
// 2237 						/* stop the http close waiting timer */
// 2238 						if(GSN_SUCCESS == AppS2wHal_TimerStop(&s2wCidList[cid].s2wUserCloseTimer))
        ADD      R0,R5,#+88
          CFI FunCall AppS2wHal_TimerStop
        BL       AppS2wHal_TimerStop
        CMP      R0,#+0
        BNE.N    ??AppS2wHal_NetRecvTask_37
// 2239 						{
// 2240 						  	/* release the semaphore so the close can finish */
// 2241 							GsnOsal_SemRelease(&s2wCidList[cid].s2wUserCloseInProgress);
??AppS2wHal_NetRecvTask_48:
        BL       ?Subroutine14
// 2242 						}
// 2243 
// 2244 						#ifdef S2W_SEPARATE_NET_RX_TASK
// 2245 							continue; /*!! Donot remove this*/
// 2246 						#else
// 2247 							break; /*!! Donot remove this*/
// 2248 						#endif /*S2W_SEPARATE_NET_RX_TASK*/
// 2249 					}
??CrossCallReturnLabel_32:
        ADDS     R0,R0,#+56
??AppS2wHal_NetRecvTask_50:
          CFI FunCall GsnOsal_SemRelease
        BL       GsnOsal_SemRelease
??AppS2wHal_NetRecvTask_37:
        B.N      ??AppS2wHal_NetRecvTask_0
// 2250 					/* The close is from remote and no alert gone out. Send an alert */
// 2251 					GsnHttp_Alert(s2wCidList[cid].pHttpData->pHttpHandle);
??AppS2wHal_NetRecvTask_49:
        LDR      R0,[R7, #+24]
        BL       ??Subroutine41_0
// 2252 #endif
// 2253 					//if(s2wCidList[cid].pHttpData->httpType == GSN_HTTP)
// 2254 						//GsnOsal_SemAcquire(&s2wCidList[cid].pHttpData->opInProgress, GSN_OSAL_WAIT_FOREVER);
// 2255 					GsnOsal_SemRelease(&s2wCidList[cid].pHttpData->opInProgress);
??CrossCallReturnLabel_108:
        LDR      R0,[R7, #+24]
        BL       ??Subroutine34_0
// 2256 				}
// 2257 
// 2258 #endif
// 2259 				status = AppS2wHal_NetClose(cid);
??CrossCallReturnLabel_87:
        MOV      R0,R8
          CFI FunCall AppS2wHal_NetClose
        BL       AppS2wHal_NetClose
        MOV      R7,R0
// 2260 				/* Check the L2 connection exists
// 2261 					Bug FIX 5083 - L2 disconnection while getting the data throws ERROR:SOCKET FAILURE and Disassociation Event
// 2262 				*/						
// 2263 				if(TRUE != GsnWdd_AssocStatusGet(&s2wappMainTaskCtxt->if0.wddCtx))
        BL       ?Subroutine39
??CrossCallReturnLabel_102:
        CMP      R0,#+1
        BNE.N    ??AppS2wHal_NetRecvTask_37
// 2264 				{
// 2265 					break;
// 2266 				}
// 2267 
// 2268                 
// 2269 				
// 2270 				if(s2wCidList[cid].s2wUsrCloseFlag == 0 && status == S2W_SUCCESS)
        LDRB     R0,[R5, #+144]
        ORRS     R0,R7,R0
        BNE.N    ??AppS2wHal_NetRecvTask_35
// 2271 				{
// 2272 					GsnOsal_SemAcquire(&s2wSyncSemID, GSN_OSAL_WAIT_FOREVER);
        BL       ?Subroutine27
// 2273 					if((!s2wAutoConnState ) ||(( s2wState == S2W_STATE_CMD) && (s2wIsAutoconnected)))
??CrossCallReturnLabel_67:
        LDR.W    R0,??DataTable78
        LDRB     R0,[R0, #+0]
        CBZ.N    R0,??AppS2wHal_NetRecvTask_36
        LDR.W    R0,??DataTable78_1
        LDRB     R0,[R0, #+0]
        CBNZ.N   R0,??AppS2wHal_NetRecvTask_43
        LDR.W    R0,??DataTable78_2
        LDRB     R0,[R0, #+0]
        CBZ.N    R0,??AppS2wHal_NetRecvTask_43
// 2274 				 	{
// 2275 #ifdef S2W_ASYNC_MSG
// 2276 						if(s2wCurrent.asyncMsgFormat)
??AppS2wHal_NetRecvTask_36:
        BL       ?Subroutine21
??CrossCallReturnLabel_48:
        BEQ.N    ??AppS2wHal_NetRecvTask_51
// 2277 				   		{
// 2278 					   		AppS2wProcess_AsyncStatusNotify(S2W_ASYNC_ECIDCLOSE, cid);
        MOVS     R0,#+2
??AppS2wHal_NetRecvTask_44:
          CFI FunCall AppS2wProcess_AsyncStatusNotify
        BL       AppS2wProcess_AsyncStatusNotify
        B.N      ??AppS2wHal_NetRecvTask_43
// 2279 				   		}
// 2280 				   		else
// 2281 #endif
// 2282                 		{
// 2283 		                    AppS2wProcess_StatusNotify(S2W_ECIDCLOSE, cid);
??AppS2wHal_NetRecvTask_51:
        MOVS     R0,#+8
??AppS2wHal_NetRecvTask_45:
          CFI FunCall AppS2wProcess_StatusNotify
        BL       AppS2wProcess_StatusNotify
// 2284         		        }
// 2285 			       }                
// 2286 					GsnOsal_SemRelease(&s2wSyncSemID);
??AppS2wHal_NetRecvTask_43:
        LDR.W    R0,??DataTable86
          CFI FunCall GsnOsal_SemRelease
        BL       GsnOsal_SemRelease
// 2287 				}
// 2288                 
// 2289                 
// 2290                 if(((s2wCurrent.ncmAutoLvl != 0)  && (cid == s2wCurrent.ncmAutoCid) && (s2wCurrent.ncmAutoMgr == 1))
// 2291                    || profile_params.autoConnect )
??AppS2wHal_NetRecvTask_35:
        LDR.N    R0,??DataTable65
        LDRB     R0,[R0, #+811]
        CBZ.N    R0,??AppS2wHal_NetRecvTask_52
        LDR.N    R0,??DataTable65
        LDRB     R0,[R0, #+916]
        CMP      R8,R0
        ITTT     EQ 
        LDREQ.N  R0,??DataTable65
        LDRBEQ   R0,[R0, #+810]
        CMPEQ    R0,#+1
        BEQ.N    ??AppS2wHal_NetRecvTask_53
??AppS2wHal_NetRecvTask_52:
        LDR.W    R0,??DataTable85
        LDRB     R0,[R0, #+4]
        CMP      R0,#+0
        BEQ.N    ??AppS2wHal_NetRecvTask_54
// 2292                 {
// 2293 
// 2294                     UINT32 message = APP_EVENT_NCM_L4CONNECT;
// 2295                     (s2wappMainTaskNotifier)(message, s2wappMainTaskCtxt);
??AppS2wHal_NetRecvTask_53:
        LDR.W    R0,??DataTable71
        LDR.W    R2,??DataTable86_1
        LDR      R1,[R0, #+0]
        LDR      R2,[R2, #+0]
        MOVS     R0,#+24
          CFI FunCall
        BLX      R2
??AppS2wHal_NetRecvTask_54:
        B.N      ??AppS2wHal_NetRecvTask_0
// 2296                 }
// 2297             break;
// 2298 
// 2299 #endif
// 2300 #ifdef S2W_HTTPC_SUPPORT
// 2301             case S2W_RECV_TYPE_HTTPS_CLOSE:
// 2302 				/*Control is here, becase an Alert has been received*/
// 2303                 cid = AppS2wHal_CidFind(recvMsg.rData.dataSock);
??AppS2wHal_NetRecvTask_29:
        BL       ?Subroutine37
??CrossCallReturnLabel_96:
        MOV      R7,R0
// 2304                 if (cid == INVALID_CID)
        CMP      R7,#+255
        BEQ.N    ??AppS2wHal_NetRecvTask_54
// 2305                 {
// 2306                     #ifdef S2W_SEPARATE_NET_RX_TASK
// 2307                     	continue;
// 2308 					#else
// 2309 						break;
// 2310 					#endif /*S2W_SEPARATE_NET_RX_TASK*/
// 2311                 }
// 2312                 // if data is pending on that socket defer the socket close
// 2313                 if(s2wCidList[cid].s2wSockDataPending)
        BL       ?Subroutine15
??CrossCallReturnLabel_34:
        MLA      R5,R0,R7,R1
        LDRB     R0,[R5, #+145]
        CBZ.N    R0,??AppS2wHal_NetRecvTask_55
// 2314                 {
// 2315 					GsnOsal_QueuePut(&s2wNetQueue,(UINT8*)&recvMsg);
        LDR.W    R0,??DataTable77
        ADD      R1,SP,#+20
          CFI FunCall GsnOsal_QueuePut
        BL       GsnOsal_QueuePut
// 2316 				}
// 2317 				/*Send Alert back*/
// 2318                 GsnHttp_Alert(s2wCidList[cid].pHttpData->pHttpHandle);
??AppS2wHal_NetRecvTask_55:
        BL       ?Subroutine41
// 2319 
// 2320 				/* Close HTTP connection*/
// 2321 				AppS2wHal_HttpLocalClose(cid);
??CrossCallReturnLabel_111:
        MOV      R0,R7
          CFI FunCall AppS2wHal_HttpLocalClose
        BL       AppS2wHal_HttpLocalClose
// 2322 
// 2323                 GsnOsal_SemAcquire(&s2wSyncSemID, GSN_OSAL_WAIT_FOREVER);
        LDR.W    R0,??DataTable86
        MOV      R1,#-1
          CFI FunCall GsnOsal_SemAcquire
        BL       GsnOsal_SemAcquire
// 2324 #ifdef S2W_UART_ENABLE
// 2325                 //while(0 == S2wUart_TxStatusGet());
// 2326 #endif
// 2327 #ifdef S2W_ASYNC_MSG
// 2328                 if(s2wCurrent.asyncMsgFormat)
        LDR.N    R0,??DataTable65
        LDRB     R0,[R0, #+472]
        CMP      R0,#+0
        MOV      R1,R7
        BEQ.N    ??AppS2wHal_NetRecvTask_56
// 2329                 {
// 2330                     AppS2wProcess_AsyncStatusNotify(S2W_ASYNC_ECIDCLOSE, cid);
        MOVS     R0,#+2
          CFI FunCall AppS2wProcess_AsyncStatusNotify
        BL       AppS2wProcess_AsyncStatusNotify
        B.N      ??AppS2wHal_NetRecvTask_57
// 2331                 }
// 2332                 else
// 2333 #endif
// 2334                 {
// 2335                     AppS2wProcess_StatusNotify(S2W_ECIDCLOSE, cid);
??AppS2wHal_NetRecvTask_56:
        MOVS     R0,#+8
          CFI FunCall AppS2wProcess_StatusNotify
        BL       AppS2wProcess_StatusNotify
// 2336                 }
// 2337 #ifdef S2W_UART_ENABLE
// 2338                // while(0 == S2wUart_TxStatusGet());
// 2339 #endif
// 2340                 GsnOsal_SemRelease(&s2wSyncSemID);
??AppS2wHal_NetRecvTask_57:
        LDR.W    R0,??DataTable86
        B.N      ??AppS2wHal_NetRecvTask_50
// 2341 
// 2342                 break;
// 2343 #endif
// 2344 #ifdef S2W_IP2WIFI_SUPPORT
// 2345                 case S2W_RECV_TYPE_RAWDATA:
// 2346                 {
// 2347 
// 2348                     S2w_RawNetRx (recvMsg.rData.dataPtr, recvMsg.msgLen);
// 2349 
// 2350                 }
// 2351                 break;
// 2352 #endif
// 2353 
// 2354 #ifdef S2W_UNASSOC_TXRX_SUPPORT
// 2355                 case S2W_RECV_TYPE_UAMDATA:
// 2356                 {
// 2357 
// 2358                     S2w_UamRx (recvMsg.rData.dataPtr, recvMsg.msgLen);
??AppS2wHal_NetRecvTask_30:
        LDRSH    R1,[SP, #+24]
        LDR      R0,[SP, #+20]
          CFI FunCall S2w_UamRx
        BL       S2w_UamRx
// 2359 
// 2360                 }
// 2361                 break;
        B.N      ??AppS2wHal_NetRecvTask_0
// 2362 #endif
// 2363 
// 2364 			    case S2W_RECV_TYPE_SOCK_ACCEPT:
// 2365 			        newcid = AppS2wHal_CidFind(recvMsg.rData.dataSock);
??AppS2wHal_NetRecvTask_28:
        BL       ?Subroutine37
// 2366 			        cid = s2wCidList[newcid].serverCid;
??CrossCallReturnLabel_95:
        LDR.N    R1,??DataTable66
        MOV      R5,R0
        MOV      R0,#+296
        MLA      R0,R0,R5,R1
        LDRB     R6,[R0, #+46]
// 2367 			        new_sd =   s2wCidList[newcid].sd;
        LDR      R7,[R0, #+28]
// 2368 			        port = s2wCidList[newcid].remotePort;
        LDRH     R4,[R0, #+4]
// 2369 #ifdef S2W_IPv6_SUPPORT
// 2370                     if(s2wCidList[newcid].addrType & ADDR_TYPE_IPv6)
// 2371                     {
// 2372                         ret = AppS2wProcess_NetAccept(cid, newcid, (UINT8*)s2wCidList[newcid].remoteIpv6, port);
// 2373 				    }
// 2374 				    else
// 2375 #endif
// 2376                     {
// 2377 		                memcpy((UINT8*)ip,s2wCidList[newcid].remoteIp,4);
        ADDS     R1,R0,#+6
        MOVS     R2,#+4
        ADD      R0,SP,#+8
          CFI FunCall memcpy
        BL       memcpy
// 2378 		                *(UINT32*)ip = htonl(*(UINT32*)ip);
        BL       ?Subroutine32
// 2379 				        ret = AppS2wProcess_NetAccept(cid, newcid, (UINT8*)ip, port);
// 2380 				    }
// 2381 				    if (ret != S2W_SUCCESS)
??CrossCallReturnLabel_83:
        MOV      R3,R4
        ADD      R2,SP,#+8
        MOV      R1,R5
        MOV      R0,R6
          CFI FunCall AppS2wProcess_NetAccept
        BL       AppS2wProcess_NetAccept
        CMP      R0,#+0
        BEQ.N    ??AppS2wHal_NetRecvTask_58
// 2382 				    {
// 2383 					    soc_close(new_sd);
        MOV      R0,R7
          CFI FunCall soc_close
        BL       soc_close
??AppS2wHal_NetRecvTask_58:
        B.N      ??AppS2wHal_NetRecvTask_0
          CFI EndBlock cfiBlock93
// 2384 					    //return;
// 2385 	                }
// 2386 				break;
// 2387             default :
// 2388                 break;
// 2389 }
// 2390 
// 2391     }
// 2392 }

        SECTION `.text`:CODE:NOROOT(2)
        SECTION_TYPE SHT_PROGBITS, 0
        DATA
`?<Constant "\\r\\n Receive Data s2wRx...">`:
        DC8 "\015\012 Receive Data s2wRxBuf : %x %x %x %x"
        DC8 0

        SECTION `.text`:CODE:NOROOT(1)
          CFI Block cfiCond94 Using cfiCommon0
          CFI Function AppS2wHal_NetRecvTask
          CFI Conditional ??CrossCallReturnLabel_113
          CFI R4 Frame(CFA, -36)
          CFI R5 Frame(CFA, -32)
          CFI R6 Frame(CFA, -28)
          CFI R7 Frame(CFA, -24)
          CFI R8 Frame(CFA, -20)
          CFI R9 Frame(CFA, -16)
          CFI R10 Frame(CFA, -12)
          CFI R11 Frame(CFA, -8)
          CFI R14 Frame(CFA, -4)
          CFI CFA R13+128
          CFI Block cfiCond95 Using cfiCommon0
          CFI (cfiCond95) Function AppS2wHal_NetRecvTask
          CFI (cfiCond95) Conditional ??CrossCallReturnLabel_112
          CFI (cfiCond95) R4 Frame(CFA, -36)
          CFI (cfiCond95) R5 Frame(CFA, -32)
          CFI (cfiCond95) R6 Frame(CFA, -28)
          CFI (cfiCond95) R7 Frame(CFA, -24)
          CFI (cfiCond95) R8 Frame(CFA, -20)
          CFI (cfiCond95) R9 Frame(CFA, -16)
          CFI (cfiCond95) R10 Frame(CFA, -12)
          CFI (cfiCond95) R11 Frame(CFA, -8)
          CFI (cfiCond95) R14 Frame(CFA, -4)
          CFI (cfiCond95) CFA R13+128
          CFI Block cfiPicker96 Using cfiCommon1
          CFI (cfiPicker96) NoFunction
          CFI (cfiPicker96) Picker
        THUMB
?Subroutine42:
        STR      R4,[SP, #+0]
        ADD      R3,SP,#+8
        MOV      R0,R8
          CFI FunCall AppS2wHal_NetRecvTask AppS2wProcess_NetRx
          CFI FunCall AppS2wHal_NetRecvTask AppS2wProcess_NetRx
        B.W      AppS2wProcess_NetRx
          CFI EndBlock cfiCond94
          CFI EndBlock cfiCond95
          CFI EndBlock cfiPicker96

        SECTION `.text`:CODE:NOROOT(1)
          CFI Block cfiCond97 Using cfiCommon0
          CFI Function AppS2wHal_NetRecvTask
          CFI Conditional ??CrossCallReturnLabel_104
          CFI R4 Frame(CFA, -36)
          CFI R5 Frame(CFA, -32)
          CFI R6 Frame(CFA, -28)
          CFI R7 Frame(CFA, -24)
          CFI R8 Frame(CFA, -20)
          CFI R9 Frame(CFA, -16)
          CFI R10 Frame(CFA, -12)
          CFI R11 Frame(CFA, -8)
          CFI R14 Frame(CFA, -4)
          CFI CFA R13+128
          CFI Block cfiCond98 Using cfiCommon0
          CFI (cfiCond98) Function AppS2wHal_NetRecvTask
          CFI (cfiCond98) Conditional ??CrossCallReturnLabel_103
          CFI (cfiCond98) R4 Frame(CFA, -36)
          CFI (cfiCond98) R5 Frame(CFA, -32)
          CFI (cfiCond98) R6 Frame(CFA, -28)
          CFI (cfiCond98) R7 Frame(CFA, -24)
          CFI (cfiCond98) R8 Frame(CFA, -20)
          CFI (cfiCond98) R9 Frame(CFA, -16)
          CFI (cfiCond98) R10 Frame(CFA, -12)
          CFI (cfiCond98) R11 Frame(CFA, -8)
          CFI (cfiCond98) R14 Frame(CFA, -4)
          CFI (cfiCond98) CFA R13+128
          CFI Block cfiCond99 Using cfiCommon0
          CFI (cfiCond99) Function AppS2wHal_NetRecvTask
