///////////////////////////////////////////////////////////////////////////////
//                                                                            /
// IAR ANSI C/C++ Compiler V6.50.6.4896/W32 for ARM     19/Nov/2015  15:13:06 /
// Copyright 1999-2013 IAR Systems AB.                                        /
//                                                                            /
//    Cpu mode     =  thumb                                                   /
//    Endian       =  little                                                  /
//    Source file  =  E:\Gainspan\gs2011mxx_SDK_s2w_tls_tlslp_5.1.5_GA\userap /
//                    ps_mqtt\s2w\src\parser\s2w_general_command.c            /
//    Command line =  E:\Gainspan\gs2011mxx_SDK_s2w_tls_tlslp_5.1.5_GA\userap /
//                    ps_mqtt\s2w\src\parser\s2w_general_command.c -D         /
//                    TX_ENABLE_IAR_LIBRARY_SUPPORT -D IAR -D                 /
//                    FIXED_ROM_BUILD -D RUN_ALL_FROM_FLASH -D TM_USE_HTTPD   /
//                    -D S2W_DNS_CLIENT -D NX_INCLUDE_USER_DEFINE_FILE -D     /
//                    S2W_WEB_FS_AVAILABLE -D S2W_EXTFLASH_DRIVER_TEST -D     /
//                    S2W_PWM_SUPPORT -D S2W_MEM_ACCESS -D                    /
//                    S2W_FORCE_UART_PORT -D S2W_EXT_FLASH_FWUP_PUSH_METHOD   /
//                    -D S2W_NCM_SUPPORT_ENABLE -D                            /
//                    S2W_SECURITY_ENTERPRISE_PEAP_V0_AVAILABLE -D            /
//                    S2W_EXT_FLASH_FWUP_PULL_METHOD -D                       /
//                    S2W_SECURITY_ENTERPRISE_TLS_AVAILABLE -D                /
//                    S2W_DNS_SERVER_ENABLE -D ADK_OTAFU -D S2W_GSLINK_RAW    /
//                    -D S2W_GSLINK_XML -D S2W_SECURITY_ENTERPRISE_PEAP_V1_AV /
//                    AILABLE -D S2W_PING_TRACE -D S2W_RF_TEST -D             /
//                    S2W_SSL_CLIENT_SUPPORT -D S2W_DEFAULT_UART_PARITY=0 -D  /
//                    S2W_DHCP_SERVER_ENABLE -D S2W_SECURITY_WPS_ENABLE -D    /
//                    ADK_PROV_CONFIG_LIMITED_AP -D S2W_WEB_SERVER -D         /
//                    ADK_PROV -D S2W_DEFAULT_UART_SW_FLOW=0 -D               /
//                    S2W_FILE_UPLOAD_API -D S2W_COAP_SUPPORT -D              /
//                    S2W_HTTPD_SSLCERT_UPLOAD -D                             /
//                    S2W_DEFAULT_UART_STOP_BITS=0 -D S2W_FACT_IMAGE_REQ -D   /
//                    S2W_DEFAULT_UART_BAUD=9600 -D S2W_ASYNC_MSG -D          /
//                    S2W_HTTPS_SUPPORT -D S2W_DEFAULT_UART_HW_FLOW=0 -D      /
//                    S2W_SECURITY_ENTERPRISE_FAST_GTC_AVAILABLE -D           /
//                    S2W_WEB_PROV -D S2W_UNASSOC_TXRX_SUPPORT -D S2W_SNTP    /
//                    -D S2W_UART_ENABLE -D S2W_GSLINK_XMLNESTED_PARSER -D    /
//                    S2W_GSLINK -D S2W_SECURITY_ENTERPRISE_TTLS_AVAILABLE    /
//                    -D S2W_ADC_SUPPORT -D S2W_HTTPC_SUPPORT -D              /
//                    S2W_SECURITY_ENTERPRISE_FAST_MSCHAPV2_AVAILABLE -D      /
//                    S2W_SSL_SERVER_SUPPORT -D ADK_PROV_CONFIG_CLIENT -D     /
//                    S2W_DEFAULT_UART_BITS_PER_CHAR=3 -D S2W_MDNS_ENABLE     /
//                    -lC E:\Gainspan\gs2011mxx_SDK_s2w_tls_tlslp_5.1.5_GA\us /
//                    erapps_mqtt\s2w\build\Debug\List\ -lA                   /
//                    E:\Gainspan\gs2011mxx_SDK_s2w_tls_tlslp_5.1.5_GA\userap /
//                    ps_mqtt\s2w\build\Debug\List\ --diag_suppress           /
//                    Pa050,Pe231,Pe177 -o E:\Gainspan\gs2011mxx_SDK_s2w_tls_ /
//                    tlslp_5.1.5_GA\userapps_mqtt\s2w\build\Debug\Obj\       /
//                    --debug --endian=little --cpu=Cortex-M3 -e --fpu=None   /
//                    --dlib_config "C:\Program Files (x86)\IAR               /
//                    Systems\Embedded Workbench                              /
//                    6.5\arm\INC\c\DLib_Config_Full.h" -I                    /
//                    E:\Gainspan\gs2011mxx_SDK_s2w_tls_tlslp_5.1.5_GA\userap /
//                    ps_mqtt\s2w\build\..\..\..\geps\inc\ -I                 /
//                    E:\Gainspan\gs2011mxx_SDK_s2w_tls_tlslp_5.1.5_GA\userap /
//                    ps_mqtt\s2w\build\..\..\..\geps\inc\core\ -I            /
//                    E:\Gainspan\gs2011mxx_SDK_s2w_tls_tlslp_5.1.5_GA\userap /
//                    ps_mqtt\s2w\build\..\..\..\geps\inc\drivers\ -I         /
//                    E:\Gainspan\gs2011mxx_SDK_s2w_tls_tlslp_5.1.5_GA\userap /
//                    ps_mqtt\s2w\build\..\..\..\geps\inc\modules\ -I         /
//                    E:\Gainspan\gs2011mxx_SDK_s2w_tls_tlslp_5.1.5_GA\userap /
//                    ps_mqtt\s2w\build\..\..\..\geps\inc\rtos\ -I            /
//                    E:\Gainspan\gs2011mxx_SDK_s2w_tls_tlslp_5.1.5_GA\userap /
//                    ps_mqtt\s2w\build\..\..\..\geps\inc\netx\ -I            /
//                    E:\Gainspan\gs2011mxx_SDK_s2w_tls_tlslp_5.1.5_GA\userap /
//                    ps_mqtt\s2w\build\..\..\..\geps\inc\netx\netx_bsd_layer /
//                    \ -I E:\Gainspan\gs2011mxx_SDK_s2w_tls_tlslp_5.1.5_GA\u /
//                    serapps_mqtt\s2w\build\..\..\..\geps\inc\main\ -I       /
//                    E:\Gainspan\gs2011mxx_SDK_s2w_tls_tlslp_5.1.5_GA\userap /
//                    ps_mqtt\s2w\build\..\..\..\geps\inc\fs\ -I              /
//                    E:\Gainspan\gs2011mxx_SDK_s2w_tls_tlslp_5.1.5_GA\userap /
//                    ps_mqtt\s2w\build\..\..\..\geps\inc\fs\hcc\src\ -I      /
//                    E:\Gainspan\gs2011mxx_SDK_s2w_tls_tlslp_5.1.5_GA\userap /
//                    ps_mqtt\s2w\build\..\..\..\geps\inc\security\src\ -I    /
//                    E:\Gainspan\gs2011mxx_SDK_s2w_tls_tlslp_5.1.5_GA\userap /
//                    ps_mqtt\s2w\build\..\..\..\geps\inc\security\hw_engine_ /
//                    if\ -I E:\Gainspan\gs2011mxx_SDK_s2w_tls_tlslp_5.1.5_GA /
//                    \userapps_mqtt\s2w\build\..\..\..\geps\inc\security\wpa /
//                    _if\ -I E:\Gainspan\gs2011mxx_SDK_s2w_tls_tlslp_5.1.5_G /
//                    A\userapps_mqtt\s2w\build\..\..\..\userlib\ncm\inc\ -I  /
//                    E:\Gainspan\gs2011mxx_SDK_s2w_tls_tlslp_5.1.5_GA\userap /
//                    ps_mqtt\s2w\build\..\..\..\userlib\ -I                  /
//                    E:\Gainspan\gs2011mxx_SDK_s2w_tls_tlslp_5.1.5_GA\userap /
//                    ps_mqtt\s2w\build\..\inc\ctx\ -I                        /
//                    E:\Gainspan\gs2011mxx_SDK_s2w_tls_tlslp_5.1.5_GA\userap /
//                    ps_mqtt\s2w\build\..\inc\ -I                            /
//                    E:\Gainspan\gs2011mxx_SDK_s2w_tls_tlslp_5.1.5_GA\userap /
//                    ps_mqtt\s2w\build\..\inc\main\ -I                       /
//                    E:\Gainspan\gs2011mxx_SDK_s2w_tls_tlslp_5.1.5_GA\userap /
//                    ps_mqtt\s2w\build\..\inc\hal\ -I                        /
//                    E:\Gainspan\gs2011mxx_SDK_s2w_tls_tlslp_5.1.5_GA\userap /
//                    ps_mqtt\s2w\build\..\inc\parser\ -I                     /
//                    E:\Gainspan\gs2011mxx_SDK_s2w_tls_tlslp_5.1.5_GA\userap /
//                    ps_mqtt\s2w\build\..\inc\config\ -I                     /
//                    E:\Gainspan\gs2011mxx_SDK_s2w_tls_tlslp_5.1.5_GA\userap /
//                    ps_mqtt\s2w\build\..\src\ -I                            /
//                    E:\Gainspan\gs2011mxx_SDK_s2w_tls_tlslp_5.1.5_GA\userap /
//                    ps_mqtt\s2w\build\..\..\..\adk\otafu\inc\ -I            /
//                    E:\Gainspan\gs2011mxx_SDK_s2w_tls_tlslp_5.1.5_GA\userap /
//                    ps_mqtt\s2w\build\..\..\..\adk\provisioning\inc\ -I     /
//                    E:\Gainspan\gs2011mxx_SDK_s2w_tls_tlslp_5.1.5_GA\userap /
//                    ps_mqtt\s2w\build\..\inc\mqtt\ -I                       /
//                    E:\Gainspan\gs2011mxx_SDK_s2w_tls_tlslp_5.1.5_GA\userap /
//                    ps_mqtt\s2w\build\..\src\mqtt\ -I                       /
//                    E:\Gainspan\gs2011mxx_SDK_s2w_tls_tlslp_5.1.5_GA\userap /
//                    ps_mqtt\s2w\build\..\inc\one_wire\ -I                   /
//                    E:\Gainspan\gs2011mxx_SDK_s2w_tls_tlslp_5.1.5_GA\userap /
//                    ps_mqtt\s2w\build\..\src\one_wire\ -I                   /
//                    E:\Gainspan\gs2011mxx_SDK_s2w_tls_tlslp_5.1.5_GA\userap /
//                    ps_mqtt\s2w\build\..\inc\linked_list\ -I                /
//                    E:\Gainspan\gs2011mxx_SDK_s2w_tls_tlslp_5.1.5_GA\userap /
//                    ps_mqtt\s2w\build\..\src\linked_list\ -I                /
//                    E:\Gainspan\gs2011mxx_SDK_s2w_tls_tlslp_5.1.5_GA\userap /
//                    ps_mqtt\s2w\build\..\inc\mqtt_main\ -I                  /
//                    E:\Gainspan\gs2011mxx_SDK_s2w_tls_tlslp_5.1.5_GA\userap /
//                    ps_mqtt\s2w\build\..\src\mqtt_main\ -I                  /
//                    E:\Gainspan\gs2011mxx_SDK_s2w_tls_tlslp_5.1.5_GA\userap /
//                    ps_mqtt\s2w\build\..\inc\mqtt_log\ -I                   /
//                    E:\Gainspan\gs2011mxx_SDK_s2w_tls_tlslp_5.1.5_GA\userap /
//                    ps_mqtt\s2w\build\..\src\mqtt_log\ -Ohz                 /
//                    --use_c++_inline -I "C:\Program Files (x86)\IAR         /
//                    Systems\Embedded Workbench 6.5\arm\CMSIS\Include\"      /
//    List file    =  E:\Gainspan\gs2011mxx_SDK_s2w_tls_tlslp_5.1.5_GA\userap /
//                    ps_mqtt\s2w\build\Debug\List\s2w_general_command.s      /
//                                                                            /
//                                                                            /
///////////////////////////////////////////////////////////////////////////////

        NAME s2w_general_command

        RTMODEL "__SystemLibrary", "DLib"
        RTMODEL "__dlib_file_descriptor", "1"
        RTMODEL "__dlib_full_locale_support", "1"
        RTMODEL "__iar_require _Printf", "flags,widths"
        AAPCS BASE,INTERWORK
        PRESERVE8
        REQUIRE8

        #define SHT_PROGBITS 0x1

        EXTERN APPS2wCmd_AddRedirURI
        EXTERN APPS2wCmd_WebProv
        EXTERN APPS2wCmd_WebProvStop
        EXTERN APPS2w_ExtFlashStart
        EXTERN AppExtFlash_Init
        EXTERN AppMainCtx_TaskNotify
        EXTERN AppMcu_RespTimeoutCb
        EXTERN AppS2wCmd_ApClientInfoGet
        EXTERN AppS2wCmd_AppOtpRead
        EXTERN AppS2wCmd_ArpAutoSet
        EXTERN AppS2wCmd_ArpCacheDel
        EXTERN AppS2wCmd_ArpCacheEn
        EXTERN AppS2wCmd_ArpEntryDelete
        EXTERN AppS2wCmd_ArpEntryGet
        EXTERN AppS2wCmd_ArpEntrySet
        EXTERN AppS2wCmd_AsyncMsgFmt
        EXTERN AppS2wCmd_BattCheckSet
        EXTERN AppS2wCmd_BattCheckStart
        EXTERN AppS2wCmd_BattCheckStop
        EXTERN AppS2wCmd_BattLvlSet
        EXTERN AppS2wCmd_BattValueGet
        EXTERN AppS2wCmd_CfgUri
        EXTERN AppS2wCmd_GetSecurityString
        EXTERN AppS2wCmd_GratArpSend
        EXTERN AppS2wCmd_HwCryptoEn
        EXTERN AppS2wCmd_LogLevelSet
        EXTERN AppS2wCmd_MdnsAnnounceAll
        EXTERN AppS2wCmd_MdnsDeInit
        EXTERN AppS2wCmd_MdnsHostNameReg
        EXTERN AppS2wCmd_MdnsHostNmDeReg
        EXTERN AppS2wCmd_MdnsInit
        EXTERN AppS2wCmd_MdnsServiceReg
        EXTERN AppS2wCmd_MdnsSrvDeReg
        EXTERN AppS2wCmd_MdnsSrvcDiscover
        EXTERN AppS2wCmd_MemRead
        EXTERN AppS2wCmd_MemWrite
        EXTERN AppS2wCmd_PwmCtrl
        EXTERN AppS2wCmd_PwmStart
        EXTERN AppS2wCmd_PwmStop
        EXTERN AppS2wCmd_RfTestCarrierWaveStart
        EXTERN AppS2wCmd_RfTestRxStart
        EXTERN AppS2wCmd_RfTestRxStop
        EXTERN AppS2wCmd_RfTestStart
        EXTERN AppS2wCmd_RfTestStop
        EXTERN AppS2wCmd_RfTestTx100Start
        EXTERN AppS2wCmd_RfTestTx99Start
        EXTERN AppS2wCmd_RfTestTxStart
        EXTERN AppS2wCmd_RfTestTxStop
        EXTERN AppS2wCmd_SetAssocTimeout
        EXTERN AppS2wCmd_SslConfig
        EXTERN AppS2wCmd_WebServer
        EXTERN AppS2wCmd_WlanApPsCfg
        EXTERN AppS2wCmd_WlanCalib
        EXTERN AppS2wCmd_WlanOtpRead
        EXTERN AppS2wCmd_WlanStaPsCfg
        EXTERN AppS2wCmd_WlanStatsGet
        EXTERN AppS2wCmd_Wrssi
        EXTERN AppS2wCmd_Wstatus
        EXTERN AppS2wCmd_XmlParseEnable
        EXTERN AppS2wCmd_XmlSend
        EXTERN AppS2wHal_CharNGet
        EXTERN AppS2wHal_CharNPut
        EXTERN AppS2wHal_CidGet
        EXTERN AppS2wHal_CidInfoGet
        EXTERN AppS2wHal_CoapHandleGet
        EXTERN AppS2wHal_CoapParamsGet
        EXTERN AppS2wHal_Disassociate
        EXTERN AppS2wHal_HttpCheckDns
        EXTERN AppS2wHal_HttpClose
        EXTERN AppS2wHal_HttpHandleGet
        EXTERN AppS2wHal_HttpOpen
        EXTERN AppS2wHal_MacAddrGet
        EXTERN AppS2wHal_MacAddrSet
        EXTERN AppS2wHal_McastRecvSet
        EXTERN AppS2wHal_NetClose
        EXTERN AppS2wHal_NetCloseAll
        EXTERN AppS2wHal_NetIsCidOpen
        EXTERN AppS2wHal_NetTcpClient
        EXTERN AppS2wHal_NetTcpServer
        EXTERN AppS2wHal_NetUdpClient
        EXTERN AppS2wHal_NetUdpServer
        EXTERN AppS2wHal_NetworkConfig
        EXTERN AppS2wHal_NwContextRestore
        EXTERN AppS2wHal_NwContextStore
        EXTERN AppS2wHal_PowerSaveConfig
        EXTERN AppS2wHal_PsDpSleepStart
        EXTERN AppS2wHal_PsHibernateRequest
        EXTERN AppS2wHal_PsStbyRequest
        EXTERN AppS2wHal_PskKeyStore
        EXTERN AppS2wHal_RadioModeConfig
        EXTERN AppS2wHal_SockOpSet
        EXTERN AppS2wHal_SyncLossIntrvlSet
        EXTERN AppS2wHal_TcpSrvMaxConSet
        EXTERN AppS2wHal_TimerStop
        EXTERN AppS2wHal_UartConfig
        EXTERN AppS2wHal_WpaPskCompute
        EXTERN AppS2wHal_WpsAssociate
        EXTERN AppS2wParse_64BitNumber
        EXTERN AppS2wParse_AddrPort
        EXTERN AppS2wParse_Boolean
        EXTERN AppS2wParse_Hex
        EXTERN AppS2wParse_Int
        EXTERN AppS2wParse_Ip
        EXTERN AppS2wParse_Mac
        EXTERN AppS2wParse_NextParamGet
        EXTERN AppS2wParse_Psk
        EXTERN AppS2wParse_Ssid
        EXTERN AppS2wParse_StrnCaseCmp
        EXTERN AppS2wParse_ToHex
        EXTERN AppS2wParse_Wcmd
        EXTERN AppS2wParse_WepKey
        EXTERN AppS2wProcess_AsyncStatusNotify
        EXTERN AppS2wProcess_AutoConnectStart
        EXTERN AppS2wProcess_AutoConnectStop
        EXTERN AppS2wProcess_DefaulConfigtLoad
        EXTERN AppS2wProcess_DhcpFailNotify
        EXTERN AppS2wProcess_DhcpIpChangeNotify
        EXTERN AppS2wProcess_EventNotify
        EXTERN AppS2wProcess_StatusNotify
        EXTERN AppS2w_CertDelete
        EXTERN AppS2w_CidValidate
        EXTERN AppS2w_ClkCalibCb
        EXTERN AppS2w_CmdL2ConfigSet
        EXTERN AppS2w_ConnHttpStateGet
        EXTERN AppS2w_ConnModeGet
        EXTERN AppS2w_ConnStateGet
        EXTERN AppS2w_ExitDpSleep
        EXTERN AppS2w_HttpdBodyLenSet
        EXTERN AppS2w_HttpdCtxInit
        EXTERN AppS2w_HttpdMethodSet
        EXTERN AppS2w_HttpdSetTimeOut
        EXTERN AppS2w_SetWlanDfltParams
        EXTERN AppS2w_SslClientOpen
        EXTERN AppS2w_SslClose
        EXTERN AppS2w_SslServerOpen
        EXTERN App_FsInit
        EXTERN App_IfInit
        EXTERN App_IfReinit
        EXTERN App_InterfaceStart
        EXTERN App_InterfaceStop
        EXTERN GratiousArpHandler
        EXTERN GsnADC_Close
        EXTERN GsnADC_Open
        EXTERN GsnADC_PollRead
        EXTERN GsnCoap_DeInit
        EXTERN GsnCoap_DeleteToken
        EXTERN GsnCoap_Init
        EXTERN GsnCoap_Send_And_Recieve
        EXTERN GsnCoap_SetOption
        EXTERN GsnCoap_SetToken
        EXTERN GsnDhcpSrvr_Start
        EXTERN GsnDhcpSrvr_Stop
        EXTERN GsnDnsSrvr_Start
        EXTERN GsnDnsSrvr_Stop
        EXTERN GsnDynMemMgmt_Alloc
        EXTERN GsnDynMemMgmt_Free
        EXTERN GsnExtFlash_ChipErase
        EXTERN GsnExtFlash_Erase
        EXTERN GsnExtFlash_Read
        EXTERN GsnExtFlash_Write
        EXTERN GsnFwup_RollBackOtafu
        EXTERN GsnGpio_Init
        EXTERN GsnGpio_IntCbRegister
        EXTERN GsnGpio_NEIntEnable
        EXTERN GsnGpio_OutClear
        EXTERN GsnGpio_OutIndvidualSet
        EXTERN GsnHeIf_DriverInit
        EXTERN GsnHeIf_DriverSuspend
        EXTERN GsnHttpd_IsRunning
        EXTERN GsnIntTempSen_Get
        EXTERN GsnMacUtil_ExtractCapaInfo
        EXTERN GsnMacUtil_ExtractEncryptionStatus
        EXTERN GsnNcm_ConfigSet
        EXTERN GsnNcm_Start
        EXTERN GsnNcm_Stop
        EXTERN GsnNwIf_Close
        EXTERN GsnNwIf_DhcpStop
        EXTERN GsnNwIf_DhcpV6Stop
        EXTERN GsnNwIf_DnsHostByNameGet
        EXTERN GsnNwIf_IpConfigGet
        EXTERN GsnNwIf_Open
        EXTERN GsnNwif_DnsServerAdd
        EXTERN GsnNwif_DnsServerGet
        EXTERN GsnNwif_IPv4Configure
        EXTERN GsnSntp_TimeSync
        EXTERN GsnSoftTmr_Start
        EXTERN GsnSoftTmr_Stop
        EXTERN GsnSysCtl_DieTempGet
        EXTERN GsnSysCtl_DieTempSendTimerStart
        EXTERN GsnSysCtl_DieTempSendTimerStop
        EXTERN GsnSysCtl_WlanFeatureBmapGet
        EXTERN GsnSysCtl_WlanFwVerGet
        EXTERN GsnSys_Reset
        EXTERN GsnTod_AdjustOffset
        EXTERN GsnTod_Get
        EXTERN GsnUart_IntrFifoRxLevelGet
        EXTERN GsnUart_IntrFifoRxLevelSet
        EXTERN GsnUart_IntrFifoTxLevelGet
        EXTERN GsnUart_IntrFifoTxLevelSet
        EXTERN GsnUart_SwFlowSupportSet
        EXTERN GsnVersion_Get
        EXTERN GsnWdd_AmpduReq
        EXTERN GsnWdd_AmsduReq
        EXTERN GsnWdd_AssocStatusGet
        EXTERN GsnWdd_BeaconMissThresholdSet
        EXTERN GsnWdd_BlockAckEnable
        EXTERN GsnWdd_BlockAckReq
        EXTERN GsnWdd_Connect
        EXTERN GsnWdd_ErrorGet
        EXTERN GsnWdd_FrameTxFailCntLmitSet
        EXTERN GsnWdd_Ioctl
        EXTERN GsnWdd_PhyAddrGet
        EXTERN GsnWdd_PhyModeSet
        EXTERN GsnWdd_RSSIGet
        EXTERN GsnWdd_RadioModeInfoGet
        EXTERN GsnWdd_RadioPowerSaveCfgSet
        EXTERN GsnWdd_RadioStateGet
        EXTERN GsnWdd_RtsEnable
        EXTERN GsnWdd_Scan
        EXTERN GsnWdd_ScanParamSet
        EXTERN GsnWdd_SetGrpKeyUpdateTime
        EXTERN GsnWdd_SkipSuppSrvValidation
        EXTERN GsnWdd_TkipContrMsrStart
        EXTERN GsnWdd_TkipSeqNumGet
        EXTERN GsnWdd_TxNumRetrySet
        EXTERN GsnWdd_TxPowerSet
        EXTERN GsnWdd_TxRateGet
        EXTERN GsnWdd_TxRateSet
        EXTERN GsnWdd_WlanRecvFiltrSet
        EXTERN MALLOC
        EXTERN S2wCert_FlashFileLoad
        EXTERN S2wCert_MemAlloc
        EXTERN S2wCert_SearchRamTable
        EXTERN S2wCert_findFile
        EXTERN S2wHttp_Send
        EXTERN S2w_AsyncMsgGpioOp
        EXTERN S2w_CmdPsPollIntervelset
        EXTERN S2w_CmdUnSolicitedCcaConf
        EXTERN S2w_CmdUnSolicitedRx
        EXTERN S2w_CmdUnSolicitedRxstop
        EXTERN S2w_CmdUnSolicitedTx
        EXTERN S2w_LoadS2wProfile
        EXTERN S2w_Printf
        EXTERN S2w_PutChar
        EXTERN S2w_SaveApMacAddr
        EXTERN S2w_SaveMacAddr
        EXTERN S2w_SaveS2wProfile
        EXTERN S2w_SaveS2wProfileParams
        EXTERN S2w_macAddrRTCGet
        EXTERN S2w_macAddrRTCSet
        EXTERN TEST_START
        EXTERN __aeabi_memclr4
        EXTERN __aeabi_memcpy
        EXTERN __aeabi_memcpy4
        EXTERN __aeabi_memset
        EXTERN __aeabi_uldivmod
        EXTERN __gmtime32
        EXTERN __mktime32
        EXTERN _nxe_arp_gratuitous_send
        EXTERN _nxe_igmp_multicast_join
        EXTERN _nxe_igmp_multicast_leave
        EXTERN _tx_queue_create
        EXTERN _tx_queue_receive
        EXTERN _tx_queue_send
        EXTERN _tx_semaphore_get
        EXTERN _tx_semaphore_put
        EXTERN _tx_thread_create
        EXTERN _tx_thread_interrupt_control
        EXTERN acNcmTimer
        EXTERN appCtx
        EXTERN curCid
        EXTERN fsm_close
        EXTERN fsm_enterFS
        EXTERN fsm_mkdir
        EXTERN fsm_open
        EXTERN fsm_write
        EXTERN inet_addr
        EXTERN inet_pton
        EXTERN isspace
        EXTERN memcmp
        EXTERN nx_arp_table_set
        EXTERN nx_dns_retry_count_set
        EXTERN profile_params
        EXTERN s2wAutoConnState
        EXTERN s2wAutoExit_CB
        EXTERN s2wCidList
        EXTERN s2wDisassocCb
        EXTERN s2wDisassocSyncLossCb
        EXTERN s2wFlashParams
        EXTERN s2wIsAutoconnected
        EXTERN s2wL2L3ConnectSemaphore
        EXTERN s2wLinkState
        EXTERN s2wPingStart
        EXTERN s2wPingStop
        EXTERN s2wSerialPortHandle
        EXTERN s2wSpiFs_Flush
        EXTERN s2wSslConf
        EXTERN s2wState
        EXTERN s2wSyncSemID
        EXTERN s2w_StartDhcpDnsServer
        EXTERN s2w_ssl_cert_table
        EXTERN s2wappMainTaskCtxt
        EXTERN s2wappMainTaskNotifier
        EXTERN scanDisplayInfo
        EXTERN sprintf
        EXTERN stScanSemaphore
        EXTERN strcmp
        EXTERN strcpy
        EXTERN strlen
        EXTERN strncpy
        EXTERN toupper
        EXTERN wpsConnDone

        PUBLIC App2wCmd_Version
        PUBLIC App2wCmd_mqtt_publish
        PUBLIC AppS2wCertificateData
        PUBLIC AppS2wCmad_WeapTimeChk
        PUBLIC AppS2wCmad_WsrvrValidationEn
        PUBLIC AppS2wCmd_Acmode
        PUBLIC AppS2wCmd_AmpduReq
        PUBLIC AppS2wCmd_AmsduReqt
        PUBLIC AppS2wCmd_ApConf
        PUBLIC AppS2wCmd_AssocPSModeSet
        PUBLIC AppS2wCmd_AutoConnect
        PUBLIC AppS2wCmd_BaBitMapSet
        PUBLIC AppS2wCmd_BeaconMissThresholdSet
        PUBLIC AppS2wCmd_BlockAckReq
        PUBLIC AppS2wCmd_CidInfo
        PUBLIC AppS2wCmd_ConfigOutput
        PUBLIC AppS2wCmd_Dgpio
        PUBLIC AppS2wCmd_DhcpSrvr
        PUBLIC AppS2wCmd_DhcpSrvrConfig
        PUBLIC AppS2wCmd_Dns
        PUBLIC AppS2wCmd_DnsLookup
        PUBLIC AppS2wCmd_DnsServerSet
        PUBLIC AppS2wCmd_Echo
        PUBLIC AppS2wCmd_ErrorCount
        PUBLIC AppS2wCmd_ExtFlashChipErase
        PUBLIC AppS2wCmd_ExtFlashErase
        PUBLIC AppS2wCmd_ExtFlashInit
        PUBLIC AppS2wCmd_ExtFlashRead
        PUBLIC AppS2wCmd_ExtFlashSpiConf
        PUBLIC AppS2wCmd_ExtFlashWrite
        PUBLIC AppS2wCmd_FrameTxFailCntLmitSet
        PUBLIC AppS2wCmd_GoOnline
        PUBLIC AppS2wCmd_Hibernate
        PUBLIC AppS2wCmd_HttpClientClose
        PUBLIC AppS2wCmd_HttpClientConfig
        PUBLIC AppS2wCmd_HttpClientConfigDel
        PUBLIC AppS2wCmd_HttpClientOpen
        PUBLIC AppS2wCmd_HttpClientSend
        PUBLIC AppS2wCmd_IdOutput
        PUBLIC AppS2wCmd_IpMulticastJoin
        PUBLIC AppS2wCmd_IpMulticastLeave
        PUBLIC AppS2wCmd_McastRecvSet
        PUBLIC AppS2wCmd_Nauto
        PUBLIC AppS2wCmd_Nclose
        PUBLIC AppS2wCmd_Ncloseall
        PUBLIC AppS2wCmd_NcmAuto
        PUBLIC AppS2wCmd_NcmAutoConf
        PUBLIC AppS2wCmd_Nctcp
        PUBLIC AppS2wCmd_Ncudp
        PUBLIC AppS2wCmd_Nstcp
        PUBLIC AppS2wCmd_Nsudp
        PUBLIC AppS2wCmd_NwConnRestore
        PUBLIC AppS2wCmd_NwConnStore
        PUBLIC AppS2wCmd_OtaFwupConf
        PUBLIC AppS2wCmd_OtaFwupExtFlashStart
        PUBLIC AppS2wCmd_OtaFwupRollBack
        PUBLIC AppS2wCmd_Ping
        PUBLIC AppS2wCmd_PowerSave
        PUBLIC AppS2wCmd_PowerSaveDpsleep
        PUBLIC AppS2wCmd_PowerSaveStby
        PUBLIC AppS2wCmd_Psk
        PUBLIC AppS2wCmd_RadioStateGet
        PUBLIC AppS2wCmd_RegDomainSet
        PUBLIC AppS2wCmd_RtsEnable
        PUBLIC AppS2wCmd_SSLClose
        PUBLIC AppS2wCmd_SSLOpen
        PUBLIC AppS2wCmd_SecuritySet
        PUBLIC AppS2wCmd_SetSockOp
        PUBLIC AppS2wCmd_Settings
        PUBLIC AppS2wCmd_SoftFlow
        PUBLIC AppS2wCmd_SslCertificateAdd
        PUBLIC AppS2wCmd_SslCertificateDelete
        PUBLIC AppS2wCmd_SystemTimeGet
        PUBLIC AppS2wCmd_SystemTimeSet
        PUBLIC AppS2wCmd_TempGet
        PUBLIC AppS2wCmd_TempReadStart
        PUBLIC AppS2wCmd_TkipContrMsrStart
        PUBLIC AppS2wCmd_TkipSeqNumGet
        PUBLIC AppS2wCmd_Verbose
        PUBLIC AppS2wCmd_Wassoc_test
        PUBLIC AppS2wCmd_Wauth
        PUBLIC AppS2wCmd_Wauto
        PUBLIC AppS2wCmd_WlanRecvFiltrSet
        PUBLIC AppS2wCmd_WpaPsk
        PUBLIC AppS2wCmd_Wphymode
        PUBLIC AppS2wCmd_Wpower
        PUBLIC AppS2wCmd_Wrate
        PUBLIC AppS2wCmd_Wretry
        PUBLIC AppS2wCmd_WwepConf
        PUBLIC AppS2wCmd_Wwpa
        PUBLIC AppS2wCmd_ieeePsPollSet
        PUBLIC AppS2wCmd_ntpTimeSet
        PUBLIC AppS2wCmd_reset
        PUBLIC AppS2wCmd_scanTimeSet
        PUBLIC AppS2wCommand_Process
        PUBLIC AppS2wExternalFlashData
        PUBLIC AppS2wHal_CoapContentDataGet
        PUBLIC AppS2wHal_httpContentDataGet
        PUBLIC AppS2wHdrAndIpv4_Print
        PUBLIC AppS2wHex_Print
        PUBLIC AppS2wIp_Print
        PUBLIC AppS2wNcmProfile_Display
        PUBLIC AppS2wNetConnMgr_Cb
        PUBLIC AppS2wProcess_SntpTimerNotify
        PUBLIC AppS2wProfile_Display
        PUBLIC AppS2wRegisters_Display
        PUBLIC AppS2wScanResult_Print
        PUBLIC AppS2wScan_Notification
        PUBLIC AppS2wSecurity_Display
        PUBLIC AppS2w_ConctCbProcess
        PUBLIC AppS2w_HangUp
        PUBLIC AppS2w_NcmL3ConnProcess
        PUBLIC AppS2w_PingTaskNotify
        PUBLIC AppS2w_PingThreadCreate
        PUBLIC AppS2w_WlanRespTmrCb
        PUBLIC App_ClkTuneCmd
        PUBLIC DHCP_notify
        PUBLIC DNSv4ServerAddr
        PUBLIC DNSv6ServerAddr
        PUBLIC GsnFlashIf_PioTxFifoWrite
        PUBLIC GsnIoMux_PullDownDisable
        PUBLIC GsnIoMux_PullDownEnable
        PUBLIC GsnIoMux_Sel
        PUBLIC GsnOsal_IntrDisable
        PUBLIC GsnOsal_IntrEnable
        PUBLIC GsnOsal_SemAcquire
        PUBLIC GsnOsal_SemRelease
        PUBLIC GsnOsal_ThreadCreate
        PUBLIC L2ConnectStatus
        PUBLIC L3ConnectStatus
        PUBLIC L3ConnectStatus_v6
        PUBLIC L3Dhcpv6Status
        PUBLIC OtaFwupConfParam
        PUBLIC S2WError_List
        PUBLIC S2W_DNS_CLIENT_FALGS
        PUBLIC S2wDnsConfigGet
        PUBLIC S2wL3Wait
        PUBLIC S2wRateValidation
        PUBLIC S2w_CmdBulkDataState
        PUBLIC S2w_CmdSyncLossIntrvlSet
        PUBLIC S2w_getApSecurityConfig
        PUBLIC S2w_getSecurityConfig
        PUBLIC apModeBeaconIntrl
        PUBLIC app_adc_data
        PUBLIC certFile
        PUBLIC certFileSize
        PUBLIC certFormat
        PUBLIC certIndex
        PUBLIC current_wlan_info
        PUBLIC dhcpServerFlags
        PUBLIC dhcpSrvr
        PUBLIC dhcpSrvrCfg
        PUBLIC dhcpv6ClientStack
        PUBLIC dnsServer
        PUBLIC extFlashFileSize
        PUBLIC extFlashGetDatabuf
        PUBLIC globalUseHRssi
        PUBLIC headerTypes
        PUBLIC headerTypesModified
        PUBLIC headerValues
        PUBLIC httpConfAtCmd
        PUBLIC httpConfInfo
        PUBLIC memcpy
        PUBLIC memset
        PUBLIC ncmAutoMode
        PUBLIC ncmautoconnectcount
        PUBLIC optionHead
        PUBLIC pingThreadCreated
        PUBLIC pingThreadMsgQueue
        PUBLIC pingThreadMsgQueueBuf
        PUBLIC pingThreadStack
        PUBLIC readBuffer
        PUBLIC s2wCurrent
        PUBLIC s2wDhcpv6Stop
        PUBLIC s2wPingStarted
        PUBLIC s2wScanResult_Print
        PUBLIC s2wScanUserEntryBuff
        PUBLIC s2wWepKeyAscii
        PUBLIC scanDisplayAllCount
        PUBLIC scanDisplayInfoCount
        PUBLIC spiFlag
        PUBLIC stbySuccess
        PUBLIC writeAddr
        
          CFI Names cfiNames0
          CFI StackFrame CFA R13 DATA
          CFI Resource R0:32, R1:32, R2:32, R3:32, R4:32, R5:32, R6:32, R7:32
          CFI Resource R8:32, R9:32, R10:32, R11:32, R12:32, R13:32, R14:32
          CFI EndNames cfiNames0
        
          CFI Common cfiCommon0 Using cfiNames0
          CFI CodeAlign 2
          CFI DataAlign 4
          CFI ReturnAddress R14 CODE
          CFI CFA R13+0
          CFI R0 Undefined
          CFI R1 Undefined
          CFI R2 Undefined
          CFI R3 Undefined
          CFI R4 SameValue
          CFI R5 SameValue
          CFI R6 SameValue
          CFI R7 SameValue
          CFI R8 SameValue
          CFI R9 SameValue
          CFI R10 SameValue
          CFI R11 SameValue
          CFI R12 Undefined
          CFI R14 SameValue
          CFI EndCommon cfiCommon0
        
        
          CFI Common cfiCommon1 Using cfiNames0
          CFI CodeAlign 2
          CFI DataAlign 4
          CFI ReturnAddress R14 CODE
          CFI CFA R13+0
          CFI R0 SameValue
          CFI R1 SameValue
          CFI R2 SameValue
          CFI R3 SameValue
          CFI R4 SameValue
          CFI R5 SameValue
          CFI R6 SameValue
          CFI R7 SameValue
          CFI R8 SameValue
          CFI R9 SameValue
          CFI R10 SameValue
          CFI R11 SameValue
          CFI R12 SameValue
          CFI R14 SameValue
          CFI EndCommon cfiCommon1
        
// E:\Gainspan\gs2011mxx_SDK_s2w_tls_tlslp_5.1.5_GA\userapps_mqtt\s2w\src\parser\s2w_general_command.c
//    1 /*****************************************************************
//    2  *
//    3 *               COPYRIGHT (c) 20012-2013 GainSpan Corporation
//    4 *                         All Rights Reserved
//    5 *
//    6 * The source code contained or described herein and all documents
//    7 * related to the source code ("Material") are owned by GainSpan
//    8 * Corporation or its licensors.  Title to the Material remains
//    9 * with GainSpan Corporation or its suppliers and licensors.
//   10 *
//   11 * The Material is protected by worldwide copyright and trade secret
//   12 * laws and treaty provisions. No part of the Material may be used,
//   13 * copied, reproduced, modified, published, uploaded, posted, transmitted,
//   14 * distributed, or disclosed in any way except in accordance with the
//   15 * applicable license agreement.
//   16 *
//   17 * No license under any patent, copyright, trade secret or other
//   18 * intellectual property right is granted to or conferred upon you by
//   19 * disclosure or delivery of the Materials, either expressly, by
//   20 * implication, inducement, estoppel, except in accordance with the
//   21 * applicable license agreement.
//   22 *
//   23 * Unless otherwise agreed by GainSpan in writing, you may not remove or
//   24 * alter this notice or any other notice embedded in Materials by GainSpan
//   25 * or GainSpan's suppliers or licensors in any way.
//   26 *
//   27 * $RCSfile: s2w_general_command.c,v $
//   28 *
//   29 * Description : s2w command interprter file
//   30 ******************************************************************/
//   31 
//   32 
//   33 /*****************************************************************
//   34   * File Inclusions
//   35   *****************************************************************/
//   36 #include "time.h"
//   37 #include <ctype.h>
//   38 #include <string.h>

        SECTION `.text`:CODE:REORDER:NOROOT(1)
        SECTION_GROUP memcpy
          CFI Block cfiBlock0 Using cfiCommon0
          CFI Function memcpy
        THUMB
// __intrinsic __nounwind __interwork __softfp void *memcpy(void *, void const *, size_t)
memcpy:
        PUSH     {R4,LR}
          CFI R14 Frame(CFA, -4)
          CFI R4 Frame(CFA, -8)
          CFI CFA R13+8
        MOV      R4,R0
          CFI FunCall __aeabi_memcpy
        BL       __aeabi_memcpy
        MOV      R0,R4
        POP      {R4,PC}          ;; return
          CFI EndBlock cfiBlock0

        SECTION `.text`:CODE:REORDER:NOROOT(1)
        SECTION_GROUP memset
          CFI Block cfiBlock1 Using cfiCommon0
          CFI Function memset
        THUMB
// __intrinsic __nounwind __interwork __softfp void *memset(void *, int, size_t)
memset:
        PUSH     {R4,LR}
          CFI R14 Frame(CFA, -4)
          CFI R4 Frame(CFA, -8)
          CFI CFA R13+8
        MOV      R4,R0
        MOV      R0,R2
        MOV      R2,R1
        MOV      R1,R0
        MOV      R0,R4
          CFI FunCall __aeabi_memset
        BL       __aeabi_memset
        MOV      R0,R4
        POP      {R4,PC}          ;; return
          CFI EndBlock cfiBlock1
//   39 #include "gsn_includes.h"

        SECTION `.text`:CODE:REORDER:NOROOT(1)
        SECTION_GROUP GsnOsal_IntrDisable
          CFI Block cfiBlock2 Using cfiCommon0
          CFI Function GsnOsal_IntrDisable
        THUMB
// __interwork __softfp int GsnOsal_IntrDisable(void)
GsnOsal_IntrDisable:
        MOVS     R0,#+1
          CFI FunCall _tx_thread_interrupt_control
        B.W      _tx_thread_interrupt_control
          CFI EndBlock cfiBlock2

        SECTION `.text`:CODE:REORDER:NOROOT(1)
        SECTION_GROUP GsnOsal_IntrEnable
          CFI Block cfiBlock3 Using cfiCommon0
          CFI Function GsnOsal_IntrEnable
          CFI FunCall _tx_thread_interrupt_control
        THUMB
// __interwork __softfp void GsnOsal_IntrEnable(int)
GsnOsal_IntrEnable:
        B.W      _tx_thread_interrupt_control
          CFI EndBlock cfiBlock3

        SECTION `.text`:CODE:REORDER:NOROOT(1)
        SECTION_GROUP GsnOsal_ThreadCreate
          CFI Block cfiBlock4 Using cfiCommon0
          CFI Function GsnOsal_ThreadCreate
        THUMB
// __interwork __softfp GSN_STATUS_T GsnOsal_ThreadCreate(void (*)(UINT32), void *, TX_THREAD *, unsigned char const *, UINT8, unsigned char *, UINT32, GSN_OSAL_THREAD_INITIAL_STATE_T)
GsnOsal_ThreadCreate:
        PUSH     {R4-R7,LR}
          CFI R14 Frame(CFA, -4)
          CFI R7 Frame(CFA, -8)
          CFI R6 Frame(CFA, -12)
          CFI R5 Frame(CFA, -16)
          CFI R4 Frame(CFA, -20)
          CFI CFA R13+20
        SUB      SP,SP,#+28
          CFI CFA R13+48
        MOV      R4,R0
        MOV      R0,R2
        LDR      R2,[SP, #+60]
        LDR      R6,[SP, #+52]
        LDR      R7,[SP, #+56]
        STR      R2,[SP, #+20]
        MOV      R5,R3
        LDR      R3,[SP, #+48]
        STR      R3,[SP, #+12]
        MOVS     R2,#+0
        STR      R3,[SP, #+8]
        STR      R2,[SP, #+16]
        MOV      R3,R1
        STR      R7,[SP, #+4]
        STR      R6,[SP, #+0]
        MOV      R2,R4
        MOV      R1,R5
          CFI FunCall _tx_thread_create
        BL       _tx_thread_create
        CBZ.N    R0,??GsnOsal_ThreadCreate_0
        ADD      R0,R0,#-1879048192
        ADD      R0,R0,#+256
??GsnOsal_ThreadCreate_0:
        ADD      SP,SP,#+28
          CFI CFA R13+20
        POP      {R4-R7,PC}       ;; return
          CFI EndBlock cfiBlock4

        SECTION `.text`:CODE:REORDER:NOROOT(1)
        SECTION_GROUP GsnOsal_SemAcquire
          CFI Block cfiBlock5 Using cfiCommon0
          CFI Function GsnOsal_SemAcquire
        THUMB
// __interwork __softfp GSN_STATUS_T GsnOsal_SemAcquire(TX_SEMAPHORE *, UINT32)
GsnOsal_SemAcquire:
        PUSH     {R7,LR}
          CFI R14 Frame(CFA, -4)
          CFI CFA R13+8
          CFI FunCall _tx_semaphore_get
        BL       _tx_semaphore_get
        CBZ.N    R0,??GsnOsal_SemAcquire_0
        ADD      R0,R0,#-1879048192
        ADD      R0,R0,#+256
??GsnOsal_SemAcquire_0:
        POP      {R1,PC}          ;; return
          CFI EndBlock cfiBlock5

        SECTION `.text`:CODE:REORDER:NOROOT(1)
        SECTION_GROUP GsnOsal_SemRelease
          CFI Block cfiBlock6 Using cfiCommon0
          CFI Function GsnOsal_SemRelease
        THUMB
// __interwork __softfp GSN_STATUS_T GsnOsal_SemRelease(TX_SEMAPHORE *)
GsnOsal_SemRelease:
        PUSH     {R7,LR}
          CFI R14 Frame(CFA, -4)
          CFI CFA R13+8
          CFI FunCall _tx_semaphore_put
        BL       _tx_semaphore_put
        CBZ.N    R0,??GsnOsal_SemRelease_0
        ADD      R0,R0,#-1879048192
        ADD      R0,R0,#+256
??GsnOsal_SemRelease_0:
        POP      {R1,PC}          ;; return
          CFI EndBlock cfiBlock6

        SECTION `.text`:CODE:REORDER:NOROOT(2)
        SECTION_GROUP GsnIoMux_Sel
          CFI Block cfiBlock7 Using cfiCommon0
          CFI Function GsnIoMux_Sel
          CFI NoCalls
        THUMB
// __interwork __softfp void GsnIoMux_Sel(UINT32, UINT32)
GsnIoMux_Sel:
        LDR.N    R2,??GsnIoMux_Sel_0  ;; 0x40160000
        STR      R1,[R2, R0, LSL #+2]
        BX       LR               ;; return
        DATA
??GsnIoMux_Sel_0:
        DC32     0x40160000
          CFI EndBlock cfiBlock7

        SECTION `.text`:CODE:REORDER:NOROOT(2)
        SECTION_GROUP GsnIoMux_PullDownEnable
          CFI Block cfiBlock8 Using cfiCommon0
          CFI Function GsnIoMux_PullDownEnable
        THUMB
// __interwork __softfp void GsnIoMux_PullDownEnable(UINT32)
GsnIoMux_PullDownEnable:
        PUSH     {R4,LR}
          CFI R14 Frame(CFA, -4)
          CFI R4 Frame(CFA, -8)
          CFI CFA R13+8
        MOV      R4,R0
          CFI FunCall GsnOsal_IntrDisable
        BL       GsnOsal_IntrDisable
        MOVS     R2,#+1
        LDR.N    R1,??GsnIoMux_PullDownEnable_0  ;; 0x40160200
        CMP      R4,#+32
        BCS.N    ??GsnIoMux_PullDownEnable_1
        LDR      R3,[R1, #+0]
        LSLS     R2,R2,R4
        BIC      R2,R3,R2
        STR      R2,[R1, #+0]
        B.N      ??GsnIoMux_PullDownEnable_2
??GsnIoMux_PullDownEnable_1:
        SUBS     R4,R4,#+32
        LDR      R3,[R1, #+4]
        LSLS     R2,R2,R4
        BIC      R2,R3,R2
        STR      R2,[R1, #+4]
??GsnIoMux_PullDownEnable_2:
        POP      {R4,LR}
          CFI R4 SameValue
          CFI R14 SameValue
          CFI CFA R13+0
          CFI FunCall GsnOsal_IntrEnable
        B.W      GsnOsal_IntrEnable
        DATA
??GsnIoMux_PullDownEnable_0:
        DC32     0x40160200
          CFI EndBlock cfiBlock8

        SECTION `.text`:CODE:REORDER:NOROOT(2)
        SECTION_GROUP GsnIoMux_PullDownDisable
          CFI Block cfiBlock9 Using cfiCommon0
          CFI Function GsnIoMux_PullDownDisable
        THUMB
// __interwork __softfp void GsnIoMux_PullDownDisable(UINT32)
GsnIoMux_PullDownDisable:
        PUSH     {R4,LR}
          CFI R14 Frame(CFA, -4)
          CFI R4 Frame(CFA, -8)
          CFI CFA R13+8
        MOV      R4,R0
          CFI FunCall GsnOsal_IntrDisable
        BL       GsnOsal_IntrDisable
        MOVS     R2,#+1
        LDR.N    R1,??GsnIoMux_PullDownDisable_0  ;; 0x40160200
        CMP      R4,#+32
        BCS.N    ??GsnIoMux_PullDownDisable_1
        LDR      R3,[R1, #+0]
        LSLS     R2,R2,R4
        ORRS     R2,R2,R3
        STR      R2,[R1, #+0]
        B.N      ??GsnIoMux_PullDownDisable_2
??GsnIoMux_PullDownDisable_1:
        SUBS     R4,R4,#+32
        LDR      R3,[R1, #+4]
        LSLS     R2,R2,R4
        ORRS     R2,R2,R3
        STR      R2,[R1, #+4]
??GsnIoMux_PullDownDisable_2:
        POP      {R4,LR}
          CFI R4 SameValue
          CFI R14 SameValue
          CFI CFA R13+0
          CFI FunCall GsnOsal_IntrEnable
        B.W      GsnOsal_IntrEnable
        DATA
??GsnIoMux_PullDownDisable_0:
        DC32     0x40160200
          CFI EndBlock cfiBlock9

        SECTION `.text`:CODE:REORDER:NOROOT(2)
        SECTION_GROUP GsnFlashIf_PioTxFifoWrite
          CFI Block cfiBlock10 Using cfiCommon0
          CFI Function GsnFlashIf_PioTxFifoWrite
          CFI NoCalls
        THUMB
// __interwork __softfp void GsnFlashIf_PioTxFifoWrite(UINT32)
GsnFlashIf_PioTxFifoWrite:
        LDR.N    R1,??GsnFlashIf_PioTxFifoWrite_0  ;; 0x400e0004
??GsnFlashIf_PioTxFifoWrite_1:
        LDR      R2,[R1, #+0]
        ANDS     R2,R2,#0x1
        BEQ.N    ??GsnFlashIf_PioTxFifoWrite_1
        LDR.N    R1,??GsnFlashIf_PioTxFifoWrite_0+0x4  ;; 0x400e0400
        STR      R0,[R1, #+0]
        BX       LR               ;; return
        DATA
??GsnFlashIf_PioTxFifoWrite_0:
        DC32     0x400e0004
        DC32     0x400e0400
          CFI EndBlock cfiBlock10
//   40 #include "gsn_version.h"
//   41 #include "hal/s2w.h"
//   42 #include "hal/s2w_types.h"
//   43 #include "hal/s2w_hal.h"
//   44 #include "hal/s2w_timer.h"
//   45 #include "parser/s2w_parse.h"
//   46 #include "parser/s2w_process.h"
//   47 #include "parser/s2w_command.h"
//   48 #include "hal/s2w_net.h"
//   49 #include "main/app_main_ctx.h"
//   50 
//   51 #include "config/app_ncm_config.h"
//   52 #include "config/app_resource_config.h"
//   53 #include "main/app_main_ctx.h"
//   54 #include "hal/s2w_cert_mgmt.h"
//   55 #include "modules/http/gsn_httpc.h"
//   56 
//   57 #include "config/app_stat_config.h"
//   58 #include "app_rtc_mem.h"
//   59 #include "app_events.h"
//   60 #include "app_defines_builder.h"
//   61 #include "fs/api/api_safe.h"
//   62 
//   63 #include "hal/s2w_config.h"
//   64 
//   65 #include "fs/api/api_safe.h"
//   66 #include "fs/safe-flash/nor/flashdrv.h"
//   67 
//   68 #include "gslink\app_mcu_def.h"
//   69 
//   70 #include "app_rtc_mem.h"
//   71 #include "emu/app_emu.h"
//   72 
//   73 #include "gsn_ncm.h"
//   74 #include "gsn_ncm_roam.h"
//   75 #include "modules/pwr_mgmt/gsn_pwr_mgmt.h"
//   76 
//   77 #include "modules/coap/gsn_coap.h"
//   78 #include "modules/coap/gsn_coap_impl.h"
//   79 
//   80 #include "clk_tune/app_clk_tune.h"
//   81 #ifdef S2W_IPv6_SUPPORT
//   82 #include "modules/dhcpv6_server/gsn_dhcpv6_server.h"
//   83 #endif
//   84 #include "ext_app/app_ext_flash.h"
//   85 #include "main/gsn_br_flashldr.h"
//   86 #include "modules/fwup/gsn_fwup.h"
//   87 
//   88 #include "mqtt_main/mqtt_main.h"
//   89 //#include "mqtt/libmqtt.h"
//   90 //#include "linked_list/linked_list.h"
//   91 //#include "one_wire/one_wire.h"
//   92 /**
//   93  ******************************************************************************
//   94  * @file s2w_general_command.c
//   95  * @brief s2w Application command file.
//   96  *    This file contains the function implementation for each AT command.
//   97  ******************************************************************************/
//   98 
//   99 /*****************************************************************************
//  100   *  Public Variables
//  101   ****************************************************************************/
//  102 //#define EXTFLASH_DRIVER_TEST
//  103 //#define EXT_FLASH_CMD_ENABLE
//  104 extern S2W_PROFILE_PARAMS_T profile_params;

        SECTION `.bss`:DATA:REORDER:NOROOT(0)
//  105 UINT8 s2wWepKeyAscii =0;
s2wWepKeyAscii:
        DS8 1
//  106 extern S2W_EXTFLASH_CMD_T s2wExtFlashCmdTable[6];
//  107 #ifdef S2W_SECURITY_WPS_ENABLE
//  108 extern UINT32 wpsConnDone;
//  109 #endif
//  110 extern UINT8 curCid;
//  111 extern APP_MAIN_CTX_T *s2wappMainTaskCtxt;

        SECTION `.data`:DATA:REORDER:NOROOT(2)
//  112 UINT32 certIndex = S2W_INVALID_CERT_INDEX, certFormat, certFileSize;
certIndex:
        DATA
        DC32 4294967295
certFormat:
        DC8 0, 0, 0, 0
certFileSize:
        DC8 0, 0, 0, 0
//  113 F_FILE *certFile;
certFile:
        DC8 0, 0, 0, 0
//  114 
//  115 
//  116 extern GSN_OSAL_SEM_T s2wL2L3ConnectSemaphore;
//  117 
//  118 extern S2W_CID_T s2wCidList[];
//  119 
//  120 #ifdef S2W_PING_TRACE
//  121 UINT8 s2wPingStarted;
//  122 #endif
//  123 extern UINT8 s2wUserInitNetOpen;
//  124 extern S2W_SSL_CERT_SRAM_TABLE_T s2w_ssl_cert_table[];
//  125 extern S2W_LINK_STATE_T s2wLinkState ;
//  126 extern S2W_SERIAL_PORT_HANDLE_T  s2wSerialPortHandle;
//  127 extern S2W_SERIAL_PORT_HANDLE_T  s2wSerialPortHandle1;
//  128 
//  129 extern GSN_OSAL_SEM_T stbyDelaySemaphore;
//  130 #ifdef S2W_NCM_SUPPORT_ENABLE
//  131 extern S2W_TIMER_T acNcmTimer;
//  132 #endif
//  133 
//  134 
//  135 NXD_ADDRESS             DNSv6ServerAddr[2];
//  136 UINT32                  DNSv4ServerAddr[2];
//  137 UINT8                   S2W_DNS_CLIENT_FALGS;
//  138 
//  139 #define S2W_DNS_CLIENT_ENABLED          0x01
//  140 #define S2W_DNSv6_SERVER_SET            0x02
//  141 #define S2W_DNSv4_SERVER_SET            0x04
//  142 #define S2W_DNS_REQ_DEF_TIME_OUT        5
//  143 #define S2W_DNS_REQ_DEF_RETRIES         3
//  144 
//  145 
//  146 UINT8 stbySuccess=0;

        SECTION `.data`:DATA:REORDER:NOROOT(2)
//  147 UINT32 apModeBeaconIntrl=100;
apModeBeaconIntrl:
        DATA
        DC32 100
//  148 UINT8 globalUseHRssi=0;
//  149 /*__no_init*/ S2W_PROFILE_T s2wCurrent;
//  150 
//  151 #ifdef S2W_DNS_SERVER_ENABLE
//  152 GSN_DNS_SERVER_T dnsServer;
//  153 #endif
//  154 
//  155 #ifdef S2W_DHCP_SERVER_ENABLE
//  156 
//  157 
//  158 UINT8 dhcpServerFlags;

        SECTION `.noinit`:DATA:REORDER:NOROOT(3)
//  159 __no_init GSN_DHCP_SRVR_T dhcpSrvr;
//  160 __no_init GSN_DHCP_SRVR_CFG_T dhcpSrvrCfg;
dhcpSrvrCfg:
        DS8 48
dhcpSrvr:
        DS8 1136

        SECTION `.bss`:DATA:REORDER:NOROOT(2)
s2wPingStarted:
        DS8 1
        DS8 3
//  161 
//  162 #endif
//  163 
//  164 #ifdef S2W_IPv6_SUPPORT
//  165 GSN_DHCPv6_SERVER_T serverId;
//  166 #endif
//  167 
//  168 UINT32 S2wL3Wait;
//  169 extern GSN_OSAL_SEM_T s2wL2L3ConnectSemaphore;
//  170 
//  171 
//  172 #define HTTP_SEND_CHUNK_SIZE    1000
//  173 
//  174 /* data structure to hold current wireless info
//  175  */
//  176 S2W_WLANINFO_T current_wlan_info;
//  177 
//  178 #ifdef S2W_EMU
//  179 /*buffers to for emu*/
//  180 __no_init UINT16 s2w_emu_buf1[1000],s2w_emu_buf2[1000],s2w_emu_buf3[1000],s2w_emu_buf4[1000];
//  181 UINT32 adcSize = 1000;
//  182 
//  183 #endif
//  184 
//  185 #ifdef S2W_PING_TRACE
//  186 
//  187 PUBLIC GSN_OSAL_QUEUE_T pingThreadMsgQueue;
//  188 UINT8 * pingThreadMsgQueueBuf;
//  189 
//  190 PRIVATE GSN_OSAL_THREAD_TCB_T pingThread;
//  191 
//  192 UINT8 * pingThreadStack;
//  193 UINT32 pingThreadCreated = 0;
pingThreadCreated:
        DS8 4

        SECTION `.bss`:DATA:REORDER:NOROOT(2)
DNSv6ServerAddr:
        DS8 40

        SECTION `.bss`:DATA:REORDER:NOROOT(2)
S2W_DNS_CLIENT_FALGS:
        DS8 1
dhcpServerFlags:
        DS8 1
        DS8 2
DNSv4ServerAddr:
        DS8 8

        SECTION `.bss`:DATA:REORDER:NOROOT(0)
stbySuccess:
        DS8 1

        SECTION `.bss`:DATA:REORDER:NOROOT(3)
s2wCurrent:
        DS8 1016
current_wlan_info:
        DS8 44
dnsServer:
        DS8 96

        SECTION `.bss`:DATA:REORDER:NOROOT(2)
pingThreadMsgQueueBuf:
        DS8 4
pingThreadStack:
        DS8 4
pingThreadMsgQueue:
        DS8 56
        DS8 180
//  194 
//  195 #endif
//  196 
//  197 /*****************************************************************************
//  198   *  Private Variables
//  199   ****************************************************************************/
//  200 
//  201 /*   Structure definitions for command table   */
//  202 struct S2W_CMD
//  203 {
//  204     const char *cmd;                /**< Command string */
//  205     UINT8 (*process) (UINT8 *ptr);  /**< Command handler */
//  206 };
//  207 
//  208 
//  209 /*****************************************************************************
//  210   *  Private Definitions
//  211   ****************************************************************************/
//  212 
//  213 
//  214     
//  215 #define S2W_MAX_CH 11   
//  216 extern GSN_OSAL_SEM_T stScanSemaphore;
//  217 extern UINT8 s2wAutoConnState ;
//  218 
//  219 extern VOID
//  220 AppMcu_RespTimeoutCb( VOID* context,GSN_SOFT_TMR_HANDLE_T timerHandle );
//  221 extern VOID
//  222 App_InterfaceStop(APP_MAIN_CTX_T *pAppCtx, APP_IF_INFO_T *pIfInfo);
//  223 extern VOID
//  224 App_InterfaceStart(APP_MAIN_CTX_T *pAppCtx, APP_IF_INFO_T *pIfInfo);
//  225 extern VOID
//  226 App_IfReinit(APP_MAIN_CTX_T *pAppCtx, APP_IF_INFO_T *pIfInfo);
//  227 
//  228 extern S2W_SCAN_DISPLAY_INFO_T scanDisplayInfo[20];
//  229 

        SECTION `.bss`:DATA:REORDER:NOROOT(0)
//  230 UINT8 scanDisplayInfoCount=0,scanDisplayAllCount=0;
scanDisplayInfoCount:
        DS8 1
scanDisplayAllCount:
        DS8 1
//  231 

        SECTION `.noinit`:DATA:REORDER:NOROOT(2)
//  232 __no_init GSN_WDD_SCAN_ENTRY_T s2wScanUserEntryBuff[2];
s2wScanUserEntryBuff:
        DS8 1116
//  233 
//  234 void S2w_getDhcpv6Clientconfig(GSN_NWIF_DHCP_PARAMS_T *dhcpv6Params);
//  235 
//  236 VOID AppS2w_ConctCbProcess(VOID* ctext,INT32 status);
//  237 extern void nx_dns_retry_count_set(NX_DNS *dns_ptr,UINT retries);
//  238 
//  239 void GsnHeIf_DriverSuspend();
//  240 extern INT8 GsnIntTempSen_Get();
//  241 
//  242 /*****************************************************************************
//  243   *  Private Functions
//  244   ****************************************************************************/
//  245 
//  246 
//  247 VOID
//  248 AppS2wRegisters_Display(const S2W_PROFILE_T *profile);
//  249 PRIVATE UINT8
//  250 AppS2wCmd_Wmode(UINT8 *ptr);
//  251 
//  252 PRIVATE UINT8
//  253 AppS2wCmd_Wscan(UINT8 *ptr);
//  254 
//  255 PRIVATE UINT8
//  256 AppS2wCmd_Wassoc(UINT8 *ptr);
//  257 
//  258 
//  259 PRIVATE UINT8
//  260 AppS2wCmd_Write(UINT8 *ptr);
//  261 
//  262 PRIVATE UINT8
//  263 AppS2wCmd_read(UINT8 *ptr);
//  264 
//  265 PRIVATE UINT8
//  266 AppS2wCmd_Nset(UINT8 *ptr);
//  267 
//  268 PRIVATE UINT8
//  269 AppS2wCmd_Nmac(UINT8 *ptr);
//  270 
//  271 UINT8
//  272 AppS2wCmd_OtaFwupConf(UINT8* ptr);
//  273 
//  274 UINT8
//  275 AppS2wCmd_OtaFwupExtFlashStart(UINT8* ptr);
//  276 
//  277 UINT8
//  278 AppS2wCmd_OtaFwupRollBack(UINT8* ptr);
//  279 
//  280 #ifdef S2W_UART_ENABLE
//  281 PRIVATE UINT8
//  282 AppS2wCmd_BaudRate(UINT8 *ptr);
//  283 PRIVATE UINT8
//  284 AppS2wCmd_UartFifoLevel(UINT8 * ptr);
//  285 
//  286 #endif
//  287 
//  288 PRIVATE UINT8
//  289 AppS2wCmd_SetDefaultProfile(UINT8 *ptr);
//  290 
//  291 PRIVATE UINT8
//  292 AppS2wCmd_Disconnect(UINT8 *ptr);
//  293 
//  294 PRIVATE UINT8
//  295 AppS2wCmd_Factory(UINT8 *ptr);
//  296 
//  297 PRIVATE UINT8
//  298 AppS2wCmd_Wradio(UINT8 *ptr);
//  299 
//  300 #ifndef S2W_IP2WIFI_SUPPORT
//  301 PRIVATE UINT8
//  302 AppS2wCmd_Ndhcp(UINT8 *ptr);
//  303 
//  304 PRIVATE UINT8
//  305 AppS2wCmd_Nstat(UINT8 *ptr);
//  306 #endif
//  307 UINT8
//  308 
//  309 
//  310 
//  311 
//  312 AppS2wCmd_FsTest(UINT8 * ptr);
//  313 
//  314 #if 0
//  315 PRIVATE UINT8
//  316 AppS2wCmd_SslCertificateOpen(UINT8 *ptr);
//  317 #endif
//  318 
//  319 #ifdef S2W_UART_ENABLE
//  320 PRIVATE UINT8
//  321 AppS2wCmd_HardFlow(UINT8 *ptr);
//  322 #endif
//  323 
//  324 PUBLIC UINT8
//  325 AppS2wCmd_Dgpio(UINT8 *ptr);
//  326 
//  327 UINT8
//  328 AppS2wCmd_reset(UINT8* ptr);
//  329 
//  330 PUBLIC UINT8
//  331 AppS2wCmd_SetSockOp(UINT8 *ptr);
//  332 
//  333 PUBLIC UINT8
//  334 AppS2wCmd_AsyncMsgFmt(UINT8 *ptr);
//  335 
//  336 extern APP_MAIN_CTX_T appCtx;
//  337 extern UINT32 nwConfigSuccess;
//  338 
//  339 PUBLIC UINT8
//  340 AppS2wCmd_RfTestStop (UINT8 *ptr);
//  341 PUBLIC UINT8
//  342 AppS2wCmd_RfTestStart (UINT8 *ptr);
//  343 PUBLIC UINT8
//  344 AppS2wCmd_RfTestTxStart(UINT8 *ptr);
//  345 PUBLIC UINT8
//  346 AppS2wCmd_RfTestTx99Start(UINT8 *ptr);
//  347 PUBLIC UINT8
//  348 AppS2wCmd_RfTestTx100Start(UINT8 *ptr);
//  349 PUBLIC UINT8
//  350 AppS2wCmd_RfTestCarrierWaveStart(UINT8 *ptr);
//  351 PUBLIC UINT8
//  352 AppS2wCmd_RfTestRxStart(UINT8 *ptr);
//  353 PUBLIC UINT8
//  354 AppS2wCmd_RfTestTxStop (UINT8 *ptr);
//  355 PUBLIC UINT8
//  356 AppS2wCmd_RfTestRxStop (UINT8 *ptr);
//  357 PUBLIC UINT8 AppS2wCmd_WlanCalib (UINT8 *ptr);
//  358 
//  359 #ifdef S2W_OTP_RDWR_SUPPORT
//  360 UINT8
//  361 AppS2wCmd_WlanOtpWrite (UINT8 *ptr);
//  362 #endif
//  363 UINT8
//  364 AppS2wCmd_WlanOtpRead (UINT8 *ptr);
//  365 
//  366 /* private functions used for call back
//  367  */
//  368 
//  369 VOID PRIVATE
//  370 s2wApp_ConnectCb(VOID* ctext, INT32 status);
//  371 
//  372 VOID
//  373 AppS2w_WlanRespTmrCb(VOID * context,GSN_SOFT_TMR_HANDLE_T timerHandle);
//  374 
//  375 VOID DHCP_notify(INT32 status,void *ctx);
//  376 
//  377 #ifdef S2W_SNTP
//  378 UINT8
//  379 AppS2wCmd_ntpTimeSet(UINT8 *ptr);
//  380 #endif
//  381 
//  382 PRIVATE UINT8
//  383 AppS2wCmd_Weap(UINT8 *ptr);
//  384 
//  385 PRIVATE UINT8
//  386 AppS2wCmd_WeapConf(UINT8 *ptr);
//  387 
//  388 UINT8
//  389 AppS2wCmd_BeaconMissThresholdSet(UINT8 *ptr);
//  390 
//  391 UINT8
//  392 AppS2wCmd_TkipContrMsrStart(UINT8 *ptr);
//  393 
//  394 UINT8
//  395 AppS2wCmd_TkipSeqNumGet(UINT8 *ptr);
//  396 
//  397 UINT8
//  398 AppS2wCmd_WlanStatsGet(UINT8 *ptr);
//  399 
//  400 UINT8
//  401 AppS2wCmd_WlanRecvFiltrSet(UINT8 *ptr);
//  402 
//  403 UINT8
//  404 AppS2wCmd_RtsEnable(UINT8 *ptr);
//  405 
//  406 UINT8
//  407 AppS2wCmd_BlockAckReq(UINT8 *ptr);
//  408 
//  409 UINT8
//  410 AppS2wCmd_AmsduReqt(UINT8 *ptr);
//  411 
//  412 UINT8
//  413 AppS2wCmd_AmpduReq(UINT8 *ptr);
//  414 
//  415 UINT8
//  416 AppS2wCmd_FrameTxFailCntLmitSet(UINT8 *ptr);
//  417 
//  418 UINT8
//  419 AppS2wCmd_SecuritySet(UINT8 *ptr);
//  420 
//  421 UINT8
//  422 AppS2wCmd_Wauth(UINT8 *ptr);
//  423 
//  424 UINT8
//  425 AppS2wCmd_Wwpa(UINT8 *ptr);
//  426 
//  427 UINT8
//  428 AppS2wCmd_WpaPsk(UINT8 *ptr);
//  429 
//  430 UINT8
//  431 AppS2wCmd_Psk(UINT8 *ptr);
//  432 
//  433 UINT8
//  434 AppS2wCmd_Wwep(UINT8 *ptr);
//  435 UINT8
//  436 AppS2wCmd_WwepConf(UINT8 *ptr);
//  437 
//  438 UINT8
//  439 AppS2wCmad_WsrvrValidationEn(UINT8 *ptr);
//  440 
//  441 UINT8
//  442 AppS2wCmad_WeapTimeChk(UINT8 *ptr);
//  443 
//  444 VOID
//  445 AppS2wHal_PsHibernateRequest(S2W_ALARM_INFO_T *alarm);
//  446 
//  447 UINT8 AppS2wCmd_Hibernate(UINT8 *ptr);
//  448 
//  449 #ifdef S2W_COAP_SUPPORT
//  450 
//  451 typedef struct S2W_COAP_OPTION
//  452 {
//  453 	UINT8 optionKey;
//  454 	char *optionValue;
//  455 	struct S2W_COAP_OPTION * next;
//  456 }S2W_COAP_OPTION_T;
//  457 

        SECTION `.bss`:DATA:REORDER:NOROOT(2)
//  458 S2W_COAP_OPTION_T * optionHead;
optionHead:
        DS8 4
//  459 
//  460 #define COAP_POST "POST"
//  461 #define COAP_GET "GET"
//  462 #define COAP_CON "CON"
//  463 #define COAP_NON "NON"
//  464 #define COAP_MAX_RESPONSE_TIMEOUT 60
//  465 PRIVATE UINT8
//  466 AppS2wCmd_CoapOpen(UINT8 *ptr);
//  467 
//  468 PRIVATE UINT8
//  469 AppS2wCmd_CoapClose(UINT8 *ptr);
//  470 
//  471 PRIVATE UINT8
//  472 AppS2wCmd_CoapSetOption(UINT8 *ptr);
//  473 
//  474 PRIVATE UINT8
//  475 AppS2wCmd_CoapRemoveOption(UINT8 *ptr);
//  476 
//  477 PRIVATE UINT8
//  478 AppS2wCmd_CoapSend(UINT8 *ptr);
//  479 
//  480 GSN_COAP_CONTEXT_T*
//  481 AppS2wHal_CoapHandleGet(UINT8 cid);
//  482 
//  483 PUBLIC GSN_COAP_CONN_PARAMS_T*
//  484 AppS2wHal_CoapParamsGet(UINT8 cid);
//  485 #endif
//  486 
//  487 extern UINT8
//  488 AppS2wCmd_MdnsInit(UINT8 *ptr);
//  489 #ifdef S2W_IPv6_SUPPORT
//  490 extern UINT8
//  491 AppS2wCmd_MdnsInitv6(UINT8 *ptr);
//  492 #endif
//  493 extern UINT8
//  494 AppS2wCmd_MdnsDeInit(UINT8 *ptr);
//  495 extern UINT8
//  496 AppS2wCmd_MdnsHostNameReg(UINT8 *ptr);
//  497 extern UINT8
//  498 AppS2wCmd_MdnsServiceReg(UINT8 *ptr);
//  499 extern UINT8
//  500 AppS2wCmd_MdnsHostNmDeReg(UINT8 *ptr);
//  501 extern UINT8
//  502 AppS2wCmd_MdnsSrvDeReg(UINT8 *ptr);
//  503 extern  UINT8
//  504 AppS2wCmd_MdnsAnnounce(UINT8 *ptr);
//  505 extern UINT8
//  506 AppS2wCmd_MdnsAnnounceAll(UINT8 *ptr);
//  507 extern UINT8
//  508 AppS2wCmd_MdnsSrvcDiscover(UINT8 *ptr);
//  509 #if defined (S2W_GSLINK) && defined (S2W_WEB_SERVER)
//  510 extern UINT8
//  511 AppS2wCmd_WebServer(UINT8* ptr);
//  512 #endif
//  513 
//  514 UINT8
//  515 AppS2wCmd_Wphymode(UINT8* ptr);
//  516 
//  517 #ifdef S2W_IPv6_SUPPORT
//  518 
//  519 UINT8
//  520 AppS2wCmd_Nsetv6(UINT8* ptr);
//  521 
//  522 UINT8
//  523 AppS2wCmd_Ndhcpv6(UINT8 *ptr);
//  524 
//  525 #ifdef S2W_PING_TRACE
//  526 UINT8
//  527 AppS2wCmd_Ping(UINT8* ptr);
//  528 #endif
//  529 UINT8
//  530 AppS2wCmd_Ncudpv6(UINT8* ptr);
//  531 
//  532 UINT8
//  533 AppS2wCmd_Nsudpv6(UINT8* ptr);
//  534 
//  535 UINT8
//  536 AppS2wCmd_Nctcpv6(UINT8* ptr);
//  537 
//  538 UINT8
//  539 AppS2wCmd_Nstcpv6(UINT8* ptr);
//  540 
//  541 UINT8
//  542 AppS2wCmd_Dhcpv6Server(UINT8 *ptr);
//  543 #endif //S2W_IPv6_SUPPORT
//  544 
//  545 #ifdef S2W_DNS_CLIENT
//  546 
//  547 UINT8
//  548 AppS2wCmd_DnsLookup(UINT8 *ptr);
//  549 
//  550 #ifdef S2W_IPv6_SUPPORT
//  551 UINT8
//  552 AppS2wCmd_DnsLookupv6(UINT8 *ptr);
//  553 #endif
//  554 UINT8
//  555 AppS2wCmd_DnsServerSet(UINT8 *ptr);
//  556 
//  557 #endif //S2W_DNS_CLIENT
//  558 
//  559 #ifdef S2W_HTTP_CUSTOM_SUPPORT
//  560 extern UINT8
//  561 AppS2wCmd_RecvConf(UINT8 *ptr);
//  562 #endif
//  563 
//  564 #ifdef S2W_GSLINK
//  565 VOID
//  566 AppS2w_HttpdBodyLenSet(S2W_HTTPD_CONTEXT_T *httpdCtx,UINT32 len);
//  567 
//  568 VOID
//  569 AppS2w_HttpdMethodSet(S2W_HTTPD_CONTEXT_T *httpdCtx,UINT8 method);
//  570 #endif
//  571 
//  572 PUBLIC GSN_STATUS
//  573 APPS2w_ExtFlashStart( S2W_OTA_FWUP_CONF_T *pOtaFwupConf);
//  574 
//  575 UINT8
//  576 AppS2wCmd_PowerSaveStby(UINT8 *ptr);
//  577 
//  578 PUBLIC UINT8
//  579 AppS2wCmd_NwConnRestore();
//  580 
//  581 
//  582 
//  583 extern VOID
//  584 AppS2wCmd_GetSecurityString(GSN_WDD_WLAN_CFG_T *WddConf,const char **security );
//  585 UINT8
//  586 AppS2wCmd_Wauto(UINT8* ptr);
//  587 UINT8
//  588 AppS2wCmd_Nauto(UINT8* ptr);
//  589 
//  590 #ifdef S2W_DHCP_SERVER_ENABLE
//  591 PUBLIC UINT8
//  592 AppS2wCmd_DhcpSrvrConfig(UINT8 *ptr);
//  593 
//  594 PUBLIC UINT8
//  595 AppS2wCmd_DhcpSrvr(UINT8 *ptr);
//  596 #endif //S2W_DHCP_SERVER_ENABLE
//  597 
//  598 
//  599 PUBLIC UINT8
//  600 AppS2wCmd_IpMulticastJoin(UINT8 *ptr);
//  601 
//  602 PUBLIC UINT8
//  603 AppS2wCmd_IpMulticastLeave(UINT8 *ptr);
//  604 
//  605 UINT8
//  606 AppS2wCmd_SoftFlow(UINT8 *ptr);
//  607 
//  608 UINT8
//  609 AppS2wCmd_ApClientInfoGet(UINT8 *ptr);
//  610 
//  611 #ifdef S2W_THROUGHPUT_TEST
//  612 UINT8
//  613 AppS2wCmd_SockTpTest(UINT8 *ptr);
//  614 UINT8
//  615 AppS2wCmd_SockTpTestStat(UINT8 * ptr);
//  616 #endif
//  617 
//  618 extern GSN_NOTIFICATION_FUNC_T s2wappMainTaskNotifier;
//  619 
//  620 
//  621 #ifdef S2W_SECURITY_WPS_ENABLE
//  622 PRIVATE UINT8
//  623 AppS2wCmd_Wwps(UINT8 *ptr);
//  624 #endif
//  625 
//  626 #ifdef S2W_EMU
//  627 PRIVATE UINT8
//  628 AppS2wCmd_EmuVer(UINT8 *ptr);
//  629 
//  630 PRIVATE UINT8
//  631 AppS2wCmd_SupportedModules(UINT8 *ptr);
//  632 
//  633 PRIVATE UINT8
//  634 AppS2wCmd_EmuStart(UINT8 *ptr);
//  635 
//  636 PRIVATE UINT8
//  637 AppS2wCmd_EmuStop(UINT8 *ptr);
//  638 
//  639 PRIVATE UINT8
//  640 AppS2wCmd_EmuGetValues(UINT8 *ptr);
//  641 
//  642 PRIVATE UINT8
//  643 AppS2wCmd_EmuGetConf(UINT8 *ptr);
//  644 
//  645 PRIVATE UINT8
//  646 AppS2wCmd_EmuSetConf(UINT8 *ptr);
//  647 
//  648 PRIVATE UINT8
//  649 AppS2wCmd_EmuLoadCtl(UINT8 *ptr);
//  650 
//  651 PRIVATE UINT8
//  652 AppS2wCmd_EmuResetEnergy(UINT8 *ptr);
//  653 
//  654 PRIVATE UINT8
//  655 AppS2wCmd_EmuGetStatus(UINT8 *ptr);
//  656 
//  657 PRIVATE UINT8
//  658 AppS2wCmd_EmuGetInstValues(UINT8 *ptr);
//  659 
//  660 PRIVATE UINT8
//  661 AppS2wCmd_EmuLoadStatus(UINT8 *ptr);
//  662 
//  663 PRIVATE UINT8
//  664 AppS2wCmd_EmuPrint(UINT8 *ptr);
//  665 
//  666 #endif
//  667 
//  668 /*Commands for adc*/
//  669 
//  670 #ifdef S2W_ADC_SUPPORT
//  671 #ifndef GS2100 // adc is not there in 2100
//  672 PRIVATE UINT8
//  673 AppS2wCmd_AdcConf(UINT8 *ptr);
//  674 
//  675 PRIVATE UINT8
//  676 AppS2wCmd_AdcStart(UINT8 *ptr);
//  677 
//  678 PRIVATE UINT8
//  679 AppS2wCmd_AdcRead(UINT8 *ptr);
//  680 
//  681 PRIVATE UINT8
//  682 AppS2wCmd_AdcStop(UINT8 *ptr);
//  683 #endif
//  684 #endif
//  685 
//  686 PUBLIC UINT8 
//  687 AppS2wCmd_PerstTmrStart(UINT8 *ptr);
//  688 PUBLIC UINT8
//  689 AppS2wCmd_PerstTmrStop(UINT8 *ptr);
//  690 PUBLIC UINT8
//  691 AppS2wCmd_PerstTmrDelete(UINT8 *ptr);
//  692 PUBLIC UINT8
//  693 AppS2wCmd_PerstTmrReStart(UINT8 *ptr);
//  694 
//  695 #ifdef S2W_ISOTX_SUPPORT
//  696 UINT8
//  697 AppS2wCmd_IsoTxStart(UINT8 *ptr);
//  698 UINT8
//  699 AppS2wCmd_IsoTxStop(UINT8 *ptr);
//  700 UINT8
//  701 AppS2wCmd_IsoTxConfig(UINT8 *ptr);
//  702 #endif
//  703 
//  704 #ifdef S2W_UNASSOC_TXRX_SUPPORT
//  705 UINT8
//  706 S2w_CmdUnSolicitedTx(UINT8 *ptr);
//  707 UINT8
//  708 S2w_CmdUnSolicitedRx(UINT8 *ptr);
//  709 UINT8
//  710 S2w_CmdUnSolicitedRxstop(UINT8 *ptr);
//  711 #endif
//  712 #ifdef S2W_SNTP
//  713 PRIVATE VOID
//  714 S2wApp_TimeSyncDoneCb(INT32 msg, VOID* context);
//  715 
//  716 PRIVATE VOID
//  717 AppS2w_sntpTimerCb( VOID* context,
//  718     GSN_SOFT_TMR_HANDLE_T timerHandle );
//  719 #endif
//  720 #ifdef S2W_15DOT4_SUPPORT
//  721 UINT8
//  722 AppS2wCmd_154Channel(UINT8 *ptr);
//  723 
//  724 UINT8
//  725 AppS2wCmd_154PanId(UINT8 *ptr);
//  726 
//  727 UINT8
//  728 AppS2wCmd_154ShortAddr(UINT8 *ptr);
//  729 
//  730 UINT8
//  731 AppS2wCmd_154ExtendedAddr(UINT8 *ptr);
//  732 
//  733 UINT8
//  734 AppS2wCmd_154RetryCount(UINT8 *ptr);
//  735 
//  736 UINT8
//  737 AppS2wCmd_154JoinPermit(UINT8 *ptr);
//  738 
//  739 UINT8
//  740 AppS2wCmd_154SupreFrmCfg(UINT8 *ptr);
//  741 UINT8
//  742 AppS2wCmd_154CoordExtndedAddr(UINT8 *ptr);
//  743 UINT8
//  744 AppS2wCmd_154CoordShortAddr(UINT8 *ptr);
//  745 
//  746 UINT8
//  747 AppS2wCmd_154ScanNetwork(UINT8 *ptr);
//  748 
//  749 UINT8
//  750 AppS2wCmd_154JoinNetwork(UINT8 *ptr);
//  751 
//  752 UINT8
//  753 AppS2wCmd_154AddNode(UINT8 *ptr);
//  754 
//  755 UINT8
//  756 AppS2wCmd_154StartNetwork(UINT8 *ptr);
//  757 
//  758 UINT8
//  759 AppS2wCmd_154LeaveNetwork(UINT8 *ptr);
//  760 
//  761 UINT8
//  762 AppS2wCmd_154PollData(UINT8 *ptr);
//  763 
//  764 UINT8
//  765 AppS2wCmd_154DataSend(UINT8 *ptr);
//  766 
//  767 UINT8
//  768 AppS2wCmd_154DataPurge(UINT8 *ptr);
//  769 UINT8
//  770 AppS2wCmd_154RxEnable(UINT8 *ptr);
//  771 PUBLIC UINT8 AppS2wCmd_I154RxTest (UINT8 *ptr);
//  772 PUBLIC UINT8 AppS2wCmd_I154RxTestStop (UINT8 *ptr);
//  773 PUBLIC UINT8 AppS2wCmd_I154TxTest (UINT8 *ptr);
//  774 UINT8
//  775 AppS2wCmd_154GTSReq(UINT8 *ptr);
//  776 UINT8
//  777 AppS2wCmd_154SetReq(UINT8 *ptr);
//  778 UINT8
//  779 AppS2wCmd_154GetReq(UINT8 *ptr);
//  780 UINT8
//  781 AppS2wCmd_154SyncReq(UINT8 *ptr);
//  782 #ifdef GSN_802_15_4_TEST_SUPPORT
//  783 UINT8 AppS2wCmd_154TmrReq(UINT8 *ptr);
//  784 UINT8
//  785 AppS2wCmd_154GenericTest(UINT8 *ptr);
//  786 #endif
//  787 #endif
//  788 
//  789 #ifdef S2W_EXTFLASH_DRIVER_TEST
//  790 UINT8
//  791 AppS2wCmd_ExtFlashInit(UINT8* ptr);
//  792 
//  793 UINT8
//  794 AppS2wCmd_ExtFlashWrite(UINT8* ptr);
//  795 
//  796 UINT8
//  797 AppS2wCmd_ExtFlashRead(UINT8* ptr);
//  798 
//  799 UINT8
//  800 AppS2wCmd_ExtFlashErase(UINT8* ptr);
//  801 
//  802 UINT8
//  803 AppS2wCmd_ExtFlashChipErase(UINT8* ptr);
//  804 
//  805 UINT8
//  806 AppS2wCmd_ExtFlashSpiConf(UINT8* ptr);
//  807 
//  808 #endif
//  809 
//  810 #if defined(S2W_DTLS_CLIENT_SUPPORT)
//  811 UINT8
//  812 AppS2wCmd_DTSLClose(UINT8 *ptr);
//  813 
//  814 UINT8
//  815 AppS2wCmd_DTSLOpen(UINT8 *ptr);
//  816 #endif
//  817 
//  818 UINT8
//  819 S2wRateValidation(UINT32 value);
//  820 
//  821 extern UINT8
//  822 AppS2wCmd_WlanStaPsCfg(UINT8 *ptr);
//  823 
//  824 extern  UINT8
//  825 AppS2wCmd_WlanApPsCfg(UINT8 *ptr);
//  826 
//  827 UINT8
//  828 AppS2wCmd_ieeePsPollSet(UINT8 *ptr);
//  829 UINT8
//  830 S2w_CmdPsPollIntervelset(UINT8 *ptr);
//  831 
//  832 UINT8
//  833 AppS2wCmd_ArpEntrySet(UINT8 *ptr);
//  834 
//  835 UINT8
//  836 AppS2wCmd_ArpEntryDelete(UINT8 *ptr);
//  837 
//  838 UINT8
//  839 AppS2wCmd_ArpAutoSet(UINT8 *ptr);
//  840 
//  841 #ifdef S2W_I2C_SUPPORT
//  842 /*Commands to test I2C*/
//  843 PRIVATE UINT8
//  844 AppS2wCmd_I2cConf(UINT8 *ptr);
//  845 
//  846 PRIVATE UINT8
//  847 AppS2wCmd_I2cStart(UINT8 *ptr);
//  848 
//  849 PRIVATE UINT8
//  850 AppS2wCmd_I2cWrite(UINT8 *ptr);
//  851 
//  852 PRIVATE UINT8
//  853 AppS2wCmd_I2cRead(UINT8 *ptr);
//  854 
//  855 PRIVATE UINT8
//  856 AppS2wCmd_I2cStop(UINT8 *ptr);
//  857 #endif
//  858 UINT8
//  859 AppS2wCmd_BaBitMapSet(UINT8* ptr);
//  860 
//  861 UINT8
//  862 AppS2wCmd_RadioStateGet(UINT8* ptr);
//  863 
//  864 UINT8 AppS2wCmd_ZipScan( UINT8 *ptr );
//  865 UINT8 AppS2wCmd_ZipStart( UINT8 *ptr );
//  866 UINT8 AppS2wCmd_ZipStop( UINT8 *ptr );
//  867 UINT8 AppS2wCmd_ZipSetMacAddr( UINT8 *ptr );
//  868 
//  869 #ifdef S2W_ADC_SUPPORT
//  870 UINT8 App_ClkTuneCmd(UINT8 *ptr);
//  871 #endif
//  872 
//  873 #ifdef GSN_MEM_TRACE
//  874 PUBLIC UINT8
//  875 AppS2wCmd_memTraceGet(UINT8 *ptr);
//  876 #endif
//  877 
//  878 UINT8
//  879 AppS2wCmd_SetAssocTimeout(UINT8 *ptr);
//  880 
//  881 INT32
//  882 App_TemperatureGet();
//  883 
//  884 UINT8 
//  885 AppS2wCmd_TempGet(UINT8 *ptr);
//  886 
//  887 UINT8 
//  888 AppS2wCmd_TempReadStart(UINT8 *ptr);
//  889 
//  890 UINT8
//  891 AppS2wCmd_HwCryptoEn(UINT8 *ptr);
//  892 
//  893 UINT8
//  894 AppS2wCmd_GratArpSend(UINT8 *ptr);
//  895 
//  896 PUBLIC GSN_STATUS_T
//  897 AppTls_TempOrLightGet(UINT32* tlsTempSensorData);
//  898 
//  899 typedef enum S2W_ERROR_CODE
//  900 {
//  901 	S2W_ERROR_CODE_AP_NOT_FOUND = 1,
//  902 	S2W_ERROR_CODE_WLAN_FAIL_TO_CONCT = 2,
//  903 	S2W_ERROR_CODE_WPA_AUTH_FAILURE = 3,
//  904 }S2W_ERROR_CODE_T;
//  905 const char *S2WError_List[] =
//  906 {
//  907 	"\r\nNO ERROR",
//  908 	"\r\nSSID NOT FOUND",
//  909 	"\r\nWLAN CONNECT ERROR",
//  910 	"\r\nWPA AUTH FAIL",
//  911 };
//  912 
//  913 #if defined(S2W_SSL_CLIENT_SUPPORT) || defined(S2W_SSL_SERVER_SUPPORT)
//  914 
//  915 UINT8
//  916 AppS2wCmd_SslConfig(UINT8 *ptr);
//  917 
//  918 #endif
//  919 /**
//  920  ******************************************************************
//  921  * @ingroup S2w-Application
//  922  * @brief Table contains all the Serial2WiFi Host commands and
//  923  *        corresponding call backs to process the command.This array
//  924  *        can be exteded to add more host commands.
//  925  ******************************************************************/
//  926 PRIVATE const struct S2W_CMD s2wCmdTable[] =
//  927 {
//  928     {"+WA=",        AppS2wCmd_Wassoc},
//  929     {"+WPHYMODE=", AppS2wCmd_Wphymode},
//  930     {"+BCONMISSTHRHLD=",   AppS2wCmd_BeaconMissThresholdSet},
//  931     {"+TKIPCNTRMSR=",      AppS2wCmd_TkipContrMsrStart},
//  932     {"+TKIPSEQSET=",   AppS2wCmd_TkipSeqNumGet},
//  933     {"+WLANSTATS", AppS2wCmd_WlanStatsGet},
//  934     {"+RXFILTER=",  AppS2wCmd_WlanRecvFiltrSet},
//  935     {"+WRTS=",      AppS2wCmd_RtsEnable},
//  936     {"+WBLOCKACK=",   AppS2wCmd_BlockAckReq},
//  937     {"+WAMSDU=",     AppS2wCmd_AmsduReqt},
//  938     {"+WAMPDU=",     AppS2wCmd_AmpduReq},
//  939     {"+TXFAILLMT=", AppS2wCmd_FrameTxFailCntLmitSet},
//  940 #ifndef S2W_IP2WIFI_SUPPORT
//  941     {"+NDHCP=",     AppS2wCmd_Ndhcp},
//  942     {"+NSTAT=",     AppS2wCmd_Nstat},
//  943     {"+CID=",       AppS2wCmd_CidInfo},
//  944     {"+NCLOSEALL",  AppS2wCmd_Ncloseall},
//  945     {"+NCLOSE=",    AppS2wCmd_Nclose},
//  946 #endif
//  947     {"+WRXACTIVE=", AppS2wCmd_Wradio},
//  948     {"+WRETRY=",    AppS2wCmd_Wretry},
//  949 #ifndef S2W_IP2WIFI_SUPPORT
//  950     {"+NCTCP=",     AppS2wCmd_Nctcp},
//  951     {"+NCUDP=",     AppS2wCmd_Ncudp},
//  952     {"+NSTCP=",     AppS2wCmd_Nstcp},
//  953     {"+NSUDP=",     AppS2wCmd_Nsudp},
//  954 #ifdef S2W_MDNS_ENABLE
//  955     {"+MDNSSTART", AppS2wCmd_MdnsInit},
//  956 #ifdef S2W_IPv6_SUPPORT
//  957     {"+MDNSv6START", AppS2wCmd_MdnsInitv6},
//  958 #endif
//  959     {"+MDNSSTOP", AppS2wCmd_MdnsDeInit},
//  960 //    {"+MDNSANNOUNCE=", AppS2wCmd_MdnsAnnounceAll},
//  961     {"+MDNSANNOUNCE",  AppS2wCmd_MdnsAnnounceAll},
//  962     {"+MDNSHNREG=", AppS2wCmd_MdnsHostNameReg},
//  963     {"+MDNSSRVREG=", AppS2wCmd_MdnsServiceReg},
//  964     {"+MDNSSD=", AppS2wCmd_MdnsSrvcDiscover},
//  965     {"+MDNSHNDEREG=", AppS2wCmd_MdnsHostNmDeReg},
//  966     {"+MDNSSRVDEREG=", AppS2wCmd_MdnsSrvDeReg},
//  967 #endif
//  968     {"+NXSETSOCKOPT=",  AppS2wCmd_SetSockOp},
//  969 #endif
//  970     {"+NMAC=",      AppS2wCmd_Nmac},
//  971     {"+WSEC=", AppS2wCmd_SecuritySet},
//  972     {"+WAUTH=",     AppS2wCmd_Wauth},
//  973     {"+WWPA=",  AppS2wCmd_Wwpa},
//  974     {"+WPAPSK=", AppS2wCmd_WpaPsk},
//  975     {"+WPSK=",   AppS2wCmd_Psk},
//  976     {"+WWEPCONF=",   AppS2wCmd_WwepConf},
//  977     {"+WWEP",   AppS2wCmd_Wwep},    
//  978     {"+WSYNCINTRL=", S2w_CmdSyncLossIntrvlSet},
//  979     {"+WSTATUS",	  AppS2wCmd_Wstatus},
//  980     {"+WST=", AppS2wCmd_scanTimeSet},
//  981     {"+WS",         AppS2wCmd_Wscan},
//  982     {"+NSET=",  AppS2wCmd_Nset},
//  983     {"+WM=",    AppS2wCmd_Wmode},
//  984     {"+WRXPS=", AppS2wCmd_PowerSave},
//  985     {"+WIEEEPSPOLL=", AppS2wCmd_ieeePsPollSet},
//  986     {"+WP=",    AppS2wCmd_Wpower},
//  987     {"+WD",     AppS2wCmd_Disconnect},
//  988     {"+WRSSI=", AppS2wCmd_Wrssi},
//  989     {"+WRATE=",    AppS2wCmd_Wrate},
//  990     {"+WAPSM=",  AppS2wCmd_AssocPSModeSet},
//  991     {"+MCSTSET=",   AppS2wCmd_McastRecvSet},
//  992     {"+WIEEEPSPOLL=", AppS2wCmd_ieeePsPollSet},
//  993 	{"+NARP=",		AppS2wCmd_ArpEntryGet},
//  994 	{"+NARPCHACHEEN=",	AppS2wCmd_ArpCacheEn},
//  995 	{"+NARPCHACHEDEL", AppS2wCmd_ArpCacheDel},
//  996     {"+NARPSET=",		AppS2wCmd_ArpEntrySet},
//  997     {"+NARPDELETE=",	AppS2wCmd_ArpEntryDelete},
//  998     {"+NARPAUTO=",	AppS2wCmd_ArpAutoSet},
//  999     {"+srvvalidationen=",AppS2wCmad_WsrvrValidationEn},
// 1000 	{"+WEAPTIMECHK=",AppS2wCmad_WeapTimeChk},
// 1001 #ifdef S2W_UART_ENABLE    
// 1002     {"B=",      AppS2wCmd_BaudRate},
// 1003     {"+UARTFLVL=",AppS2wCmd_UartFifoLevel},
// 1004     {"&R",      AppS2wCmd_HardFlow},
// 1005     {"&K",      AppS2wCmd_SoftFlow},
// 1006 #endif
// 1007     {"&F",      AppS2wCmd_Factory},
// 1008     {"&V",      AppS2wCmd_ConfigOutput},
// 1009     {"&W",      AppS2wCmd_Write},
// 1010     {"Z",       AppS2wCmd_read},
// 1011     {"&Y",      AppS2wCmd_SetDefaultProfile},
// 1012     {"S",       AppS2wCmd_Settings},
// 1013     {"E",       AppS2wCmd_Echo},
// 1014     {"V",       AppS2wCmd_Verbose},
// 1015     {"I",       AppS2wCmd_IdOutput},
// 1016     //{"?",		AppS2wCmd_Help},
// 1017 #ifdef  S2W_NCM_SUPPORT_ENABLE
// 1018     {"A",       AppS2wCmd_AutoConnect},
// 1019 #endif
// 1020     {"H",       AppS2wCmd_Disconnect},
// 1021     {"C",       AppS2wCmd_Acmode},
// 1022     {"O",       AppS2wCmd_GoOnline},
// 1023     {"+VER=",    App2wCmd_Version},
// 1024     {"+MCSTSET=",   AppS2wCmd_McastRecvSet},
// 1025     {"+BDATA=",  S2w_CmdBulkDataState},
// 1026     {"+RESET", AppS2wCmd_reset},
// 1027     {"+APCONF=",AppS2wCmd_ApConf},
// 1028     {"+APCLIENTINFO=", AppS2wCmd_ApClientInfoGet},
// 1029 	{"+L2CONFIG=",	AppS2w_CmdL2ConfigSet},
// 1030 #ifdef S2W_SNTP
// 1031     {"+NTIMESYNC=",   AppS2wCmd_ntpTimeSet},
// 1032 #endif
// 1033 #ifdef S2W_DNS_SERVER_ENABLE    
// 1034 	{"+DNS=",       AppS2wCmd_Dns},
// 1035 #endif        
// 1036 #ifdef S2W_DHCP_SERVER_ENABLE        
// 1037 	{"+DHCPSRVR=",  AppS2wCmd_DhcpSrvr},
// 1038         {"+DHCPSRVRCFG=",  AppS2wCmd_DhcpSrvrConfig},
// 1039 #endif         
// 1040     {"+SETTIME=",  AppS2wCmd_SystemTimeSet},
// 1041     {"+GETTIME=",  AppS2wCmd_SystemTimeGet},
// 1042 #ifdef S2W_SECURITY_WPS_ENABLE
// 1043 
// 1044    {"+WWPS=",  AppS2wCmd_Wwps},
// 1045 #endif /* GSN_SECURITY_WPS_ENABLE */
// 1046 	{"+TCERTADD=", AppS2wCmd_SslCertificateAdd},
// 1047     {"+TCERTDEL=", AppS2wCmd_SslCertificateDelete},
// 1048     {"+WEAP=",   AppS2wCmd_Weap},
// 1049     {"+WEAPCONF=",	AppS2wCmd_WeapConf},
// 1050 #ifdef S2W_HTTPC_SUPPORT    
// 1051     {"+HTTPOPEN=", AppS2wCmd_HttpClientOpen},
// 1052     {"+HTTPCLOSE=", AppS2wCmd_HttpClientClose},
// 1053     {"+HTTPCONF=", AppS2wCmd_HttpClientConfig},
// 1054     {"+HTTPCONFDEL=", AppS2wCmd_HttpClientConfigDel},
// 1055     {"+HTTPSEND=", AppS2wCmd_HttpClientSend},
// 1056 #endif    
// 1057 #ifdef S2W_EXT_FLASH_FWUP_PULL_METHOD    
// 1058     {"+SOTAFWUPCONF=", AppS2wCmd_OtaFwupConf},
// 1059     {"+SOTAFWUPSTART", AppS2wCmd_OtaFwupExtFlashStart},
// 1060     {"+SOTAFWUPROLLBACK", AppS2wCmd_OtaFwupRollBack},
// 1061 #endif    
// 1062     //{"+FSTEST=", AppS2wCmd_FsTest},
// 1063     {"+WAUTO=",     AppS2wCmd_Wauto},
// 1064     {"+NAUTO=",     AppS2wCmd_Nauto},
// 1065     {"+PSDPSLEEP", AppS2wCmd_PowerSaveDpsleep},
// 1066 #ifdef S2W_PING_TRACE
// 1067     {"+PING=",      AppS2wCmd_Ping},
// 1068 #endif
// 1069 #ifdef S2W_IPv6_SUPPORT
// 1070     {"+NSETv6=",     AppS2wCmd_Nsetv6},
// 1071     {"+NDHCPv6=",    AppS2wCmd_Ndhcpv6},
// 1072     {"+NCUDPv6=",    AppS2wCmd_Ncudpv6},
// 1073     {"+NSUDPv6=",    AppS2wCmd_Nsudpv6},
// 1074     {"+NCTCPv6=",    AppS2wCmd_Nctcpv6},
// 1075     {"+NSTCPv6=",    AppS2wCmd_Nstcpv6},
// 1076     {"+DHCPSERVERv6=",AppS2wCmd_Dhcpv6Server},
// 1077 #endif
// 1078     {"+MQTT_PUBLISH", App2wCmd_mqtt_publish},
// 1079 #ifdef S2W_DNS_CLIENT
// 1080     {"+DNSSET=",AppS2wCmd_DnsServerSet},
// 1081     {"+DNSLOOKUP=",AppS2wCmd_DnsLookup},
// 1082 #ifdef S2W_IPv6_SUPPORT
// 1083     {"+DNSLOOKUPv6=",     AppS2wCmd_DnsLookupv6},
// 1084 #endif
// 1085 #endif
// 1086 
// 1087     {"+WREGDOMAIN=", AppS2wCmd_RegDomainSet},
// 1088 #if defined(S2W_SSL_CLIENT_SUPPORT) || defined(S2W_SSL_SERVER_SUPPORT)
// 1089     {"+SSLOPEN=",   AppS2wCmd_SSLOpen},
// 1090     {"+SSLCLOSE=",   AppS2wCmd_SSLClose},
// 1091 	{"+SSLCONF=", AppS2wCmd_SslConfig},
// 1092 #endif
// 1093 #ifdef S2W_RF_TEST
// 1094 	{"+WRFTESTSTART",  AppS2wCmd_RfTestStart},
// 1095 	{"+WRFTESTSTOP",  AppS2wCmd_RfTestStop},
// 1096     {"+WFRAMETXTEST=",  AppS2wCmd_RfTestTxStart},
// 1097     {"+WTX99TEST=",  AppS2wCmd_RfTestTx99Start},
// 1098     {"+WTX100TEST=",  AppS2wCmd_RfTestTx100Start},
// 1099     {"+WCARWAVTEST=",  AppS2wCmd_RfTestCarrierWaveStart},
// 1100 	{"+WTXSTOP=", AppS2wCmd_RfTestTxStop},
// 1101     {"+WRXTEST=",  AppS2wCmd_RfTestRxStart},
// 1102     {"+WRXSTOP",  AppS2wCmd_RfTestRxStop},
// 1103 	{"+WCALIB=",  AppS2wCmd_WlanCalib},
// 1104 #ifdef S2W_15DOT4_SUPPORT        
// 1105     {"+I154RXTEST=",AppS2wCmd_I154RxTest},
// 1106     {"+I154RXSTOP=",AppS2wCmd_I154RxTestStop},
// 1107     {"+I154TXTEST=",AppS2wCmd_I154TxTest},  
// 1108 #endif    
// 1109 #endif
// 1110 #ifdef S2W_OTP_RDWR_SUPPORT
// 1111     {"+WOTPWR=",AppS2wCmd_WlanOtpWrite},
// 1112     {"+AOTPWR=",AppS2wCmd_AppOtpWrite},
// 1113 #endif
// 1114     {"+WOTPRD=",AppS2wCmd_WlanOtpRead},
// 1115     {"+AOTPRD=",AppS2wCmd_AppOtpRead},
// 1116 
// 1117 #ifdef S2W_WEB_PROV
// 1118 	{"+WEBPROV=", APPS2wCmd_WebProv},
// 1119     {"+WEBPROVSTOP", APPS2wCmd_WebProvStop},    
// 1120     {"+NURIREDIR=", APPS2wCmd_AddRedirURI},
// 1121 #endif
// 1122 #if defined(S2W_GSLINK) && defined (S2W_WEB_SERVER)
// 1123     {"+WEBSERVER=", AppS2wCmd_WebServer},  
// 1124     {"+URIRECV=",AppS2wCmd_CfgUri},
// 1125 #endif
// 1126 #ifdef S2W_GSLINK_XML
// 1127     {"+XMLSEND=",   AppS2wCmd_XmlSend},
// 1128     {"+XMLPARSE=",   AppS2wCmd_XmlParseEnable},    
// 1129 
// 1130 #endif   
// 1131 #ifdef S2W_HTTP_CUSTOM_SUPPORT
// 1132     {"+HTTPRECVCONF=",   AppS2wCmd_RecvConf},
// 1133 #endif
// 1134 	{"+PSSTBY="   , AppS2wCmd_PowerSaveStby},
// 1135     {"+STORENWCONN",  AppS2wCmd_NwConnStore},
// 1136     {"+RESTORENWCONN",AppS2wCmd_NwConnRestore},
// 1137     {"+HIBERNATE=", AppS2wCmd_Hibernate},
// 1138 #ifdef  S2W_NCM_SUPPORT_ENABLE
// 1139     {"+NCMAUTO=",AppS2wCmd_NcmAuto},
// 1140     {"+NCMAUTOCONF=",AppS2wCmd_NcmAutoConf},
// 1141 #endif 
// 1142     {"+ASYNCMSGFMT=", AppS2wCmd_AsyncMsgFmt},
// 1143 #ifdef S2W_THROUGHPUT_TEST
// 1144 	{"+SOCKTPTEST=",   AppS2wCmd_SockTpTest},
// 1145 	{"+SOCKTPTESTSTAT=",   AppS2wCmd_SockTpTestStat},
// 1146 #endif
// 1147 
// 1148      {"+NIPMULTICASTJOIN=", AppS2wCmd_IpMulticastJoin},
// 1149      {"+NIPMULTICASTLEAVE=", AppS2wCmd_IpMulticastLeave},
// 1150      {"+DGPIO=",  AppS2wCmd_Dgpio},
// 1151 #if S2W_PERSISTENT_TMR_SUPPORT     
// 1152      {"+PRSTMRSTART=", AppS2wCmd_PerstTmrStart},
// 1153      {"+PRSTMRSTOP=", AppS2wCmd_PerstTmrStop},
// 1154      {"+PRSTMRDEL=", AppS2wCmd_PerstTmrDelete},
// 1155      {"+PRSTMRRESTART=", AppS2wCmd_PerstTmrReStart},
// 1156 #endif     
// 1157 
// 1158 #ifdef S2W_ISOTX_SUPPORT
// 1159 
// 1160      {"+ISOTXSTART=", AppS2wCmd_IsoTxStart},
// 1161      {"+ISOTXSTOP", AppS2wCmd_IsoTxStop},
// 1162      {"+ISOTXREGWR=", AppS2wCmd_IsoTxConfig},
// 1163 #endif
// 1164 #ifdef S2W_UNASSOC_TXRX_SUPPORT
// 1165      {"+UNSOLICITEDTX=", S2w_CmdUnSolicitedTx},
// 1166      {"+UNSOLICITEDRX=", S2w_CmdUnSolicitedRx},
// 1167      {"+UNSOLICITEDRXSTOP", S2w_CmdUnSolicitedRxstop},
// 1168      {"+UAMCCA=", S2w_CmdUnSolicitedCcaConf},
// 1169 #endif
// 1170 #ifdef S2W_EMU  
// 1171       /*Commands for EMU*/
// 1172     {"+emuver=", AppS2wCmd_EmuVer}, 
// 1173     {"+emusupmod=",AppS2wCmd_SupportedModules},
// 1174     {"+emustart",AppS2wCmd_EmuStart},  
// 1175     {"+emustop",AppS2wCmd_EmuStop},
// 1176     {"+emusetconf=",AppS2wCmd_EmuSetConf},
// 1177     {"+emugetvalues",AppS2wCmd_EmuGetValues},
// 1178     {"+emugetconf=",AppS2wCmd_EmuGetConf},
// 1179     {"+emuloadctrl=",AppS2wCmd_EmuLoadCtl}, 
// 1180     {"+emugetinstvalues",AppS2wCmd_EmuGetInstValues},
// 1181     {"+emuresetenergy",AppS2wCmd_EmuResetEnergy},
// 1182     {"+emugetstatus",AppS2wCmd_EmuGetStatus},
// 1183     {"+emuloadstatus",AppS2wCmd_EmuLoadStatus},
// 1184     {"+emuprint",AppS2wCmd_EmuPrint},
// 1185 #endif
// 1186 #ifdef S2W_ADC_SUPPORT
// 1187 #ifndef GS2100
// 1188     {"+adcconf=",AppS2wCmd_AdcConf},
// 1189     {"+adcstart",AppS2wCmd_AdcStart},
// 1190     {"+adcread=",AppS2wCmd_AdcRead},
// 1191     {"+adcstop",AppS2wCmd_AdcStop},
// 1192 #endif
// 1193 #endif
// 1194 #ifdef S2W_I2C_SUPPORT
// 1195     /*Commands for I2C*/
// 1196     {"+i2cconf=",AppS2wCmd_I2cConf},
// 1197     {"+i2cstart",AppS2wCmd_I2cStart},
// 1198     {"+i2cwrite=",AppS2wCmd_I2cWrite},
// 1199     {"+i2cread=",AppS2wCmd_I2cRead},
// 1200     {"+i2cstop",AppS2wCmd_I2cStop},
// 1201 #endif    
// 1202 #ifdef S2W_15DOT4_SUPPORT
// 1203     {"+PCH="   , AppS2wCmd_154Channel},
// 1204     {"+PPID="  , AppS2wCmd_154PanId},
// 1205     {"+PSA="   , AppS2wCmd_154ShortAddr},
// 1206     {"+PLA="   , AppS2wCmd_154ExtendedAddr},   
// 1207     {"+PMR="   , AppS2wCmd_154RetryCount},
// 1208     {"+PJP="   , AppS2wCmd_154JoinPermit},
// 1209     {"+PSC="   , AppS2wCmd_154SupreFrmCfg},
// 1210     {"+PCE="   , AppS2wCmd_154CoordExtndedAddr},   
// 1211     {"+PCA="   , AppS2wCmd_154CoordShortAddr},
// 1212     {"+PSN="   , AppS2wCmd_154ScanNetwork},
// 1213     {"+PJN="   , AppS2wCmd_154JoinNetwork},
// 1214     {"+PAN="   , AppS2wCmd_154AddNode},   
// 1215     {"+PFN="   , AppS2wCmd_154StartNetwork},
// 1216     {"+PLN="   , AppS2wCmd_154LeaveNetwork},
// 1217     {"+PPL="   , AppS2wCmd_154PollData},
// 1218     {"+PDS="   , AppS2wCmd_154DataSend}, 
// 1219     {"+PDP="   , AppS2wCmd_154DataPurge},
// 1220     {"+PRXEN="  , AppS2wCmd_154RxEnable},
// 1221     {"+PSR="    , AppS2wCmd_154SetReq},
// 1222     {"+PGR="    , AppS2wCmd_154GetReq},
// 1223     {"+PGTS=", AppS2wCmd_154GTSReq},
// 1224     {"+PSYNCR=", AppS2wCmd_154SyncReq},
// 1225 
// 1226 #endif
// 1227 #ifdef S2W_EXTFLASH_DRIVER_TEST
// 1228 	 {"+EXFLASHINIT=", AppS2wCmd_ExtFlashInit},
// 1229 	 {"+EXFLASHWRITE=", AppS2wCmd_ExtFlashWrite},
// 1230 	 {"+EXFLASHREAD=", AppS2wCmd_ExtFlashRead},
// 1231 	 {"+EXFLASHERASE=", AppS2wCmd_ExtFlashErase},
// 1232 	 {"+EXFLASHCERASE", AppS2wCmd_ExtFlashChipErase},
// 1233 	 {"+EXFLASHSPICONF=", AppS2wCmd_ExtFlashSpiConf},
// 1234 #endif
// 1235 #if defined(S2W_DTLS_CLIENT_SUPPORT)
// 1236 	    {"+DTLSOPEN=",   AppS2wCmd_DTSLOpen},
// 1237 	    {"+DTLSCLOSE=",   AppS2wCmd_DTSLClose},
// 1238 #endif
// 1239 
// 1240 	{"+WSTAPSCFG=", AppS2wCmd_WlanStaPsCfg},
// 1241 	{"+WAPPSCFG=", AppS2wCmd_WlanApPsCfg},
// 1242 	{"+PSPOLLINTRL=", S2w_CmdPsPollIntervelset},
// 1243 	{"+WKEEPALIVE=", S2w_CmdPsPollIntervelset},
// 1244 #ifdef S2W_PWM_SUPPORT
// 1245         {"+PWMSTART=", AppS2wCmd_PwmStart},
// 1246         {"+PWMSTOP=", AppS2wCmd_PwmStop},
// 1247         {"+PWMCNTRL=", AppS2wCmd_PwmCtrl},
// 1248 #endif
// 1249 
// 1250 #ifdef S2W_MEM_ACCESS
// 1251     {"+MEMREAD=", AppS2wCmd_MemRead},
// 1252     {"+MEMWRITE=", AppS2wCmd_MemWrite},
// 1253 
// 1254 #endif
// 1255     {"+LOGLVL=", AppS2wCmd_LogLevelSet},
// 1256 	{"+BCHKSTRT=",	AppS2wCmd_BattCheckStart},
// 1257 	{"+BATTVALGET", AppS2wCmd_BattValueGet},
// 1258 	{"+BCHK=",		AppS2wCmd_BattCheckSet},
// 1259 	{"+BCHKSTOP",	AppS2wCmd_BattCheckStop},
// 1260 	{"+BATTLVLSET=", AppS2wCmd_BattLvlSet},
// 1261 #ifdef S2W_ADC_SUPPORT        
// 1262 	{"+CLKTUNE=", App_ClkTuneCmd},
// 1263 #endif        
// 1264 #ifdef S2W_COAP_SUPPORT
// 1265     {"+COAPOPEN=", AppS2wCmd_CoapOpen},
// 1266     {"+COAPSENDRECIEVE=", AppS2wCmd_CoapSend},
// 1267     {"+COAPCLOSE=", AppS2wCmd_CoapClose},
// 1268     {"+COAPOPTCONF=", AppS2wCmd_CoapSetOption},
// 1269     {"+COAPOPTCONFDEL=", AppS2wCmd_CoapRemoveOption},
// 1270 #endif
// 1271 	{"+WBACKEN=",AppS2wCmd_BaBitMapSet},
// 1272 
// 1273 	{"+WRADIOSTATE=",AppS2wCmd_RadioStateGet},
// 1274 #ifdef S2W_15DOT4_SUPPORT
// 1275     {"+ZSC=",AppS2wCmd_ZipScan},
// 1276     {"+ZST=",AppS2wCmd_ZipStart},
// 1277     {"+ZSP=",AppS2wCmd_ZipStop},
// 1278     {"+ZMS=",AppS2wCmd_ZipSetMacAddr},
// 1279 #endif    
// 1280 
// 1281 #ifdef GSN_MEM_TRACE
// 1282     {"+MEMTRACE", AppS2wCmd_memTraceGet},
// 1283 #endif    
// 1284 #if defined(S2W_FS_SPI_ENABLE) || defined(S2W_FS_SPI_HI_ENABLE)
// 1285     {"+SPICONF=", AppS2wCmd_SpiConfig},
// 1286 #endif /* S2W_FS_SPI_ENABLE */
// 1287 #ifdef S2W_FTC
// 1288 	{"+FTCSDADC", AppS2wCmd_FtcSdAdc},
// 1289 	{"+FTCSARADC", AppS2wCmd_FtcSarAdc},
// 1290 	{"+FTCEXFLID", AppS2wCmd_FtcExtFlashID},	
// 1291 	{"+RFTCEXFLID", AppS2wCmd_rftcExtFlashID},
// 1292 	{"+RFTCSARADC" , AppS2wCmd_rFtcSarAdc},
// 1293 	{"+RFTCSDADC"   ,AppS2wCmd_rFtcSdAdc},
// 1294 #endif
// 1295     {"+WASSOCCONF=",AppS2wCmd_SetAssocTimeout},
// 1296     {"+TEMPVALGET=", AppS2wCmd_TempGet},
// 1297     {"+WTEMPREAD=", AppS2wCmd_TempReadStart},
// 1298     {"+CRYPTOEN=", AppS2wCmd_HwCryptoEn},
// 1299     {"+GRATARP", AppS2wCmd_GratArpSend}
// 1300 };
// 1301 
// 1302 /**
// 1303  ******************************************************************
// 1304  * @ingroup S2w-Application
// 1305  * @brief Process the AT+PSDPSLEEP command
// 1306  * @param ptr Pointer to the user input string.
// 1307  * @return status.
// 1308  ******************************************************************/

        SECTION `.text`:CODE:NOROOT(1)
          CFI Block cfiBlock11 Using cfiCommon0
          CFI Function AppS2wCmd_PowerSaveDpsleep
        THUMB
// 1309 PUBLIC UINT8
// 1310 AppS2wCmd_PowerSaveDpsleep(UINT8 *ptr)
// 1311 {
AppS2wCmd_PowerSaveDpsleep:
        PUSH     {R0,LR}
          CFI R14 Frame(CFA, -4)
          CFI CFA R13+8
        SUB      SP,SP,#+16
          CFI CFA R13+24
// 1312     UINT32 timeout = 0;
        MOVS     R0,#+0
        STR      R0,[SP, #+8]
// 1313     S2W_ALARM_INFO_T alarm;
// 1314     UINT8 status;
// 1315     UINT8 *p, pwrMeasure = 0;
        STRB     R0,[SP, #+4]
// 1316     memset(&alarm,0,sizeof(alarm));
        BL       ?Subroutine9
// 1317     if (*ptr)
??CrossCallReturnLabel_14:
        LDR      R0,[SP, #+16]
        LDRB     R0,[R0, #+0]
        CMP      R0,#+0
        BEQ.N    ??AppS2wCmd_PowerSaveDpsleep_0
// 1318     {
// 1319         if(ptr[0] == '=')
        CMP      R0,#+61
        BNE.N    ??AppS2wCmd_PowerSaveDpsleep_1
// 1320         {
// 1321             ptr++;
        LDR      R0,[SP, #+16]
        ADDS     R0,R0,#+1
        STR      R0,[SP, #+16]
// 1322             p = AppS2wParse_NextParamGet(&ptr);
        BL       ?Subroutine30
// 1323             if (p)
??CrossCallReturnLabel_99:
        CMP      R0,#+0
        ITT      NE 
        LDRBNE   R1,[R0, #+0]
        CMPNE    R1,#+0
// 1324             {
// 1325                 if (*p != '\0')
        BEQ.N    ??AppS2wCmd_PowerSaveDpsleep_2
// 1326                 {
// 1327                     status = AppS2wParse_Int(p, &timeout);
        BL       ?Subroutine50
// 1328                     if (status != S2W_SUCCESS)
??CrossCallReturnLabel_262:
        CBNZ.N   R0,??AppS2wCmd_PowerSaveDpsleep_3
// 1329                     {
// 1330                         return status;
// 1331                     }
// 1332                 }
// 1333             }
// 1334             p = AppS2wParse_NextParamGet(&ptr);
??AppS2wCmd_PowerSaveDpsleep_2:
        BL       ?Subroutine30
// 1335             if (p)
??CrossCallReturnLabel_98:
        CBZ.N    R0,??AppS2wCmd_PowerSaveDpsleep_0
// 1336             {
// 1337                 if (*p != '\0')
        LDRB     R1,[R0, #+0]
        CBZ.N    R1,??AppS2wCmd_PowerSaveDpsleep_4
// 1338                 {
// 1339                     status = AppS2wParse_Boolean(p, &(alarm.alarm1Pol));
        BL       ?Subroutine59
// 1340                     if (status != S2W_SUCCESS)
??CrossCallReturnLabel_369:
        CBNZ.N   R0,??AppS2wCmd_PowerSaveDpsleep_3
// 1341                     {
// 1342                         return status;
// 1343                     }
// 1344                     alarm.alarm1Valid = 1;
        MOVS     R0,#+1
        STRB     R0,[SP, #+0]
// 1345                 }
// 1346                 p = AppS2wParse_NextParamGet(&ptr);
??AppS2wCmd_PowerSaveDpsleep_4:
        BL       ?Subroutine30
// 1347                 if (p)
??CrossCallReturnLabel_97:
        CMP      R0,#+0
        ITT      NE 
        LDRBNE   R1,[R0, #+0]
        CMPNE    R1,#+0
// 1348                 {
// 1349                     if (*p != '\0')
        BEQ.N    ??AppS2wCmd_PowerSaveDpsleep_5
// 1350                     {
// 1351                         status = AppS2wParse_Boolean(p, &(alarm.alarm2Pol));
        BL       ?Subroutine61
// 1352                         if (status != S2W_SUCCESS)
??CrossCallReturnLabel_388:
        CBNZ.N   R0,??AppS2wCmd_PowerSaveDpsleep_3
// 1353                         {
// 1354                             return status;
// 1355                         }
// 1356                         alarm.alarm2Valid = 1;
        MOVS     R0,#+1
        STRB     R0,[SP, #+2]
// 1357                     }
// 1358                 }
// 1359                 p = AppS2wParse_NextParamGet(&ptr);
??AppS2wCmd_PowerSaveDpsleep_5:
        BL       ?Subroutine30
// 1360                 if (p)
??CrossCallReturnLabel_96:
        CMP      R0,#+0
        ITT      NE 
        LDRBNE   R1,[R0, #+0]
        CMPNE    R1,#+0
// 1361                 {
// 1362                     if (*p != '\0')
        BEQ.N    ??AppS2wCmd_PowerSaveDpsleep_0
// 1363                     {
// 1364                         status = AppS2wParse_Boolean(p, &pwrMeasure);
        BL       ?Subroutine62
// 1365                         if (status != S2W_SUCCESS)
??CrossCallReturnLabel_393:
        CBZ.N    R0,??AppS2wCmd_PowerSaveDpsleep_0
// 1366                         {
// 1367                             return status;
        B.N      ??AppS2wCmd_PowerSaveDpsleep_3
// 1368                         }
// 1369                     }
// 1370                 }
// 1371             }
// 1372         }
// 1373     else
// 1374         {
// 1375        return S2W_EINVAL;
??AppS2wCmd_PowerSaveDpsleep_1:
        MOVS     R0,#+2
        B.N      ??AppS2wCmd_PowerSaveDpsleep_3
// 1376         }
// 1377     }
// 1378 
// 1379     return AppS2wHal_PsDpSleepStart(timeout, &alarm, pwrMeasure);
??AppS2wCmd_PowerSaveDpsleep_0:
        LDRB     R2,[SP, #+4]
        LDR      R0,[SP, #+8]
        ADD      R1,SP,#+0
          CFI FunCall AppS2wHal_PsDpSleepStart
        BL       AppS2wHal_PsDpSleepStart
??AppS2wCmd_PowerSaveDpsleep_3:
        ADD      SP,SP,#+20
          CFI CFA R13+4
        POP      {PC}             ;; return
          CFI EndBlock cfiBlock11
// 1380 }
// 1381 
// 1382 #ifdef S2W_HTTPC_SUPPORT
// 1383 
// 1384 void
// 1385 AppS2w_HttpRxBufferMgmtCb(GSN_HTTPC_CONN_HANDLE conHandle,
// 1386                      INT8 *httpRxDataBuf,
// 1387                      INT32 httpRxDataLen,
// 1388                      INT32* rxBufferMgmtstatus);
// 1389 GSN_HTTPC_CONF_INFO_T httpConfInfo;
// 1390 INT8 *headerValues[S2W_HTTPC_MAX_HDR_SUPPORTED];
// 1391 GSN_HTTP_USER_HEADER_TYPE_T headerTypes[S2W_HTTPC_MAX_HDR_SUPPORTED];
// 1392 GSN_HTTP_USER_HEADER_TYPE_T headerTypesModified[S2W_HTTPC_MAX_HDR_SUPPORTED];
// 1393 UINT8 httpConfAtCmd=0;
// 1394 
// 1395 
// 1396 /**
// 1397  ******************************************************************
// 1398  * @ingroup S2w-Application
// 1399  * @brief Process AT+HTTPOPEN command
// 1400  *   This function open a new http client connection.
// 1401  * @param ptr Pointer to the user input string.
// 1402  *
// 1403  * @return S2W_SUCCESS - operation successful.
// 1404  * @return S2W_FAILURE - operation Failed.
// 1405  * @return S2W_EINVAL - operation Failed-invalid input
// 1406  ******************************************************************/
// 1407 #if defined(S2W_SSL_CLIENT_SUPPORT)
// 1408 
// 1409 extern S2W_SSL_CONF_T s2wSslConf;
// 1410 #endif

        SECTION `.text`:CODE:NOROOT(1)
          CFI Block cfiBlock12 Using cfiCommon0
          CFI Function AppS2wCmd_HttpClientOpen
        THUMB
// 1411  UINT8
// 1412 AppS2wCmd_HttpClientOpen(UINT8 *ptr)
// 1413 {
AppS2wCmd_HttpClientOpen:
        PUSH     {R0,R4-R11,LR}
          CFI R14 Frame(CFA, -4)
          CFI R11 Frame(CFA, -8)
          CFI R10 Frame(CFA, -12)
          CFI R9 Frame(CFA, -16)
          CFI R8 Frame(CFA, -20)
          CFI R7 Frame(CFA, -24)
          CFI R6 Frame(CFA, -28)
          CFI R5 Frame(CFA, -32)
          CFI R4 Frame(CFA, -36)
          CFI CFA R13+40
        SUB      SP,SP,#+24
          CFI CFA R13+64
// 1414     S2W_HTTP_DATA_T *pHttpData;
// 1415     UINT8 *p, i=0, status = S2W_EINVAL, /*ret,*/ endParam = 0, *tmp = NULL;
// 1416     UINT32 cid = -1, httpType, portNumber,len;
        MOV      R0,#-1
        STR      R0,[SP, #+8]
        MOVS     R6,#+0
        MOVS     R4,#+2
        MOV      R9,R6
// 1417     INT32 certID;
// 1418     ULONG hostIpAddress;
// 1419     pHttpData = gsn_malloc(sizeof(S2W_HTTP_DATA_T));
        MOVS     R2,#+0
        MOVW     R1,#+1419
        MOVS     R0,#+104
          CFI FunCall GsnDynMemMgmt_Alloc
        BL       GsnDynMemMgmt_Alloc
        MOVS     R8,R0
// 1420     if(NULL == pHttpData)
        BEQ.N    ??AppS2wCmd_HttpClientOpen_0
// 1421     {
// 1422         return S2W_FAILURE;
// 1423     }
// 1424     memset(pHttpData,0,sizeof(S2W_HTTP_DATA_T));
        MOVS     R2,#+104
        BL       ??Subroutine18_0
// 1425     p = AppS2wParse_NextParamGet(&ptr);
??CrossCallReturnLabel_37:
        BL       ?Subroutine33
??CrossCallReturnLabel_135:
        MOVS     R7,R0
// 1426 
// 1427     if (!p)
        LDR.W    R5,??DataTable378
        BEQ.W    ??AppS2wCmd_HttpClientOpen_1
// 1428     {
// 1429         status = S2W_EINVAL;
// 1430         goto AppS2wCmd_HttpClientOpenExit;
// 1431     }
// 1432     len = strlen((const char *)p);
          CFI FunCall strlen
        BL       strlen
// 1433     tmp = gsn_malloc(len+1);
        MOVS     R2,#+0
        MOVW     R1,#+1433
        BL       ?Subroutine26
??CrossCallReturnLabel_69:
        MOVS     R9,R0
// 1434     if(NULL != tmp)
        ITT      NE 
        MOVNE    R1,R7
          CFI FunCall strcpy
        BLNE     strcpy
// 1435     {
// 1436         strcpy((char *)tmp, (char *)p);
// 1437     }
// 1438     if(inet_pton(AF_INET, (char const*)p, &pHttpData->sockAddr.addr.ipv4.sin_addr.s_addr) == 1)
        ADD      R11,R8,#+8
        ADD      R2,R8,#+20
        MOV      R1,R7
        BL       ??Subroutine71_0
??CrossCallReturnLabel_427:
        CMP      R0,#+1
        BEQ.N    ??AppS2wCmd_HttpClientOpen_2
// 1439     {
// 1440         pHttpData->sockAddr.addr.ipv4.sin_family = AF_INET;
// 1441     }
// 1442     else if(inet_pton(AF_INET6, (char const*)p, pHttpData->sockAddr.addr.ipv6.sin6_addr.s6_addr32) == 1)
        ADD      R2,R8,#+24
        MOV      R1,R7
        BL       ??Subroutine72_0
??CrossCallReturnLabel_430:
        CMP      R0,#+1
        BNE.N    ??AppS2wCmd_HttpClientOpen_3
// 1443     {
// 1444     	pHttpData->sockAddr.addr.ipv6.sin6_family = AF_INET6;
        MOVS     R0,#+3
        STRH     R0,[R11, #+8]
        B.N      ??AppS2wCmd_HttpClientOpen_4
// 1445     }
// 1446     else
// 1447     {
// 1448  	   /*Dns look up */
// 1449 		status = GsnNwIf_DnsHostByNameGet(&s2wappMainTaskCtxt->if0.nwifCtx, (UINT8*)p,\ 
// 1450 										 &hostIpAddress, 5);
??AppS2wCmd_HttpClientOpen_3:
        MOVS     R3,#+5
        BL       ?Subroutine75
??CrossCallReturnLabel_441:
        ADD      R2,SP,#+4
        MOV      R1,R7
        ADDS     R0,R0,#+80
          CFI FunCall GsnNwIf_DnsHostByNameGet
        BL       GsnNwIf_DnsHostByNameGet
// 1451 		pHttpData->sockAddr.addr.ipv4.sin_addr.s_addr = ntohl(hostIpAddress);
        LDR      R0,[SP, #+4]
        LSRS     R1,R0,#+8
        AND      R1,R1,#0xFF00
        ORR      R0,R1,R0, LSR #+24
        LDR      R1,[SP, #+4]
        AND      R1,R1,#0xFF00
        ORR      R0,R0,R1, LSL #+8
        LDR      R1,[SP, #+4]
        ORR      R0,R0,R1, LSL #+24
        STR      R0,[R11, #+12]
// 1452 		if (hostIpAddress == 0)
        LDR      R1,[SP, #+4]
        CMP      R1,#+0
??AppS2wCmd_HttpClientOpen_0:
        BEQ.W    ??AppS2wCmd_HttpClientOpen_5
// 1453 			return S2W_FAILURE;
// 1454 		
// 1455         /* Send IP address back to host */
// 1456 		S2w_Printf("\r\nIP:%d.%d.%d.%d",(pHttpData->sockAddr.addr.ipv4.sin_addr.s_addr & 0x000000ff),
// 1457 										(pHttpData->sockAddr.addr.ipv4.sin_addr.s_addr & 0x0000ff00)>>8,
// 1458 										(pHttpData->sockAddr.addr.ipv4.sin_addr.s_addr & 0x00ff0000)>>16,
// 1459 										(pHttpData->sockAddr.addr.ipv4.sin_addr.s_addr & 0xff000000)>>24);		
        LSRS     R1,R0,#+24
        STR      R1,[SP, #+0]
        UBFX     R3,R0,#+16,#+8
        UBFX     R2,R0,#+8,#+8
        UXTB     R1,R0
        ADR.W    R0,`?<Constant "\\r\\nIP:%d.%d.%d.%d">`
          CFI FunCall S2w_Printf
        BL       S2w_Printf
// 1460 		pHttpData->sockAddr.addr.ipv4.sin_family = AF_INET;
??AppS2wCmd_HttpClientOpen_2:
        STRH     R4,[R11, #+8]
// 1461     }
// 1462     /* port Number */
// 1463     p = AppS2wParse_NextParamGet(&ptr);
??AppS2wCmd_HttpClientOpen_4:
        BL       ?Subroutine33
// 1464     if (!p)
??CrossCallReturnLabel_134:
        LDR.W    R4,??DataTable378_1
        CMP      R0,#+0
        BEQ.N    ??AppS2wCmd_HttpClientOpen_6
// 1465     {
// 1466         endParam = 1;
// 1467     }
// 1468     else
// 1469     {
// 1470         AppS2wParse_Int(p, &portNumber);
        BL       ?Subroutine53
// 1471         pHttpData->sockAddr.ss_port = portNumber;
??CrossCallReturnLabel_341:
        LDR      R0,[SP, #+12]
        STRH     R0,[R11, #+10]
// 1472 
// 1473     }
// 1474 
// 1475     /* security */
// 1476     if(!endParam)
// 1477     {
// 1478         p = AppS2wParse_NextParamGet(&ptr);
        BL       ?Subroutine33
// 1479         if (!p)
??CrossCallReturnLabel_133:
        CBZ.N    R0,??AppS2wCmd_HttpClientOpen_6
// 1480         {
// 1481             endParam = 1;
// 1482         }
// 1483         else
// 1484         {
// 1485             AppS2wParse_Int(p, &httpType);
        BL       ?Subroutine54
// 1486             pHttpData->httpType = (GSN_HTTP_TYPE_T)httpType;
??CrossCallReturnLabel_349:
        LDR      R0,[SP, #+16]
        STRB     R0,[R11, #+4]
// 1487         }
// 1488     }
// 1489 #if defined(S2W_SSL_CLIENT_SUPPORT)
// 1490     /* certificate name */
// 1491     if(!endParam)
// 1492     {
// 1493         p = AppS2wParse_NextParamGet(&ptr);
        BL       ?Subroutine33
??CrossCallReturnLabel_132:
        MOVS     R7,R0
// 1494         if (!p)
        BEQ.N    ??AppS2wCmd_HttpClientOpen_6
// 1495         {
// 1496             endParam = 1;
// 1497         }
// 1498         else
// 1499         {
// 1500             if(0 != strlen((const INT8 *)p))
          CFI FunCall strlen
        BL       strlen
        CBZ.N    R0,??AppS2wCmd_HttpClientOpen_7
// 1501             {
// 1502 //				certID = S2wCert_Get((INT8 *)p);
// 1503         		certID = S2wCert_SearchRamTable((INT8*)p);
        MOV      R0,R7
          CFI FunCall S2wCert_SearchRamTable
        BL       S2wCert_SearchRamTable
// 1504 		        if(certID == -1)
        CMN      R0,#+1
        ITT      EQ 
        MOVEQ    R0,R7
          CFI FunCall S2wCert_FlashFileLoad
        BLEQ     S2wCert_FlashFileLoad
// 1505         		{
// 1506         			certID = S2wCert_FlashFileLoad((INT8*)p);
// 1507         		}
// 1508 
// 1509                 if(certID != -1)
        CMN      R0,#+1
        BEQ.N    ??AppS2wCmd_HttpClientOpen_8
// 1510                 {
// 1511                     pHttpData->caCertLen = *(UINT16 *)s2w_ssl_cert_table[certID].certAddress;
        BL       ?Subroutine88
??CrossCallReturnLabel_475:
        STRH     R1,[R8, #+6]
// 1512                     pHttpData->pCaCert = s2w_ssl_cert_table[certID].certAddress + 2;
        LDR      R0,[R0, R4]
        ADDS     R0,R0,#+2
        STR      R0,[R8, #+8]
// 1513                 }
// 1514                 else
// 1515                 {
// 1516                     S2w_Printf("\n\rCA certificate not found");
// 1517                     status = S2W_FAILURE;
// 1518                     goto AppS2wCmd_HttpClientOpenExit;
// 1519                 }
// 1520             }
// 1521         }
// 1522     }
// 1523 #endif
// 1524     /* proxy server */
// 1525     if(!endParam)
// 1526     {
// 1527         UINT32 proxy = 0;
??AppS2wCmd_HttpClientOpen_7:
        STR      R6,[SP, #+0]
// 1528         p = AppS2wParse_NextParamGet(&ptr);
        BL       ?Subroutine33
// 1529         if (!p)
??CrossCallReturnLabel_131:
        CBNZ.N   R0,??AppS2wCmd_HttpClientOpen_9
// 1530         {
// 1531             endParam = 1;
??AppS2wCmd_HttpClientOpen_6:
        MOVS     R6,#+1
        B.N      ??AppS2wCmd_HttpClientOpen_10
// 1532         }
??AppS2wCmd_HttpClientOpen_8:
        ADR.W    R0,`?<Constant "\\n\\rCA certificate not ...">`
??AppS2wCmd_HttpClientOpen_11:
          CFI FunCall S2w_Printf
        BL       S2w_Printf
        MOVS     R4,#+1
// 1533         else
// 1534         {
// 1535             AppS2wParse_Int(p, &proxy);
// 1536             pHttpData->proxyServer = proxy;
// 1537         }
// 1538     }
// 1539 	pHttpData->connTimeOut=25;
// 1540     if(!endParam)
// 1541     {
// 1542         UINT32 connTimeout = 0;
// 1543         p = AppS2wParse_NextParamGet(&ptr);
// 1544         if (!p)
// 1545         {
// 1546             endParam = 1;
// 1547         }
// 1548         else
// 1549         {
// 1550             AppS2wParse_Int(p, &connTimeout);
// 1551 			if(connTimeout != 0)
// 1552 	            pHttpData->connTimeOut = connTimeout;
// 1553         }
// 1554     }
// 1555 #if defined(S2W_SSL_CLIENT_SUPPORT)
// 1556     if(!endParam)
// 1557     {
// 1558         p = AppS2wParse_NextParamGet(&ptr);
// 1559         if (!p)
// 1560         {
// 1561             endParam = 1;
// 1562         }
// 1563         else
// 1564         {
// 1565             if(0 != strlen((const INT8 *)p))
// 1566             {
// 1567                 //certID = S2wCert_Get((INT8 *)p);
// 1568         		certID = S2wCert_SearchRamTable((INT8*)p);
// 1569         		if(certID == -1)
// 1570         		{
// 1571         			certID = S2wCert_FlashFileLoad((INT8*)p);
// 1572         		}
// 1573                 if(certID != -1)
// 1574                 {
// 1575                     pHttpData->clientCertLen= *(UINT16 *)s2w_ssl_cert_table[certID].certAddress;
// 1576                     pHttpData->pClientCert= s2w_ssl_cert_table[certID].certAddress + 2;
// 1577                 }
// 1578                 else
// 1579                 {
// 1580                     S2w_Printf("\n\r client certificate not found");
// 1581                     status = S2W_FAILURE;
// 1582                     goto AppS2wCmd_HttpClientOpenExit;
// 1583                 }
// 1584             }
// 1585         }
// 1586     }
// 1587 
// 1588     if(!endParam)
// 1589     {
// 1590         p = AppS2wParse_NextParamGet(&ptr);
// 1591         if (!p)
// 1592         {
// 1593             endParam = 1;
// 1594         }
// 1595         else
// 1596         {
// 1597             if(0 != strlen((const INT8 *)p))
// 1598             {
// 1599                 //certID = S2wCert_Get((INT8 *)p);
// 1600         		certID = S2wCert_SearchRamTable((INT8*)p);
// 1601         		if(certID == -1)
// 1602 		        {
// 1603         			certID = S2wCert_FlashFileLoad((INT8*)p);
// 1604         		}
// 1605         		if(certID != -1)
// 1606                 {
// 1607                     pHttpData->clientKeyLen = *(UINT16 *)s2w_ssl_cert_table[certID].certAddress;
// 1608                     pHttpData->pClientKey = s2w_ssl_cert_table[certID].certAddress + 2;
// 1609                 }
// 1610                 
// 1611                 else
// 1612                 {
// 1613                     S2w_Printf("\n\rclient Key not found");
// 1614                     status = S2W_FAILURE;
// 1615                     goto AppS2wCmd_HttpClientOpenExit;
// 1616                 }
// 1617             }
// 1618         }
// 1619     }
// 1620 #endif
// 1621     // check the default paramters are configured
// 1622     if((httpConfAtCmd != 1) &&(!httpConfInfo.reqHeaderCount))
// 1623     {
// 1624         memset(&headerTypes[0], GSN_HTTP_HEADER_INVAL, sizeof(headerTypes));
// 1625         memset(&headerValues[0], 0, sizeof(headerValues));
// 1626         httpConfInfo.reqVersion = GSN_HTTP_VERSION_1_1;
// 1627         httpConfInfo.reqHeaderTypes = (GSN_HTTP_USER_HEADER_TYPE_T *)headerTypesModified;
// 1628         httpConfInfo.reqHeaderValues = headerValues;
// 1629         httpConfInfo.reqHeaderCount = 0;
// 1630 
// 1631         // configure the header
// 1632 #if defined(S2W_DFLT_HTTPC_AUTH) || defined(S2W_DFLT_HTTPC_HOST_IP)					
// 1633         INT8 *pValue;
// 1634         UINT32 len;
// 1635 #endif		
// 1636 #ifdef S2W_DFLT_HTTPC_AUTH					
// 1637         len= sizeof(S2W_DFLT_HTTPC_AUTH);
// 1638         pValue = gsn_malloc(len+1);
// 1639         if(pValue == NULL)
// 1640         {
// 1641             return S2W_FAILURE;
// 1642         }
// 1643         memset(pValue, 0 , len+1);
// 1644         memcpy(pValue, S2W_DFLT_HTTPC_AUTH, len);
// 1645         pValue[len] = '\0';
// 1646         headerValues[i] = pValue;
// 1647 	    headerTypes[i++] = GSN_HTTP_HEADER_AUTHORIZATION;
// 1648         httpConfInfo.reqHeaderCount +=1;
// 1649 #endif
// 1650 
// 1651 #ifdef S2W_DFLT_HTTPC_HOST_IP			
// 1652         len= sizeof(S2W_DFLT_HTTPC_HOST_IP);
// 1653         pValue = gsn_malloc(len+1);
// 1654         if(pValue == NULL)
// 1655         {
// 1656             return S2W_FAILURE;
// 1657         }
// 1658         memset(pValue, 0 , len+1);
// 1659         memcpy(pValue, (UINT8*)S2W_DFLT_HTTPC_HOST_IP, len);
// 1660         pValue[len] = '\0';
// 1661         headerValues[i] = pValue;
// 1662 	    headerTypes[i++] = (GSN_HTTP_USER_HEADER_TYPE_T)(GSN_HTTP_HEADER_HOST);
// 1663         httpConfInfo.reqHeaderCount +=1;
// 1664 #endif		
// 1665  	}
// 1666 	/*Make all the custom headers types as 255 - This is done to coply withi the ROM code which is
// 1667 	compiled with header type array being defined as array of UINT8 */
// 1668 	{
// 1669 		
// 1670 		for( i = 0; i < S2W_HTTPC_MAX_HDR_SUPPORTED; i++)
// 1671         {
// 1672         	if(headerTypes[i] >= (GSN_HTTP_USER_HEADER_TYPE_T)GSN_HTTP_HEADER_CUSTOM)
// 1673 			{
// 1674 				headerTypesModified[i] = (GSN_HTTP_USER_HEADER_TYPE_T)GSN_HTTP_HEADER_CUSTOM;
// 1675 			}
// 1676 			else
// 1677 			{
// 1678         		headerTypesModified[i] = headerTypes[i];
// 1679 			}
// 1680         }
// 1681 	}
// 1682     status = AppS2wHal_HttpOpen(pHttpData, &cid);
// 1683 
// 1684 AppS2wCmd_HttpClientOpenExit:
// 1685     if(status == S2W_SUCCESS)
// 1686     {
// 1687         S2w_Printf("\n\r%x", cid);
// 1688 #if defined(S2W_SSL_CLIENT_SUPPORT)
// 1689         if((NULL != tmp) && (GSN_HTTPS == pHttpData->httpType) && (NULL != s2wSslConf.dnsNameBuf))
// 1690         {
// 1691             status = AppS2wHal_HttpCheckDns(tmp);
// 1692         }
// 1693 #endif		
// 1694         if(NULL != tmp)
// 1695         {
// 1696             gsn_free(tmp);
// 1697             tmp = NULL;
// 1698         }
// 1699 #if defined(S2W_SSL_CLIENT_SUPPORT)
// 1700         if(NULL != s2wSslConf.dnsNameBuf)
// 1701         {
// 1702         	gsn_free(s2wSslConf.dnsNameBuf);
// 1703         	s2wSslConf.dnsNameBuf = NULL;
// 1704         	s2wSslConf.dnsBufferLen = 0;
// 1705         }
// 1706 #endif		
// 1707         return S2W_SUCCESS;
// 1708     }
// 1709     else
// 1710     {
// 1711         if(NULL != pHttpData)
// 1712             gsn_free(pHttpData);
??AppS2wCmd_HttpClientOpen_1:
        MOV      R0,R8
          CFI FunCall GsnDynMemMgmt_Free
        BL       GsnDynMemMgmt_Free
// 1713         if(NULL != tmp)
        CMP      R9,#+0
        ITT      NE 
        MOVNE    R0,R9
          CFI FunCall GsnDynMemMgmt_Free
        BLNE     GsnDynMemMgmt_Free
// 1714         {
// 1715             gsn_free(tmp);
// 1716             tmp = NULL;
// 1717         }
// 1718 #if defined(S2W_SSL_CLIENT_SUPPORT)
// 1719         if(NULL != s2wSslConf.dnsNameBuf)
        LDR      R0,[R5, #+4]
        CBZ.N    R0,??AppS2wCmd_HttpClientOpen_12
// 1720         {
// 1721         	gsn_free(s2wSslConf.dnsNameBuf);
          CFI FunCall GsnDynMemMgmt_Free
        BL       GsnDynMemMgmt_Free
// 1722         	s2wSslConf.dnsNameBuf = NULL;
        MOVS     R0,#+0
        STR      R0,[R5, #+4]
// 1723         	s2wSslConf.dnsBufferLen = 0;
        STR      R0,[R5, #+0]
// 1724         }
// 1725 #endif		
// 1726         return status;
??AppS2wCmd_HttpClientOpen_12:
        MOV      R0,R4
??AppS2wCmd_HttpClientOpen_13:
        ADD      SP,SP,#+28
          CFI CFA R13+36
        POP      {R4-R11,PC}      ;; return
          CFI CFA R13+64
// 1727     }
??AppS2wCmd_HttpClientOpen_9:
        BL       ?Subroutine51
??CrossCallReturnLabel_313:
        LDR      R0,[SP, #+0]
        STRB     R0,[R8, #+44]
??AppS2wCmd_HttpClientOpen_10:
        ADD      R7,R8,#+44
        MOVS     R0,#+25
        STR      R0,[R7, #+32]
        CMP      R6,#+0
        BNE.N    ??AppS2wCmd_HttpClientOpen_14
        MOVS     R0,#+0
        STR      R0,[SP, #+0]
        BL       ?Subroutine33
??CrossCallReturnLabel_130:
        CMP      R0,#+0
        BEQ.N    ??AppS2wCmd_HttpClientOpen_14
        BL       ?Subroutine51
??CrossCallReturnLabel_312:
        LDR      R0,[SP, #+0]
        CBZ.N    R0,??AppS2wCmd_HttpClientOpen_15
        STR      R0,[R7, #+32]
??AppS2wCmd_HttpClientOpen_15:
        BL       ?Subroutine33
??CrossCallReturnLabel_129:
        MOVS     R6,R0
        BEQ.N    ??AppS2wCmd_HttpClientOpen_14
          CFI FunCall strlen
        BL       strlen
        CBZ.N    R0,??AppS2wCmd_HttpClientOpen_16
        MOV      R0,R6
          CFI FunCall S2wCert_SearchRamTable
        BL       S2wCert_SearchRamTable
        CMN      R0,#+1
        ITT      EQ 
        MOVEQ    R0,R6
          CFI FunCall S2wCert_FlashFileLoad
        BLEQ     S2wCert_FlashFileLoad
        CMN      R0,#+1
        BEQ.N    ??AppS2wCmd_HttpClientOpen_17
        BL       ?Subroutine88
??CrossCallReturnLabel_476:
        STRH     R1,[R7, #+36]
        LDR      R0,[R0, R4]
        ADDS     R0,R0,#+2
        STR      R0,[R7, #+40]
??AppS2wCmd_HttpClientOpen_16:
        BL       ?Subroutine33
??CrossCallReturnLabel_128:
        MOVS     R6,R0
        BEQ.N    ??AppS2wCmd_HttpClientOpen_14
          CFI FunCall strlen
        BL       strlen
        CBZ.N    R0,??AppS2wCmd_HttpClientOpen_14
        MOV      R0,R6
          CFI FunCall S2wCert_SearchRamTable
        BL       S2wCert_SearchRamTable
        CMN      R0,#+1
        ITT      EQ 
        MOVEQ    R0,R6
          CFI FunCall S2wCert_FlashFileLoad
        BLEQ     S2wCert_FlashFileLoad
        CMN      R0,#+1
        BEQ.N    ??AppS2wCmd_HttpClientOpen_18
        BL       ?Subroutine88
??CrossCallReturnLabel_477:
        STRH     R1,[R7, #+44]
        LDR      R0,[R0, R4]
        ADDS     R0,R0,#+2
        STR      R0,[R7, #+48]
??AppS2wCmd_HttpClientOpen_14:
        LDR.W    R6,??DataTable378_2
        LDR.W    R4,??DataTable378_3
        LDRB     R0,[R6, #+0]
        CMP      R0,#+1
        BEQ.N    ??AppS2wCmd_HttpClientOpen_19
        LDR.W    R7,??DataTable378_4
        ADD      R10,R7,#+100
        LDR      R0,[R10, #+16]
        CMP      R0,#+0
        BNE.N    ??AppS2wCmd_HttpClientOpen_19
        MOVS     R2,#+100
        MOVS     R1,#+0
        LDR.W    R0,??DataTable378_5
          CFI FunCall memset
        BL       memset
        MOVS     R2,#+100
        MOVS     R1,#+0
        ADDS     R0,R6,#+4
          CFI FunCall memset
        BL       memset
        MOVS     R0,#+3
        STRB     R0,[R7, #+100]
        STR      R4,[R10, #+8]
        ADDS     R0,R6,#+4
        STR      R0,[R10, #+12]
        MOVS     R2,#+0
        MOVS     R0,#+0
        STR      R0,[R10, #+16]
        MOVW     R1,#+1653
        MOVS     R0,#+15
          CFI FunCall GsnDynMemMgmt_Alloc
        BL       GsnDynMemMgmt_Alloc
        MOVS     R7,R0
        BNE.N    ??AppS2wCmd_HttpClientOpen_20
??AppS2wCmd_HttpClientOpen_5:
        MOVS     R0,#+1
        B.N      ??AppS2wCmd_HttpClientOpen_13
??AppS2wCmd_HttpClientOpen_17:
        ADR.W    R0,`?<Constant "\\n\\r client certificate...">`
        B.N      ??AppS2wCmd_HttpClientOpen_11
??AppS2wCmd_HttpClientOpen_18:
        ADR.W    R0,`?<Constant "\\n\\rclient Key not found">`
        B.N      ??AppS2wCmd_HttpClientOpen_11
??AppS2wCmd_HttpClientOpen_20:
        MOVS     R2,#+15
        BL       ??Subroutine18_0
??CrossCallReturnLabel_36:
        BL       ?Subroutine96
??CrossCallReturnLabel_506:
        MOVS     R0,#+0
        STRB     R0,[R7, #+14]
        STR      R7,[R6, #+4]
        MOVS     R1,#+13
        LDR.W    R0,??DataTable378_5
        STR      R1,[R0, #+0]
        LDR      R0,[R10, #+16]
        ADDS     R0,R0,#+1
        STR      R0,[R10, #+16]
??AppS2wCmd_HttpClientOpen_19:
        MOVS     R0,#+0
??AppS2wCmd_HttpClientOpen_21:
        LDR.W    R1,??DataTable378_5
        LDR      R1,[R1, R0, LSL #+2]
        CMP      R1,#+255
        IT       CS 
        MOVCS    R1,#+255
        STR      R1,[R4, R0, LSL #+2]
        ADDS     R0,R0,#+1
        CMP      R0,#+25
        BCC.N    ??AppS2wCmd_HttpClientOpen_21
        ADD      R1,SP,#+8
        MOV      R0,R8
          CFI FunCall AppS2wHal_HttpOpen
        BL       AppS2wHal_HttpOpen
        MOVS     R4,R0
        BNE.W    ??AppS2wCmd_HttpClientOpen_1
        LDR      R1,[SP, #+8]
        ADR.W    R0,`?<Constant "\\n\\r%x">`
          CFI FunCall S2w_Printf
        BL       S2w_Printf
        CMP      R9,#+0
        BEQ.N    ??AppS2wCmd_HttpClientOpen_22
        LDRB     R0,[R11, #+4]
        CMP      R0,#+1
        BNE.N    ??AppS2wCmd_HttpClientOpen_23
        LDR      R0,[R5, #+4]
        CBZ.N    R0,??AppS2wCmd_HttpClientOpen_23
        MOV      R0,R9
          CFI FunCall AppS2wHal_HttpCheckDns
        BL       AppS2wHal_HttpCheckDns
??AppS2wCmd_HttpClientOpen_23:
        MOV      R0,R9
          CFI FunCall GsnDynMemMgmt_Free
        BL       GsnDynMemMgmt_Free
??AppS2wCmd_HttpClientOpen_22:
        LDR      R0,[R5, #+4]
        CBZ.N    R0,??AppS2wCmd_HttpClientOpen_24
          CFI FunCall GsnDynMemMgmt_Free
        BL       GsnDynMemMgmt_Free
        MOVS     R0,#+0
        STR      R0,[R5, #+4]
        STR      R0,[R5, #+0]
??AppS2wCmd_HttpClientOpen_24:
        MOVS     R0,#+0
        B.N      ??AppS2wCmd_HttpClientOpen_13
          CFI EndBlock cfiBlock12
// 1728 }

        SECTION `.text`:CODE:NOROOT(2)
        SECTION_TYPE SHT_PROGBITS, 0
        DATA
`?<Constant "\\r\\nIP:%d.%d.%d.%d">`:
        DC8 "\015\012IP:%d.%d.%d.%d"
        DC8 0, 0, 0

        SECTION `.text`:CODE:NOROOT(2)
        SECTION_TYPE SHT_PROGBITS, 0
        DATA
`?<Constant "\\n\\rCA certificate not ...">`:
        DC8 "\012\015CA certificate not found"
        DC8 0

        SECTION `.text`:CODE:NOROOT(2)
        SECTION_TYPE SHT_PROGBITS, 0
        DATA
`?<Constant "\\n\\r client certificate...">`:
        DC8 "\012\015 client certificate not found"

        SECTION `.text`:CODE:NOROOT(2)
        SECTION_TYPE SHT_PROGBITS, 0
        DATA
`?<Constant "\\n\\rclient Key not found">`:
        DC8 "\012\015client Key not found"
        DC8 0

        SECTION `.text`:CODE:NOROOT(2)
        SECTION_TYPE SHT_PROGBITS, 0
        DATA
`?<Constant "\\n\\r%x">`:
        DC8 "\012\015%x"
        DC8 0, 0, 0

        SECTION `.text`:CODE:NOROOT(1)
          CFI Block cfiCond13 Using cfiCommon0
          CFI Function AppS2wCmd_HttpClientOpen
          CFI NoCalls
          CFI Conditional ??CrossCallReturnLabel_475
          CFI R4 Frame(CFA, -36)
          CFI R5 Frame(CFA, -32)
          CFI R6 Frame(CFA, -28)
          CFI R7 Frame(CFA, -24)
          CFI R8 Frame(CFA, -20)
          CFI R9 Frame(CFA, -16)
          CFI R10 Frame(CFA, -12)
          CFI R11 Frame(CFA, -8)
          CFI R14 Frame(CFA, -4)
          CFI CFA R13+64
          CFI Block cfiCond14 Using cfiCommon0
          CFI (cfiCond14) Function AppS2wCmd_HttpClientOpen
          CFI (cfiCond14) NoCalls AppS2wCmd_HttpClientOpen
          CFI (cfiCond14) Conditional ??CrossCallReturnLabel_476
          CFI (cfiCond14) R4 Frame(CFA, -36)
          CFI (cfiCond14) R5 Frame(CFA, -32)
          CFI (cfiCond14) R6 Frame(CFA, -28)
          CFI (cfiCond14) R7 Frame(CFA, -24)
          CFI (cfiCond14) R8 Frame(CFA, -20)
          CFI (cfiCond14) R9 Frame(CFA, -16)
          CFI (cfiCond14) R10 Frame(CFA, -12)
          CFI (cfiCond14) R11 Frame(CFA, -8)
          CFI (cfiCond14) R14 Frame(CFA, -4)
          CFI (cfiCond14) CFA R13+64
          CFI Block cfiCond15 Using cfiCommon0
          CFI (cfiCond15) Function AppS2wCmd_HttpClientOpen
          CFI (cfiCond15) NoCalls AppS2wCmd_HttpClientOpen
          CFI (cfiCond15) Conditional ??CrossCallReturnLabel_477
          CFI (cfiCond15) R4 Frame(CFA, -36)
          CFI (cfiCond15) R5 Frame(CFA, -32)
          CFI (cfiCond15) R6 Frame(CFA, -28)
          CFI (cfiCond15) R7 Frame(CFA, -24)
          CFI (cfiCond15) R8 Frame(CFA, -20)
          CFI (cfiCond15) R9 Frame(CFA, -16)
          CFI (cfiCond15) R10 Frame(CFA, -12)
          CFI (cfiCond15) R11 Frame(CFA, -8)
          CFI (cfiCond15) R14 Frame(CFA, -4)
          CFI (cfiCond15) CFA R13+64
          CFI Block cfiPicker16 Using cfiCommon1
          CFI (cfiPicker16) NoFunction
          CFI (cfiPicker16) NoCalls AppS2wCmd_HttpClientOpen
          CFI (cfiPicker16) Picker
        THUMB
?Subroutine88:
        MOVS     R1,#+12
        MULS     R0,R1,R0
        LDR      R1,[R0, R4]
        LDRH     R1,[R1, #+0]
        BX       LR
          CFI EndBlock cfiCond13
          CFI EndBlock cfiCond14
          CFI EndBlock cfiCond15
          CFI EndBlock cfiPicker16
// 1729 
// 1730 
// 1731 /**
// 1732  ******************************************************************
// 1733  * @ingroup S2w-Application
// 1734  * @brief Process AT+HTTPCLOSE command
// 1735  *   This function close the http connection opened.
// 1736  * @param ptr Pointer to the user input string.
// 1737  *
// 1738  * @return S2W_SUCCESS - operation successful.
// 1739  * @return S2W_FAILURE - operation Failed.
// 1740  * @return S2W_EINVAL - operation Failed-invalid input
// 1741  ******************************************************************/

        SECTION `.text`:CODE:NOROOT(1)
          CFI Block cfiBlock17 Using cfiCommon0
          CFI Function AppS2wCmd_HttpClientClose
        THUMB
// 1742  UINT8
// 1743 AppS2wCmd_HttpClientClose(UINT8 *ptr)
// 1744 {
AppS2wCmd_HttpClientClose:
        PUSH     {R0,R4,LR}
          CFI R14 Frame(CFA, -4)
          CFI R4 Frame(CFA, -8)
          CFI CFA R13+12
        SUB      SP,SP,#+4
          CFI CFA R13+16
// 1745     UINT8 status;
// 1746     UINT8 *p ;
// 1747     UINT32 cid;
// 1748 
// 1749     p = AppS2wParse_NextParamGet(&ptr);
        BL       ?Subroutine35
??CrossCallReturnLabel_177:
        MOVS     R4,R0
// 1750     if (!p)
        BNE.N    ??AppS2wCmd_HttpClientClose_0
// 1751     {
// 1752         return S2W_EINVAL;
        MOVS     R0,#+2
        POP      {R1,R2,R4,PC}
// 1753     }
// 1754     else
// 1755     {
// 1756         if(AppS2w_CidValidate(*p) == INVALID_CID)
??AppS2wCmd_HttpClientClose_0:
        LDRB     R0,[R4, #+0]
          CFI FunCall AppS2w_CidValidate
        BL       AppS2w_CidValidate
        CMP      R0,#+255
        BNE.N    ??AppS2wCmd_HttpClientClose_1
// 1757             return S2W_EBADCID;
        MOVS     R0,#+5
        POP      {R1,R2,R4,PC}
// 1758         status = AppS2wParse_Hex(p, &cid);
??AppS2wCmd_HttpClientClose_1:
        ADD      R1,SP,#+0
        MOV      R0,R4
          CFI FunCall AppS2wParse_Hex
        BL       AppS2wParse_Hex
// 1759         if (status != S2W_SUCCESS)
        CBNZ.N   R0,??AppS2wCmd_HttpClientClose_2
// 1760         {
// 1761         	return status;
// 1762         }
// 1763         return AppS2wHal_HttpClose(cid);
        LDR      R0,[SP, #+0]
          CFI FunCall AppS2wHal_HttpClose
        BL       AppS2wHal_HttpClose
??AppS2wCmd_HttpClientClose_2:
        POP      {R1,R2,R4,PC}    ;; return
          CFI EndBlock cfiBlock17
// 1764     }
// 1765 }
// 1766 
// 1767 /**
// 1768  ******************************************************************
// 1769  * @ingroup S2w-Application
// 1770  * @brief Process AT+HTTPCONF command
// 1771  *   This function configures the http client paramters.
// 1772  * @param ptr Pointer to the user input string.
// 1773  *
// 1774  * @return S2W_SUCCESS - operation successful.
// 1775  * @return S2W_FAILURE - operation Failed.
// 1776  * @return S2W_EINVAL - operation Failed-invalid input
// 1777  ******************************************************************/
// 1778 

        SECTION `.text`:CODE:NOROOT(1)
          CFI Block cfiBlock18 Using cfiCommon0
          CFI Function AppS2wCmd_HttpClientConfig
        THUMB
// 1779  UINT8
// 1780  AppS2wCmd_HttpClientConfig(UINT8 *ptr)
// 1781  {
AppS2wCmd_HttpClientConfig:
        PUSH     {R0,R4-R10,LR}
          CFI R14 Frame(CFA, -4)
          CFI R10 Frame(CFA, -8)
          CFI R9 Frame(CFA, -12)
          CFI R8 Frame(CFA, -16)
          CFI R7 Frame(CFA, -20)
          CFI R6 Frame(CFA, -24)
          CFI R5 Frame(CFA, -28)
          CFI R4 Frame(CFA, -32)
          CFI CFA R13+36
// 1782      UINT32 param, len,Userparam/*, index = 0*/;
// 1783      static UINT8 initDone;
// 1784      UINT8 *p, i, newParam = 0;
// 1785      INT8 *pValue;
// 1786 
// 1787     if(!initDone)
        LDR.W    R5,??DataTable378_2
        LDR.W    R7,??DataTable378_4
        LDRB     R0,[R5, #+1]
        LDR.W    R8,??DataTable378_5
        SUB      SP,SP,#+4
          CFI CFA R13+40
        MOVS     R6,#+0
        ADD      R4,R7,#+100
        CBNZ.N   R0,??AppS2wCmd_HttpClientConfig_0
// 1788     {
// 1789         memset(&headerTypes[0], GSN_HTTP_HEADER_INVAL, sizeof(headerTypes));
        MOVS     R2,#+100
        BL       ??Subroutine141_0
// 1790         memset(&headerValues[0], 0, sizeof(headerValues));
??CrossCallReturnLabel_639:
        MOVS     R2,#+100
        MOV      R1,R6
        ADDS     R0,R5,#+4
          CFI FunCall memset
        BL       memset
// 1791         httpConfInfo.reqVersion = GSN_HTTP_VERSION_1_1;
        MOVS     R0,#+3
        STRB     R0,[R7, #+100]
// 1792         httpConfInfo.reqHeaderTypes = (GSN_HTTP_USER_HEADER_TYPE_T *)headerTypesModified;
// 1793         httpConfInfo.reqHeaderValues = headerValues;
// 1794         httpConfInfo.reqHeaderCount = 0;
        STR      R6,[R4, #+16]
        LDR.W    R0,??DataTable378_3
        STR      R0,[R4, #+8]
        ADDS     R0,R5,#+4
        STR      R0,[R4, #+12]
// 1795 
// 1796         initDone = 1;
        MOVS     R0,#+1
        STRB     R0,[R5, #+1]
// 1797     }
// 1798 
// 1799      p = AppS2wParse_NextParamGet(&ptr);
??AppS2wCmd_HttpClientConfig_0:
        BL       ?Subroutine35
// 1800      if (!p)
??CrossCallReturnLabel_176:
        CMP      R0,#+0
        BEQ.N    ??AppS2wCmd_HttpClientConfig_1
// 1801      {
// 1802          return S2W_EINVAL;
// 1803      }
// 1804      AppS2wParse_Int(p, &param);
        BL       ?Subroutine51
// 1805 
// 1806 	 Userparam = param;
??CrossCallReturnLabel_311:
        LDR      R9,[SP, #+0]
// 1807 
// 1808      len = strlen((INT8 *)ptr);
        LDR      R0,[SP, #+4]
          CFI FunCall strlen
        BL       strlen
        MOVS     R7,R0
// 1809      if(len == 0)
        BEQ.N    ??AppS2wCmd_HttpClientConfig_1
// 1810      {
// 1811          return S2W_EINVAL;
// 1812      }
// 1813 	if((GSN_HTTP_USER_HEADER_TYPE_T)param >= GSN_HTTP_HEADER_DATE &&  Userparam < GSN_HTTP_HEADER_COUNT )
        LDR      R0,[SP, #+0]
        CMP      R0,#+10
        BCC.N    ??AppS2wCmd_HttpClientConfig_2
        CMP      R9,#+25
        ITT      CC 
        ADDCC    R0,R0,#+2
        STRCC    R0,[SP, #+0]
// 1814 	{
// 1815 	   param = param + 2;
// 1816 	}
// 1817 	if((GSN_HTTP_USER_HEADER_TYPE_T)param > GSN_HTTP_HEADER_SERVER &&  Userparam < GSN_HTTP_HEADER_COUNT)
??AppS2wCmd_HttpClientConfig_2:
        LDR      R0,[SP, #+0]
        CMP      R0,#+21
        BCC.N    ??AppS2wCmd_HttpClientConfig_3
        CMP      R9,#+25
        ITT      CC 
        ADDCC    R0,R0,#+1
        STRCC    R0,[SP, #+0]
// 1818 	{
// 1819 	   param = param + 1;
// 1820 	}
// 1821     if(param == S2W_HTTPC_CFG_PARAM_REQUEST_URL)
??AppS2wCmd_HttpClientConfig_3:
        LDR      R0,[SP, #+0]
        CMP      R0,#+26
        BNE.N    ??AppS2wCmd_HttpClientConfig_4
// 1822     {
// 1823         p = AppS2wParse_NextParamGet(&ptr);
        BL       ?Subroutine35
??CrossCallReturnLabel_175:
        MOVS     R6,R0
// 1824         if (!p)
        BEQ.N    ??AppS2wCmd_HttpClientConfig_1
// 1825         {
// 1826             return S2W_EINVAL;
// 1827         }
// 1828         len = strlen((const char *)p);
          CFI FunCall strlen
        BL       strlen
        MOV      R7,R0
// 1829         if(NULL != httpConfInfo.reqPathPtr)
        LDR      R0,[R4, #+4]
        CBZ.N    R0,??AppS2wCmd_HttpClientConfig_5
// 1830         {
// 1831             gsn_free(httpConfInfo.reqPathPtr);
          CFI FunCall GsnDynMemMgmt_Free
        BL       GsnDynMemMgmt_Free
// 1832             httpConfInfo.reqPathPtr = NULL;
        MOVS     R0,#+0
        STR      R0,[R4, #+4]
// 1833         }
// 1834         httpConfInfo.reqPathPtr = gsn_malloc(len+1);
??AppS2wCmd_HttpClientConfig_5:
        MOVS     R2,#+0
        MOVW     R1,#+1834
        ADDS     R0,R7,#+1
          CFI FunCall GsnDynMemMgmt_Alloc
        BL       GsnDynMemMgmt_Alloc
        STR      R0,[R4, #+4]
// 1835         if(NULL == httpConfInfo.reqPathPtr)
        CBZ.N    R0,??AppS2wCmd_HttpClientConfig_6
// 1836         {
// 1837             return S2W_FAILURE;
// 1838         }
// 1839         strncpy(httpConfInfo.reqPathPtr, (const INT8 *)p, len);
        MOV      R2,R7
        MOV      R1,R6
          CFI FunCall strncpy
        BL       strncpy
// 1840         httpConfInfo.reqPathPtr[len] ='\0';
        LDR      R0,[R4, #+4]
        MOVS     R1,#+0
        STRB     R1,[R7, R0]
// 1841 
// 1842     }
// 1843     else if((param > S2W_HTTPC_CFG_PARAM_INV && param < S2W_HTTPC_CFG_PARAM_HEADER_COUNT1)
// 1844         || (param >= S2W_HTTPC_CFG_PARAM_HEADER_CUSTOM))
// 1845     {
// 1846         pValue = gsn_malloc(len+1);
// 1847 
// 1848         if(pValue == NULL)
// 1849         {
// 1850             return S2W_FAILURE;
// 1851         }
// 1852 
// 1853         memset(pValue, 0 , len+1);
// 1854         strncpy(pValue, (const INT8 *)ptr, len);
// 1855         pValue[len] = '\0';
// 1856 
// 1857         for( i = 0; i < S2W_HTTPC_MAX_HDR_SUPPORTED; i++)
// 1858         {
// 1859             if((headerValues[i] == NULL) || (headerTypes[i] == param))
// 1860             {
// 1861                 if(headerValues[i])
// 1862                 {
// 1863                  gsn_free(headerValues[i]);
// 1864                 }
// 1865                 else
// 1866                 {
// 1867                  newParam = 1;
// 1868                 }
// 1869                 break;
// 1870            }
// 1871        }
// 1872      if( i < S2W_HTTPC_MAX_HDR_SUPPORTED)
// 1873      {
// 1874 	     headerValues[i] = pValue;
// 1875 	     headerTypes[i] = (GSN_HTTP_USER_HEADER_TYPE_T)param;
// 1876      }
// 1877      if(newParam)
// 1878          httpConfInfo.reqHeaderCount++;
// 1879     }
// 1880     else
// 1881     {
// 1882         return S2W_EINVAL;
// 1883     }
// 1884      httpConfAtCmd =1;
??AppS2wCmd_HttpClientConfig_7:
        MOVS     R0,#+1
        STRB     R0,[R5, #+0]
// 1885      return S2W_SUCCESS;
        MOVS     R0,#+0
??AppS2wCmd_HttpClientConfig_8:
        POP      {R1,R2,R4-R10,PC}  ;; return
??AppS2wCmd_HttpClientConfig_4:
        CMP      R0,#+0
        BEQ.N    ??AppS2wCmd_HttpClientConfig_1
        SUBS     R0,R0,#+25
        CMP      R0,#+230
        BCC.N    ??AppS2wCmd_HttpClientConfig_1
        ADD      R10,R7,#+1
        MOVS     R2,#+0
        MOVW     R1,#+1846
        MOV      R0,R10
          CFI FunCall GsnDynMemMgmt_Alloc
        BL       GsnDynMemMgmt_Alloc
        MOVS     R9,R0
        BNE.N    ??AppS2wCmd_HttpClientConfig_9
??AppS2wCmd_HttpClientConfig_6:
        MOVS     R0,#+1
        B.N      ??AppS2wCmd_HttpClientConfig_8
??AppS2wCmd_HttpClientConfig_9:
        MOV      R2,R10
        BL       ??Subroutine18_0
??CrossCallReturnLabel_35:
        LDR      R1,[SP, #+4]
        MOV      R2,R7
        MOV      R0,R9
          CFI FunCall strncpy
        BL       strncpy
        STRB     R6,[R7, R9]
        MOV      R7,R6
??AppS2wCmd_HttpClientConfig_10:
        ADD      R0,R5,R7, LSL #+2
        LDR      R0,[R0, #+4]
        CBZ.N    R0,??AppS2wCmd_HttpClientConfig_11
        LDR      R1,[R8, R7, LSL #+2]
        LDR      R2,[SP, #+0]
        CMP      R1,R2
        BNE.N    ??AppS2wCmd_HttpClientConfig_12
          CFI FunCall GsnDynMemMgmt_Free
        BL       GsnDynMemMgmt_Free
        B.N      ??AppS2wCmd_HttpClientConfig_13
??AppS2wCmd_HttpClientConfig_11:
        MOVS     R6,#+1
        B.N      ??AppS2wCmd_HttpClientConfig_13
??AppS2wCmd_HttpClientConfig_12:
        ADDS     R0,R7,#+1
        UXTB     R7,R0
        CMP      R7,#+25
        BCC.N    ??AppS2wCmd_HttpClientConfig_10
??AppS2wCmd_HttpClientConfig_13:
        CMP      R7,#+25
        BCS.N    ??AppS2wCmd_HttpClientConfig_14
        ADD      R0,R5,R7, LSL #+2
        STR      R9,[R0, #+4]
        LDR      R0,[SP, #+0]
        STR      R0,[R8, R7, LSL #+2]
??AppS2wCmd_HttpClientConfig_14:
        CMP      R6,#+0
        BEQ.N    ??AppS2wCmd_HttpClientConfig_7
        LDR      R0,[R4, #+16]
        ADDS     R0,R0,#+1
        STR      R0,[R4, #+16]
        B.N      ??AppS2wCmd_HttpClientConfig_7
??AppS2wCmd_HttpClientConfig_1:
        MOVS     R0,#+2
        B.N      ??AppS2wCmd_HttpClientConfig_8
          CFI EndBlock cfiBlock18
// 1886 
// 1887  }
// 1888 /**
// 1889  ******************************************************************
// 1890  * @ingroup S2w-Application
// 1891  * @brief Process AT+HTTPCONFDEL command
// 1892  *   This function delete the particular http configuration
// 1893  * @param ptr Pointer to the user input string.
// 1894  *
// 1895  * @return S2W_SUCCESS - operation successful.
// 1896  * @return S2W_FAILURE - operation Failed.
// 1897  * @return S2W_EINVAL - operation Failed-invalid input
// 1898  ******************************************************************/
// 1899 

        SECTION `.text`:CODE:NOROOT(1)
          CFI Block cfiBlock19 Using cfiCommon0
          CFI Function AppS2wCmd_HttpClientConfigDel
        THUMB
// 1900  UINT8
// 1901 AppS2wCmd_HttpClientConfigDel(UINT8 *ptr)
// 1902 {
AppS2wCmd_HttpClientConfigDel:
        PUSH     {R0,R4-R7,LR}
          CFI R14 Frame(CFA, -4)
          CFI R7 Frame(CFA, -8)
          CFI R6 Frame(CFA, -12)
          CFI R5 Frame(CFA, -16)
          CFI R4 Frame(CFA, -20)
          CFI CFA R13+24
        SUB      SP,SP,#+8
          CFI CFA R13+32
// 1903     UINT32 param, i;
// 1904     //static UINT8 initDone;
// 1905     UINT8 *p;
// 1906 
// 1907     p = AppS2wParse_NextParamGet(&ptr);
        BL       ??Subroutine34_0
// 1908     if (!p)
??CrossCallReturnLabel_156:
        CMP      R0,#+0
        BEQ.N    ??AppS2wCmd_HttpClientConfigDel_0
// 1909     {
// 1910         return S2W_EINVAL;
// 1911     }
// 1912     AppS2wParse_Int(p, &param);
        BL       ?Subroutine51
// 1913 
// 1914 	if((GSN_HTTP_USER_HEADER_TYPE_T)param >= GSN_HTTP_HEADER_DATE)
??CrossCallReturnLabel_310:
        LDR      R0,[SP, #+0]
        CMP      R0,#+10
        ITT      CS 
        ADDCS    R0,R0,#+2
        STRCS    R0,[SP, #+0]
// 1915 	{
// 1916 	   param = param + 2;
// 1917 	}
// 1918 	if((GSN_HTTP_USER_HEADER_TYPE_T)param > GSN_HTTP_HEADER_SERVER)
        LDR      R0,[SP, #+0]
        CMP      R0,#+21
        ITT      CS 
        ADDCS    R0,R0,#+1
        STRCS    R0,[SP, #+0]
// 1919 	{
// 1920 	   param = param + 1;
// 1921 	}
// 1922     if(param == S2W_HTTPC_CFG_PARAM_REQUEST_URL)
        LDR      R0,[SP, #+0]
        LDR.W    R4,??DataTable378_4
        CMP      R0,#+26
        BNE.N    ??AppS2wCmd_HttpClientConfigDel_1
// 1923     {
// 1924         if(NULL != httpConfInfo.reqPathPtr)
        LDR      R0,[R4, #+104]
        CBZ.N    R0,??AppS2wCmd_HttpClientConfigDel_2
// 1925         {
// 1926             gsn_free(httpConfInfo.reqPathPtr);
          CFI FunCall GsnDynMemMgmt_Free
        BL       GsnDynMemMgmt_Free
// 1927             httpConfInfo.reqPathPtr = NULL;
        MOVS     R0,#+0
        STR      R0,[R4, #+104]
// 1928         }
// 1929         return S2W_SUCCESS;
??AppS2wCmd_HttpClientConfigDel_2:
        MOVS     R0,#+0
        POP      {R1-R7,PC}
// 1930     }
// 1931 
// 1932     if((param > S2W_HTTPC_CFG_PARAM_INV && param < S2W_HTTPC_CFG_PARAM_HEADER_COUNT1)
// 1933         || (param >= S2W_HTTPC_CFG_PARAM_HEADER_CUSTOM))
??AppS2wCmd_HttpClientConfigDel_1:
        CBZ.N    R0,??AppS2wCmd_HttpClientConfigDel_0
        SUBS     R0,R0,#+25
        CMP      R0,#+230
        BCC.N    ??AppS2wCmd_HttpClientConfigDel_0
// 1934     {/*delete Header Configuration*/
// 1935 
// 1936         for( i = 0; i < httpConfInfo.reqHeaderCount; i++)
        MOVS     R6,#+0
        LDR.W    R5,??DataTable378_5
        LDR.W    R7,??DataTable378_2
        B.N      ??AppS2wCmd_HttpClientConfigDel_3
??AppS2wCmd_HttpClientConfigDel_4:
        ADDS     R6,R6,#+1
??AppS2wCmd_HttpClientConfigDel_3:
        LDR      R0,[R4, #+116]
        CMP      R6,R0
        BCS.N    ??AppS2wCmd_HttpClientConfigDel_5
// 1937         {
// 1938             if(headerTypes[i] == param)
        LDR      R0,[R5, R6, LSL #+2]
        LDR      R1,[SP, #+0]
        CMP      R0,R1
        BNE.N    ??AppS2wCmd_HttpClientConfigDel_4
        ADD      R0,R7,R6, LSL #+2
        LDR      R0,[R0, #+4]
        CBZ.N    R0,??AppS2wCmd_HttpClientConfigDel_5
// 1939             {
// 1940                 if(headerValues[i])
// 1941                     gsn_free(headerValues[i]);
          CFI FunCall GsnDynMemMgmt_Free
        BL       GsnDynMemMgmt_Free
// 1942                 break;
// 1943             }
// 1944         }
// 1945 
// 1946         if(i == httpConfInfo.reqHeaderCount)
??AppS2wCmd_HttpClientConfigDel_5:
        LDR      R0,[R4, #+116]
        CMP      R6,R0
        BNE.N    ??AppS2wCmd_HttpClientConfigDel_6
// 1947             return S2W_FAILURE;
        MOVS     R0,#+1
        POP      {R1-R7,PC}
// 1948 
// 1949         for( ; i < (httpConfInfo.reqHeaderCount - 1); i++)
// 1950         {
// 1951             headerTypes[i] = headerTypes[i+1];
??AppS2wCmd_HttpClientConfigDel_7:
        ADD      R2,R5,R6, LSL #+2
        LDR      R2,[R2, #+4]
        STR      R2,[R5, R6, LSL #+2]
// 1952             headerValues[i] = headerValues[i+1];
// 1953         }
        ADDS     R6,R6,#+1
        LDR      R2,[R1, #+8]
        STR      R2,[R1, #+4]
??AppS2wCmd_HttpClientConfigDel_6:
        SUBS     R2,R0,#+1
        ADD      R1,R7,R6, LSL #+2
        CMP      R6,R2
        BCC.N    ??AppS2wCmd_HttpClientConfigDel_7
// 1954         headerValues[i] = NULL;
        MOVS     R0,#+0
        STR      R0,[R1, #+4]
// 1955         headerTypes[i] = GSN_HTTP_HEADER_INVAL;
        STR      R0,[R5, R6, LSL #+2]
// 1956         httpConfInfo.reqHeaderCount--;
        STR      R2,[R4, #+116]
// 1957     }
// 1958     else
// 1959     {
// 1960         return S2W_EINVAL;
// 1961     }
// 1962 
// 1963     return S2W_SUCCESS;
        POP      {R1-R7,PC}
??AppS2wCmd_HttpClientConfigDel_0:
        MOVS     R0,#+2
        POP      {R1-R7,PC}       ;; return
          CFI EndBlock cfiBlock19
// 1964 
// 1965 }
// 1966 
// 1967 
// 1968 /**
// 1969  ******************************************************************
// 1970  * @ingroup S2w-Application
// 1971  * @brief Process the http data from the serial interface.
// 1972  *   This function reads the http data and sends to wifi.
// 1973  * @param dataLen the input data length.
// 1974  * @param hCid the cid of the http connection.
// 1975  * @return S2W_SUCCESS - operation successful.
// 1976  * @return S2W_FAILURE - operation Failed.
// 1977  ******************************************************************/
// 1978 

        SECTION `.text`:CODE:NOROOT(1)
          CFI Block cfiBlock20 Using cfiCommon0
          CFI Function AppS2wHal_httpContentDataGet
        THUMB
// 1979 PUBLIC UINT8
// 1980 AppS2wHal_httpContentDataGet(UINT32 dataLen, UINT8 hCid)
// 1981 {
AppS2wHal_httpContentDataGet:
        PUSH     {R3-R9,LR}
          CFI R14 Frame(CFA, -4)
          CFI R9 Frame(CFA, -8)
          CFI R8 Frame(CFA, -12)
          CFI R7 Frame(CFA, -16)
          CFI R6 Frame(CFA, -20)
          CFI R5 Frame(CFA, -24)
          CFI R4 Frame(CFA, -28)
          CFI CFA R13+32
// 1982     GSN_STATUS status = S2W_SUCCESS;
// 1983     S2W_HTTP_DATA_T *pHttpData;
// 1984     httpConfInfo.reqBodyLen = 0;
        LDR.W    R6,??DataTable378_4
        MOV      R4,R0
        ADD      R7,R6,#+120
        MOVS     R0,#+0
        STR      R0,[R7, #+4]
        MOV      R8,R1
// 1985     httpConfInfo.moredata = 1;
        MOVS     R0,#+1
        STRB     R0,[R6, #+172]
        MOVS     R5,#+0
// 1986     httpConfInfo.reqBodyPtr = (INT8 *)gsn_malloc(1022);
        MOV      R2,R5
        MOVW     R1,#+1986
        MOVW     R0,#+1022
          CFI FunCall GsnDynMemMgmt_Alloc
        BL       GsnDynMemMgmt_Alloc
        STR      R0,[R6, #+120]
// 1987     if(NULL ==  httpConfInfo.reqBodyPtr)
        CBZ.N    R0,??AppS2wHal_httpContentDataGet_0
// 1988     {
// 1989         status = S2W_FAILURE;
// 1990         goto AppS2wHal_httpContentDataGetExit;
// 1991     }
// 1992     pHttpData = (S2W_HTTP_DATA_T *)AppS2wHal_HttpHandleGet(hCid);
        MOV      R0,R8
          CFI FunCall AppS2wHal_HttpHandleGet
        BL       AppS2wHal_HttpHandleGet
        MOVS     R9,R0
// 1993     if(pHttpData != NULL)
        BEQ.N    ??AppS2wHal_httpContentDataGet_0
// 1994     {
// 1995         GsnOsal_SemAcquire(&pHttpData->opInProgress, GSN_OSAL_WAIT_FOREVER);
        MOV      R1,#-1
        ADD      R0,R9,#+48
          CFI FunCall GsnOsal_SemAcquire
        BL       GsnOsal_SemAcquire
// 1996     }
// 1997     else
// 1998     {
// 1999         status = S2W_FAILURE;
// 2000         goto AppS2wHal_httpContentDataGetExit;
// 2001     }
// 2002     while(dataLen)
??AppS2wHal_httpContentDataGet_1:
        CBZ.N    R4,??AppS2wHal_httpContentDataGet_2
// 2003     {
// 2004 
// 2005         httpConfInfo.reqBodyLen = dataLen >= HTTP_SEND_CHUNK_SIZE?
// 2006                                                 HTTP_SEND_CHUNK_SIZE:dataLen;
        CMP      R4,#+1000
        ITE      CS 
        MOVCS    R0,#+1000
        MOVCC    R0,R4
        B.N      ??AppS2wHal_httpContentDataGet_3
??AppS2wHal_httpContentDataGet_0:
        MOVS     R5,#+1
        B.N      ??AppS2wHal_httpContentDataGet_4
??AppS2wHal_httpContentDataGet_3:
        STR      R0,[R7, #+4]
// 2007 
// 2008         if(s2wCidList[hCid].sd != INVALID_CID)
        MOV      R0,#+296
        LDR.W    R1,??DataTable381
        MLA      R0,R0,R8,R1
        LDR      R0,[R0, #+28]
        CMP      R0,#+255
        BEQ.N    ??AppS2wHal_httpContentDataGet_5
// 2009         {
// 2010 #ifndef S2W_DUAL_INTERFACE_SUPPORT
// 2011 			AppS2wHal_CharNGet((UINT8 *)httpConfInfo.reqBodyPtr,httpConfInfo.reqBodyLen);
        LDR      R1,[R7, #+4]
        LDR      R0,[R6, #+120]
          CFI FunCall AppS2wHal_CharNGet
        BL       AppS2wHal_CharNGet
// 2012 #else
// 2013             AppS2wHal_CharNGet1((UINT8 *)httpConfInfo.reqBodyPtr,httpConfInfo.reqBodyLen);
// 2014 #endif
// 2015 			
// 2016         	dataLen -= httpConfInfo.reqBodyLen;
        LDR      R0,[R7, #+4]
        SUBS     R4,R4,R0
// 2017 
// 2018        		if(0 == dataLen )
        ITT      EQ 
        MOVEQ    R0,#+0
        STRBEQ   R0,[R6, #+172]
// 2019         	{
// 2020             	httpConfInfo.moredata = 0;
// 2021         	}
// 2022 	        status = S2wHttp_Send(hCid);
        MOV      R0,R8
          CFI FunCall S2wHttp_Send
        BL       S2wHttp_Send
        MOV      R5,R0
// 2023         	httpConfInfo.reqBodyLen = 0;
        MOVS     R0,#+0
        STR      R0,[R7, #+4]
// 2024         }
// 2025 		else
// 2026 			status = S2W_FAILURE;
// 2027         if(status != S2W_SUCCESS)
        CMP      R5,#+0
        BEQ.N    ??AppS2wHal_httpContentDataGet_1
??AppS2wHal_httpContentDataGet_5:
        MOVS     R5,#+1
// 2028         {
// 2029             status = S2W_FAILURE;
// 2030             break;
// 2031         }
// 2032     }
// 2033     if(pHttpData != NULL)
// 2034     {
// 2035         GsnOsal_SemRelease(&pHttpData->opInProgress);
??AppS2wHal_httpContentDataGet_2:
        ADD      R0,R9,#+48
          CFI FunCall GsnOsal_SemRelease
        BL       GsnOsal_SemRelease
// 2036     }
// 2037     if(NULL != httpConfInfo.reqBodyPtr)
        LDR      R0,[R6, #+120]
        CBZ.N    R0,??AppS2wHal_httpContentDataGet_4
// 2038     {
// 2039         gsn_free(httpConfInfo.reqBodyPtr);
          CFI FunCall GsnDynMemMgmt_Free
        BL       GsnDynMemMgmt_Free
// 2040         httpConfInfo.reqBodyPtr = NULL;
        MOVS     R0,#+0
        STR      R0,[R6, #+120]
// 2041     }
// 2042 AppS2wHal_httpContentDataGetExit:
// 2043 	httpConfInfo.moredata = 0;
??AppS2wHal_httpContentDataGet_4:
        MOVS     R0,#+0
        STRB     R0,[R6, #+172]
// 2044    return status;
        UXTB     R0,R5
        POP      {R1,R4-R9,PC}    ;; return
          CFI EndBlock cfiBlock20
// 2045 }
// 2046 

        SECTION `.text`:CODE:NOROOT(1)
          CFI Block cfiBlock21 Using cfiCommon0
          CFI Function AppS2wCmd_HttpClientSend
        THUMB
// 2047 UINT8
// 2048 AppS2wCmd_HttpClientSend(UINT8 *ptr)
// 2049 {
AppS2wCmd_HttpClientSend:
        PUSH     {R0,R4-R9,LR}
          CFI R14 Frame(CFA, -4)
          CFI R9 Frame(CFA, -8)
          CFI R8 Frame(CFA, -12)
          CFI R7 Frame(CFA, -16)
          CFI R6 Frame(CFA, -20)
          CFI R5 Frame(CFA, -24)
          CFI R4 Frame(CFA, -28)
          CFI CFA R13+32
        SUB      SP,SP,#+32
          CFI CFA R13+64
// 2050 	UINT8 cid;
// 2051     UINT32  method;
// 2052     UINT8 *p;//,*page, *content,  *httpRxDataBuf;
// 2053     UINT32 /*httpRxDataLen = 0, temp, ret,*/ timeOut,dataLen=0;
        MOVS     R0,#+0
        STR      R0,[SP, #+24]
// 2054 #ifdef S2W_HTTPC_SUPPORT
// 2055 	S2W_HTTP_DATA_T *pHttpData;
// 2056 	UINT32 len;
// 2057 #endif
// 2058     UINT8 status = S2W_SUCCESS;
        MOV      R9,R0
// 2059 #ifdef S2W_HTTP_CUSTOM_SUPPORT
// 2060     UINT8 statusline;
// 2061     UINT32 headercount;
// 2062     UINT32 size;
// 2063 #endif
// 2064     p = AppS2wParse_NextParamGet(&ptr);
        BL       ?Subroutine37
// 2065     if (!p)
??CrossCallReturnLabel_200:
        CMP      R0,#+0
        BEQ.N    ??AppS2wCmd_HttpClientSend_0
// 2066     {
// 2067         return S2W_EINVAL;
// 2068     }
// 2069 	cid = AppS2w_CidValidate(*p);
        BL       ?Subroutine101
??CrossCallReturnLabel_519:
        MOV      R6,R0
// 2070     if(cid == INVALID_CID)
        CMP      R6,#+255
        IT       EQ 
        MOVEQ    R0,#+5
// 2071         return S2W_EBADCID;
        BEQ.N    ??AppS2wCmd_HttpClientSend_1
// 2072     p = AppS2wParse_NextParamGet(&ptr);
        BL       ?Subroutine37
// 2073     if (!p)
??CrossCallReturnLabel_199:
        CBZ.N    R0,??AppS2wCmd_HttpClientSend_0
// 2074     {
// 2075         return S2W_EINVAL;
// 2076     }
// 2077     AppS2wParse_Int(p, &method);
        BL       ?Subroutine54
// 2078     if(method == S2W_HTTP_METHOD_GETRESP)
??CrossCallReturnLabel_348:
        LDR      R0,[SP, #+16]
        CMP      R0,#+6
        IT       EQ 
        MOVEQ    R0,#+8
// 2079     {
// 2080     	method = GSN_HTTP_METHOD_GETRESP;
        BEQ.N    ??AppS2wCmd_HttpClientSend_2
// 2081     }
// 2082     else if(method == S2W_HTTP_METHOD_POSTRESP)
        CMP      R0,#+7
        BNE.N    ??AppS2wCmd_HttpClientSend_3
// 2083     {
// 2084     	method = GSN_HTTP_METHOD_POSTRESP;
        MOVS     R0,#+9
??AppS2wCmd_HttpClientSend_2:
        STR      R0,[SP, #+16]
// 2085     }
// 2086 #ifdef S2W_HTTPC_SUPPORT
// 2087     httpConfInfo.reqMethod = (GSN_HTTP_USER_METHOD_T)method;
??AppS2wCmd_HttpClientSend_3:
        LDR.W    R4,??DataTable378_4
        LDR      R0,[SP, #+16]
        ADD      R7,R4,#+100
        STRB     R0,[R7, #+1]
// 2088 #endif
// 2089     p = AppS2wParse_NextParamGet(&ptr);
        BL       ?Subroutine37
// 2090     if (!p)
??CrossCallReturnLabel_198:
        CBZ.N    R0,??AppS2wCmd_HttpClientSend_0
// 2091     {
// 2092         return S2W_EINVAL;
// 2093     }
// 2094     AppS2wParse_Int(p, &timeOut);
        BL       ?Subroutine56
// 2095     if(timeOut == 0)
??CrossCallReturnLabel_359:
        LDR      R0,[SP, #+20]
        CBNZ.N   R0,??AppS2wCmd_HttpClientSend_4
// 2096         timeOut = 5;
        MOVS     R0,#+5
        STR      R0,[SP, #+20]
// 2097 #ifdef S2W_WEB_SERVER
// 2098 	if(TRUE == GsnHttpd_IsRunning())
??AppS2wCmd_HttpClientSend_4:
          CFI FunCall GsnHttpd_IsRunning
        BL       GsnHttpd_IsRunning
        CMP      R0,#+1
        BNE.N    ??AppS2wCmd_HttpClientSend_5
// 2099 	{
// 2100 		status = AppS2w_HttpdSetTimeOut(cid,timeOut);
        MOV      R0,R6
        LDR      R1,[SP, #+20]
          CFI FunCall AppS2w_HttpdSetTimeOut
        BL       AppS2w_HttpdSetTimeOut
        MOVS     R9,R0
// 2101 		if(status != S2W_SUCCESS)
        BNE.N    ??AppS2wCmd_HttpClientSend_6
// 2102 			return	status;
// 2103 	}
// 2104 #endif
// 2105 #ifdef S2W_HTTPC_SUPPORT
// 2106 	httpConfInfo.httpTimeOut = timeOut;
??AppS2wCmd_HttpClientSend_5:
        LDR      R0,[SP, #+20]
        STR      R0,[R7, #+68]
// 2107 #endif
// 2108     p = AppS2wParse_NextParamGet(&ptr);
        BL       ?Subroutine37
??CrossCallReturnLabel_197:
        MOVS     R8,R0
// 2109     if (!p)
        BNE.N    ??AppS2wCmd_HttpClientSend_7
// 2110     {
// 2111         return S2W_EINVAL;
??AppS2wCmd_HttpClientSend_0:
        MOVS     R0,#+2
??AppS2wCmd_HttpClientSend_1:
        B.N      ??AppS2wCmd_HttpClientSend_8
// 2112     }
// 2113 
// 2114 #ifdef S2W_HTTPC_SUPPORT
// 2115  	len = strlen((const char *)p);
??AppS2wCmd_HttpClientSend_7:
          CFI FunCall strlen
        BL       strlen
        MOV      R5,R0
// 2116     if(NULL != httpConfInfo.reqPathPtr)
        LDR      R0,[R7, #+4]
        CBZ.N    R0,??AppS2wCmd_HttpClientSend_9
// 2117     {
// 2118         gsn_free(httpConfInfo.reqPathPtr);
          CFI FunCall GsnDynMemMgmt_Free
        BL       GsnDynMemMgmt_Free
// 2119         httpConfInfo.reqPathPtr = NULL;
        MOVS     R0,#+0
        STR      R0,[R7, #+4]
// 2120     }
// 2121     httpConfInfo.reqPathPtr = gsn_malloc(len+1);
??AppS2wCmd_HttpClientSend_9:
        MOVS     R2,#+0
        MOVW     R1,#+2121
        ADDS     R0,R5,#+1
          CFI FunCall GsnDynMemMgmt_Alloc
        BL       GsnDynMemMgmt_Alloc
        STR      R0,[R7, #+4]
// 2122     if(NULL == httpConfInfo.reqPathPtr)
        CMP      R0,#+0
        BEQ.N    ??AppS2wCmd_HttpClientSend_10
// 2123     {
// 2124         return S2W_FAILURE;
// 2125     }
// 2126     strncpy(httpConfInfo.reqPathPtr, (const INT8 *)p, len);
        MOV      R2,R5
        MOV      R1,R8
          CFI FunCall strncpy
        BL       strncpy
// 2127     httpConfInfo.reqPathPtr[len] ='\0';
        LDR      R0,[R7, #+4]
        MOVS     R1,#+0
        STRB     R1,[R5, R0]
// 2128     httpConfInfo.reqVersion = GSN_HTTP_VERSION_1_1;
        MOVS     R0,#+3
        STRB     R0,[R4, #+100]
// 2129 #endif
// 2130 #if (defined(S2W_GSLINK_XML) || defined(S2W_GSLINK_RAW )) &&  defined(S2W_WEB_SERVER)
// 2131 	if((method == GSN_HTTP_METHOD_GETRESP || method == GSN_HTTP_METHOD_POSTRESP ) &&
// 2132 		(strcmp((const char *)s2wappMainTaskCtxt->currenturi,(const INT8 *)p) != 0))
        LDR.W    R4,??DataTable382
        LDR      R0,[SP, #+16]
        CMP      R0,#+8
        IT       NE 
        CMPNE    R0,#+9
        BNE.N    ??AppS2wCmd_HttpClientSend_11
        LDR      R0,[R4, #+0]
        ADD      R0,R0,#+27392
        MOV      R1,R8
        ADDS     R0,R0,#+20
          CFI FunCall strcmp
        BL       strcmp
        CBNZ.N   R0,??AppS2wCmd_HttpClientSend_10
// 2133 	{
// 2134 		return S2W_FAILURE;
// 2135 	}
// 2136 #endif
// 2137     p = AppS2wParse_NextParamGet(&ptr);
??AppS2wCmd_HttpClientSend_11:
        BL       ?Subroutine37
// 2138 	if (!p)
??CrossCallReturnLabel_196:
        CBNZ.N   R0,??AppS2wCmd_HttpClientSend_12
// 2139     {
// 2140 #ifdef S2W_HTTPC_SUPPORT
// 2141 		if(GSN_HTTP_METHOD_POST == method)
        LDR      R0,[SP, #+16]
        CMP      R0,#+3
        BNE.N    ??AppS2wCmd_HttpClientSend_13
// 2142         {
// 2143             gsn_free(httpConfInfo.reqPathPtr);
        LDR      R0,[R7, #+4]
          CFI FunCall GsnDynMemMgmt_Free
        BL       GsnDynMemMgmt_Free
        B.N      ??AppS2wCmd_HttpClientSend_0
// 2144             return S2W_EINVAL;
// 2145         }
// 2146         httpConfInfo.reqBodyTotalLen = 0;
??AppS2wCmd_HttpClientSend_13:
        MOVS     R0,#+0
        STR      R0,[R7, #+28]
// 2147         httpConfInfo.reqBodyLen = 0;
        STR      R0,[R7, #+24]
// 2148         pHttpData = (S2W_HTTP_DATA_T *)AppS2wHal_HttpHandleGet(cid);
        MOV      R0,R6
          CFI FunCall AppS2wHal_HttpHandleGet
        BL       AppS2wHal_HttpHandleGet
        MOVS     R4,R0
// 2149         if(pHttpData != NULL)
        BEQ.N    ??AppS2wCmd_HttpClientSend_10
// 2150         {
// 2151             GsnOsal_SemAcquire(&pHttpData->opInProgress, GSN_OSAL_WAIT_FOREVER);
        MOV      R1,#-1
        ADD      R0,R4,#+48
          CFI FunCall GsnOsal_SemAcquire
        BL       GsnOsal_SemAcquire
// 2152             status = S2wHttp_Send(cid);
        MOV      R0,R6
          CFI FunCall S2wHttp_Send
        BL       S2wHttp_Send
        MOV      R9,R0
// 2153         }
// 2154         else
// 2155         {
// 2156             return S2W_FAILURE;
// 2157         }
// 2158         if(pHttpData != NULL)
// 2159         {
// 2160             GsnOsal_SemRelease(&pHttpData->opInProgress);
        ADD      R0,R4,#+48
          CFI FunCall GsnOsal_SemRelease
        BL       GsnOsal_SemRelease
??AppS2wCmd_HttpClientSend_6:
        B.N      ??AppS2wCmd_HttpClientSend_14
// 2161         }
??AppS2wCmd_HttpClientSend_10:
        MOVS     R0,#+1
        B.N      ??AppS2wCmd_HttpClientSend_8
// 2162 #endif
// 2163     }
// 2164     else
// 2165     {
// 2166          AppS2wParse_Int(p, &dataLen);
??AppS2wCmd_HttpClientSend_12:
        ADD      R1,SP,#+24
          CFI FunCall AppS2wParse_Int
        BL       AppS2wParse_Int
// 2167 #ifdef S2W_HTTPC_SUPPORT
// 2168 		httpConfInfo.reqBodyTotalLen = dataLen;
        LDR      R0,[SP, #+24]
        STR      R0,[R7, #+28]
// 2169 #endif
// 2170 #if defined(S2W_GSLINK) && defined(S2W_GSLINK_RAW )&& defined(S2W_WEB_SERVER)
// 2171 		if((method == GSN_HTTP_METHOD_GETRESP || method == GSN_HTTP_METHOD_POSTRESP))
        LDR      R0,[SP, #+16]
        CMP      R0,#+8
        IT       NE 
        CMPNE    R0,#+9
        BNE.N    ??AppS2wCmd_HttpClientSend_14
// 2172 		{
// 2173 			status = AppS2w_HttpdCtxInit(&s2wCidList[cid].httpdCtx,1);
        MOV      R0,#+296
        LDR.W    R1,??DataTable381
        MLA      R7,R0,R6,R1
        ADD      R6,R7,#+148
        MOVS     R1,#+1
        MOV      R0,R6
          CFI FunCall AppS2w_HttpdCtxInit
        BL       AppS2w_HttpdCtxInit
        MOV      R9,R0
// 2174 			AppS2w_HttpdBodyLenSet(&s2wCidList[cid].httpdCtx,dataLen);
        LDR      R1,[SP, #+24]
        MOV      R0,R6
          CFI FunCall AppS2w_HttpdBodyLenSet
        BL       AppS2w_HttpdBodyLenSet
// 2175 			AppS2w_HttpdMethodSet(&s2wCidList[cid].httpdCtx,(UINT8)method);
        LDR      R1,[SP, #+16]
        UXTB     R1,R1
        MOV      R0,R6
          CFI FunCall AppS2w_HttpdMethodSet
        BL       AppS2w_HttpdMethodSet
// 2176 			if(s2wappMainTaskCtxt->respTimeOut !=0)
        LDR      R0,[R4, #+0]
        MOVW     R1,#+27580
        ADDS     R2,R1,R0
        LDR      R2,[R2, #+4]
        CBZ.N    R2,??AppS2wCmd_HttpClientSend_14
// 2177 			{
// 2178 				s2wappMainTaskCtxt->responseInprogress=1;
        MOVS     R2,#+1
        STRB     R2,[R1, R0]
// 2179 			GsnSoftTmr_Stop(s2wappMainTaskCtxt->respTimeOutTmrHndl);
        MOVW     R6,#+27624
        LDR      R0,[R4, #+0]
        LDR      R0,[R6, R0]
          CFI FunCall GsnSoftTmr_Stop
        BL       GsnSoftTmr_Stop
// 2180 			s2wappMainTaskCtxt->respTimeOutTmrHndl = GsnSoftTmr_Start(&s2wappMainTaskCtxt->respTimeOutTmr, GSN_SOFT_TMR_ONESHOT,0, (ULONG64)(s2wappMainTaskCtxt->respTimeOut),
// 2181 							  ( GSN_SOFT_TMR_CBR_T )AppMcu_RespTimeoutCb, &s2wCidList[cid].sd );
        LDR      R5,[R4, #+0]
        ADD      R0,R7,#+28
        STR      R0,[SP, #+12]
        MOVS     R1,#+0
        LDR.W    R0,??DataTable384_1
        STR      R0,[SP, #+8]
        MOVS     R2,#+0
        MOVW     R0,#+27584
        MOV      R3,R1
        LDR      R0,[R0, R5]
        STRD     R0,R1,[SP, #+0]
        ADD      R0,R5,#+27392
        ADDS     R0,R0,#+200
          CFI FunCall GsnSoftTmr_Start
        BL       GsnSoftTmr_Start
        LDR      R1,[R4, #+0]
        STR      R0,[R6, R1]
// 2182 			}
// 2183 #ifdef S2W_HTTP_CUSTOM_SUPPORT
// 2184             /* check if custom headers has to be added */
// 2185             p = NULL;
// 2186             len = 0;
// 2187 
// 2188             p = AppS2wParse_NextParamGet(&ptr);
// 2189             if (NULL != p)
// 2190             {
// 2191                 status = AppS2wParse_Boolean(p, &statusline);
// 2192                 if (status != S2W_SUCCESS)
// 2193                 {
// 2194                     return status;
// 2195                 }
// 2196                 p = NULL;
// 2197                 p = AppS2wParse_NextParamGet(&ptr);
// 2198                 AppS2wParse_Int(p,  &size);
// 2199                 if(size != 0)
// 2200                 {
// 2201                     headercount = size;
// 2202                 }
// 2203                 AppS2w_HttpStatusLineSet(&s2wCidList[cid].httpdCtx, statusline);
// 2204                 AppS2w_HttpHdrCountSet(&s2wCidList[cid].httpdCtx, headercount);
// 2205             }
// 2206 #endif
// 2207 		}
// 2208 #endif
// 2209     }
// 2210     return status;
??AppS2wCmd_HttpClientSend_14:
        UXTB     R0,R9
??AppS2wCmd_HttpClientSend_8:
        ADD      SP,SP,#+36
          CFI CFA R13+28
        POP      {R4-R9,PC}       ;; return
          CFI EndBlock cfiBlock21
// 2211 }
// 2212 
// 2213 #endif
// 2214 
// 2215 #if 0
// 2216 UINT8
// 2217 AppS2wCmd_SslCertificateAdd(UINT8 *ptr)
// 2218 {
// 2219     UINT8 *p, *name;
// 2220     INT32 len, i = 0;
// 2221     UINT32 certStore;
// 2222 
// 2223     name = AppS2wParse_NextParamGet(&ptr);     //get cert name
// 2224     if (!name)
// 2225     {
// 2226         return S2W_EINVAL;
// 2227     }
// 2228     len = strlen((const char *)name);
// 2229     if( len > 32)
// 2230         return S2W_EINVAL;
// 2231     p = AppS2wParse_NextParamGet(&ptr);
// 2232     if (!p)
// 2233     {
// 2234         return S2W_EINVAL;
// 2235     }
// 2236     AppS2wParse_Int(p, &certFormat);
// 2237     if(certFormat > 1)
// 2238         return S2W_EINVAL;
// 2239 
// 2240     p = AppS2wParse_NextParamGet(&ptr);
// 2241     if (!p)
// 2242     {
// 2243         return S2W_EINVAL;
// 2244     }
// 2245 
// 2246     AppS2wParse_Int(p, &certFileSize);
// 2247 
// 2248     certFileSize = certFileSize >> certFormat;
// 2249     //S2w_Printf("\n\rfile size %d", certFileSize);
// 2250 
// 2251     p = AppS2wParse_NextParamGet(&ptr);     //get wehre to store SRAM/FLASH
// 2252     if (!p)
// 2253     {
// 2254         return S2W_EINVAL;
// 2255     }
// 2256     AppS2wParse_Int(p, &certStore);
// 2257 
// 2258     if(certStore > 1)
// 2259         return S2W_EINVAL;
// 2260 
// 2261 	if(S2wCert_findFile(name) == -1)
// 2262 	{
// 2263 		S2w_Printf("\n\rFILE EXISTS\n\r");
// 2264 		return S2W_FAILURE;
// 2265 	}
// 2266     if(certStore)
// 2267     {
// 2268     	i = S2wCert_MemAlloc(certFileSize);
// 2269 	    //S2w_Printf("\nmem-alloc :%d\n",i);
// 2270 	    if(i == -1)
// 2271 	    	return S2W_FAILURE;
// 2272         p = gsn_malloc(len+1); //allocate memory for storing name
// 2273         if(p == NULL)
// 2274             return S2W_FAILURE;
// 2275         strcpy((INT8 *)p, (const char *)name);
// 2276         s2w_ssl_cert_table[i].name = p; //copy pointer to SRAM entry
// 2277         s2w_ssl_cert_table[i].location = CERT_IN_RAM;
// 2278         certIndex = i;
// 2279     }
// 2280     else
// 2281     {
// 2282         certFile = f_open(name, "w");
// 2283         if(certFile == NULL)
// 2284         	return S2W_FAILURE;
// 2285         certIndex = S2W_INVALID_CERT_INDEX;
// 2286     }
// 2287 
// 2288     /* Store the Cert Index in a global. This is used when the actual certificate
// 2289       is received in the next escape sequence */
// 2290 
// 2291     return S2W_SUCCESS;
// 2292 }
// 2293 
// 2294 PUBLIC UINT32
// 2295 AppS2wCertificateData(UINT8 ch1)
// 2296 {
// 2297     UINT8 *buf, ch;
// 2298     UINT16 i = 2, index = 2;
// 2299 
// 2300     if ( (certIndex == S2W_INVALID_CERT_INDEX) && (certFile == NULL))
// 2301             return S2W_FAILURE;
// 2302 
// 2303     if( certFileSize == 0)
// 2304             return S2W_FAILURE;
// 2305 
// 2306     buf = gsn_malloc((certFileSize << certFormat) + 2);
// 2307 
// 2308     if(buf == NULL)
// 2309         return S2W_FAILURE;
// 2310 
// 2311     *buf = certFileSize & 0x00FF;
// 2312     *(buf + 1) = (certFileSize & 0xFF00) >> 8;
// 2313     /* if format is hex size will be double */
// 2314     certFileSize = certFileSize << certFormat;
// 2315 
// 2316     /* store incoming byte in temparory bufer */
// 2317     AppS2wHal_CharNGet((buf+2), certFileSize);
// 2318 
// 2319     if(certFormat)
// 2320     {
// 2321         for(i = 2; i < (certFileSize + 2);)
// 2322         {
// 2323             buf[index] = (AppS2wParse_ToHex(buf[i]) << 4) | (AppS2wParse_ToHex(buf[i + 1]) & 0x0F);
// 2324             i = i + 2;
// 2325             index++;
// 2326         }
// 2327     }
// 2328 
// 2329 
// 2330     /* recieving file is complete. If the Cert Address is in the 0x8000000
// 2331     range store it in flash else store it in SRAM (0x4000000 range) */
// 2332     if ( certIndex !=  S2W_INVALID_CERT_INDEX)
// 2333     {
// 2334         /* store in SRAM */
// 2335         memcpy((UINT8 *) s2w_ssl_cert_table[certIndex].certAddress, buf,
// 2336             ((certFileSize >> certFormat) + 2));
// 2337 
// 2338     }
// 2339     else
// 2340     {
// 2341         /* store in flash */
// 2342         f_write(buf, 1, (certFileSize >> certFormat) + 2, certFile);
// 2343 		f_close(certFile);
// 2344     }
// 2345     /* reset variables */
// 2346     certIndex = S2W_INVALID_CERT_INDEX;
// 2347     certFileSize = 0;
// 2348 	certFile = NULL;
// 2349     gsn_free(buf);
// 2350     S2w_Printf("\r\nOK\r\n");
// 2351     return S2W_SUCCESS;
// 2352 }
// 2353 
// 2354 UINT8
// 2355 AppS2wCmd_SslCertificateDelete(UINT8 *ptr)
// 2356 {
// 2357     UINT8 *p;
// 2358     INT32 certIndex, retVal =0;
// 2359 
// 2360     p = AppS2wParse_NextParamGet(&ptr);     //get cert name
// 2361     if (!p)
// 2362     {
// 2363          return S2W_EINVAL;
// 2364     }
// 2365     certIndex = S2wCert_SearchRamTable(p);
// 2366     if(certIndex != -1)
// 2367     {
// 2368     	gsn_free (s2w_ssl_cert_table[certIndex].certAddress);
// 2369         gsn_free(s2w_ssl_cert_table[certIndex].name);
// 2370         s2w_ssl_cert_table[certIndex].name = NULL;
// 2371         s2w_ssl_cert_table[certIndex].certAddress = NULL;
// 2372         if( s2w_ssl_cert_table[certIndex].location == CERT_IN_FLASH )
// 2373     	{
// 2374     		retVal = f_delete(p);
// 2375     	}
// 2376     }
// 2377     else
// 2378     {
// 2379     	retVal = f_delete(p);
// 2380     }
// 2381 
// 2382     if(!retVal)
// 2383     {
// 2384     	if(strcmp((const char*)p,S2W_CERT_NAME_CA) == 0)
// 2385     	{
// 2386 			s2wCurrent.security.eap.useCaCert=0;
// 2387     	}
// 2388         return S2W_SUCCESS;
// 2389     }
// 2390     else
// 2391         return S2W_FAILURE;
// 2392 }
// 2393 
// 2394 PRIVATE UINT8
// 2395 AppS2wCmd_Weap(UINT8 *ptr)
// 2396 {
// 2397     UINT8 *name, *p;
// 2398     INT32 i = 0;
// 2399     UINT32 certStore, certType;
// 2400 
// 2401     p = AppS2wParse_NextParamGet(&ptr);
// 2402     if (!p)
// 2403     {
// 2404         return S2W_EINVAL;
// 2405     }
// 2406     AppS2wParse_Int(p, &certType);
// 2407 
// 2408     if(certType > 2)
// 2409         return S2W_EINVAL;
// 2410 
// 2411     p = AppS2wParse_NextParamGet(&ptr);
// 2412     if (!p)
// 2413     {
// 2414         return S2W_EINVAL;
// 2415     }
// 2416 
// 2417     AppS2wParse_Int(p, &certFormat);
// 2418 
// 2419     if(certFormat > 1)
// 2420         return S2W_EINVAL;
// 2421 
// 2422     p = AppS2wParse_NextParamGet(&ptr);
// 2423     if (!p)
// 2424     {
// 2425         return S2W_EINVAL;
// 2426     }
// 2427     AppS2wParse_Int(p, &certFileSize);
// 2428     certFileSize = certFileSize >> certFormat;
// 2429     p = AppS2wParse_NextParamGet(&ptr);
// 2430     if (!p)
// 2431     {
// 2432         return S2W_EINVAL;
// 2433     }
// 2434     AppS2wParse_Int(p, &certStore);
// 2435 
// 2436     if(certStore > 1)
// 2437         return S2W_EINVAL;
// 2438 
// 2439     if(certStore)
// 2440     {
// 2441     	i = S2wCert_MemAlloc(certStore, certFileSize);
// 2442 
// 2443 	    if(i == -1)
// 2444 	        return S2W_FAILURE;
// 2445 
// 2446         name = gsn_malloc(32);
// 2447         if(certType == 0)
// 2448             strcpy((INT8 *)name, S2W_CERT_NAME_CA);
// 2449         else if(certType == 1)
// 2450             strcpy((INT8 *)name, S2W_CERT_NAME_CLIENT);
// 2451         else
// 2452             strcpy((INT8 *)name, S2W_CERT_NAME_KEY);
// 2453         s2w_ssl_cert_table[i].name = name;
// 2454         s2w_ssl_cert_table[i].location = CERT_IN_RAM;
// 2455 		certIndex = i;
// 2456     }
// 2457     else
// 2458     {
// 2459         /* write certificate name in flash */
// 2460         if(certType == 0)
// 2461             certFile = f_open(S2W_CERT_NAME_CA, "w");
// 2462         else if(certType == 1)
// 2463             certFile = f_open(S2W_CERT_NAME_CLIENT, "w");
// 2464         else
// 2465             certFile = f_open(S2W_CERT_NAME_KEY, "w");
// 2466 
// 2467         if(certFile == NULL)
// 2468         	return S2W_FAILURE;
// 2469         certIndex = S2W_INVALID_CERT_INDEX;
// 2470     }
// 2471     /* Store the Cert Index in a global. This is used when the actual certificate
// 2472       is received in the next escape sequence */
// 2473     return S2W_SUCCESS;
// 2474 }
// 2475 #endif
// 2476 
// 2477 /**
// 2478  ******************************************************************
// 2479  * @ingroup S2w-Application
// 2480  * @brief Process the AT+SETTIME Command.
// 2481  *   This function set the system time. The input time in dd/mm/yyyy and
// 2482  *   HH:MM:SS format
// 2483  * @param ptr Pointer to the user input string.
// 2484  *
// 2485  * @return S2W_SUCCESS - operation successful.
// 2486  * @retval S2W_EINVAL  - operation failure-invalid command.
// 2487  ******************************************************************/

        SECTION `.text`:CODE:NOROOT(1)
          CFI Block cfiBlock22 Using cfiCommon0
          CFI Function AppS2wCmd_SystemTimeSet
        THUMB
// 2488 PUBLIC UINT8
// 2489 AppS2wCmd_SystemTimeSet(UINT8 *ptr)
// 2490 {
AppS2wCmd_SystemTimeSet:
        PUSH     {R0,R4-R6,LR}
          CFI R14 Frame(CFA, -4)
          CFI R6 Frame(CFA, -8)
          CFI R5 Frame(CFA, -12)
          CFI R4 Frame(CFA, -16)
          CFI CFA R13+20
        SUB      SP,SP,#+60
          CFI CFA R13+80
// 2491     GSN_SYSTEM_TIME_T currentTime, newTime, timeDifference;
// 2492     UINT8 i, *p, len, j,flag=0;
        MOVS     R5,#+0
// 2493     struct tm time;
// 2494     BOOL diffNegative;
// 2495     ULONG64 time64=0;
        STRD     R5,R5,[SP, #+0]
// 2496     
// 2497     p = AppS2wParse_NextParamGet(&ptr);
        ADD      R0,SP,#+60
          CFI FunCall AppS2wParse_NextParamGet
        BL       AppS2wParse_NextParamGet
        MOVS     R4,R0
// 2498     if(p && *p)
        ITT      NE 
        LDRBNE   R0,[R4, #+0]
        CMPNE    R0,#+0
        BEQ.N    ??AppS2wCmd_SystemTimeSet_0
// 2499     {
// 2500     len = strlen((char *)p);
        BL       ?Subroutine70
??CrossCallReturnLabel_426:
        UXTB     R5,R0
// 2501 
// 2502     i = 0;
        MOVS     R0,#+0
        B.N      ??AppS2wCmd_SystemTimeSet_1
// 2503     while(i < len)
// 2504     {
// 2505         if(p[i] == '/')
// 2506             {
// 2507             break;
// 2508             }
// 2509         i++;
??AppS2wCmd_SystemTimeSet_2:
        MOV      R0,R6
??AppS2wCmd_SystemTimeSet_1:
        ADDS     R6,R0,#+1
        UXTB     R0,R0
        CMP      R0,R5
        BGE.N    ??AppS2wCmd_SystemTimeSet_3
        LDRB     R1,[R0, R4]
        CMP      R1,#+47
        BNE.N    ??AppS2wCmd_SystemTimeSet_2
// 2510     }
// 2511 
// 2512     if( i >= len )
??AppS2wCmd_SystemTimeSet_3:
        CMP      R0,R5
        BGE.N    ??AppS2wCmd_SystemTimeSet_4
// 2513     {
// 2514         return S2W_EINVAL;
// 2515     }
// 2516     p[i] = '\0';
        MOVS     R1,#+0
        STRB     R1,[R0, R4]
// 2517 
// 2518     AppS2wParse_Int(p, (UINT32 *)&time.tm_mday);
        MOV      R0,R4
        BL       ?Subroutine56
// 2519         //S2w_Printf("\n\r%d", time.tm_mday);
// 2520     if(time.tm_mday > 31)
??CrossCallReturnLabel_358:
        LDR      R0,[SP, #+20]
        CMP      R0,#+32
        BGE.N    ??AppS2wCmd_SystemTimeSet_4
// 2521         {
// 2522         return S2W_EINVAL;
// 2523         }
// 2524     j = ++i;
        MOV      R0,R6
        MOV      R2,R0
        B.N      ??AppS2wCmd_SystemTimeSet_5
// 2525     while(i < len)
// 2526     {
// 2527         if(p[i] == '/')
// 2528             {
// 2529             break;
// 2530             }
// 2531         i++;
??AppS2wCmd_SystemTimeSet_6:
        MOV      R0,R6
??AppS2wCmd_SystemTimeSet_5:
        ADDS     R6,R0,#+1
        UXTB     R0,R0
        CMP      R0,R5
        BGE.N    ??AppS2wCmd_SystemTimeSet_7
        LDRB     R1,[R0, R4]
        CMP      R1,#+47
        BNE.N    ??AppS2wCmd_SystemTimeSet_6
// 2532     }
// 2533 
// 2534     if( i >= len )
??AppS2wCmd_SystemTimeSet_7:
        CMP      R0,R5
        BGE.N    ??AppS2wCmd_SystemTimeSet_4
// 2535     {
// 2536         return S2W_EINVAL;
// 2537     }
// 2538     p[i] = '\0';
        MOVS     R1,#+0
        STRB     R1,[R0, R4]
// 2539 
// 2540     AppS2wParse_Int(&p[j], (UINT32 *)&time.tm_mon);
        UXTB     R2,R2
        ADD      R1,SP,#+24
        ADDS     R0,R2,R4
          CFI FunCall AppS2wParse_Int
        BL       AppS2wParse_Int
// 2541         //S2w_Printf(":%d", time.tm_mon);
// 2542     if(time.tm_mon > 12)
        LDR      R0,[SP, #+24]
        CMP      R0,#+13
        ITTTT    LT 
        SUBLT    R0,R0,#+1
        STRLT    R0,[SP, #+24]
        UXTBLT   R0,R6
        CMPLT    R0,R5
// 2543         {
// 2544         return S2W_EINVAL;
// 2545         }
// 2546     time.tm_mon--;
// 2547     ++i;
// 2548 
// 2549     if( i >= len )
        BGE.N    ??AppS2wCmd_SystemTimeSet_4
// 2550     {
// 2551         return S2W_EINVAL;
// 2552     }
// 2553 
// 2554     AppS2wParse_Int(&p[i], (UINT32 *)&time.tm_year);
        ADD      R1,SP,#+28
        ADDS     R0,R0,R4
          CFI FunCall AppS2wParse_Int
        BL       AppS2wParse_Int
// 2555         //S2w_Printf(":%d", time.tm_year);
// 2556     if(time.tm_year < 1900)
        LDR      R0,[SP, #+28]
        MOVW     R1,#+1900
        CMP      R0,R1
        BLT.N    ??AppS2wCmd_SystemTimeSet_4
// 2557         {
// 2558         return S2W_EINVAL;
// 2559         }
// 2560 
// 2561     p = AppS2wParse_NextParamGet(&ptr);
        ADD      R0,SP,#+60
          CFI FunCall AppS2wParse_NextParamGet
        BL       AppS2wParse_NextParamGet
        MOVS     R4,R0
// 2562 
// 2563     if (!p)
        BEQ.N    ??AppS2wCmd_SystemTimeSet_4
// 2564     {
// 2565         return S2W_EINVAL;
// 2566     }
// 2567     len = strlen((char *)p);
          CFI FunCall strlen
        BL       strlen
        UXTB     R5,R0
// 2568 
// 2569     i = 0;
        MOVS     R0,#+0
        B.N      ??AppS2wCmd_SystemTimeSet_8
// 2570     while(i < len)
// 2571     {
// 2572         if(p[i] == ':')
// 2573             {
// 2574             break;
// 2575             }
// 2576         i++;
??AppS2wCmd_SystemTimeSet_9:
        MOV      R0,R6
??AppS2wCmd_SystemTimeSet_8:
        ADDS     R6,R0,#+1
        UXTB     R0,R0
        CMP      R0,R5
        BGE.N    ??AppS2wCmd_SystemTimeSet_10
        LDRB     R1,[R0, R4]
        CMP      R1,#+58
        BNE.N    ??AppS2wCmd_SystemTimeSet_9
// 2577     }
// 2578 
// 2579     if( i >= len )
??AppS2wCmd_SystemTimeSet_10:
        CMP      R0,R5
        BGE.N    ??AppS2wCmd_SystemTimeSet_4
// 2580     {
// 2581         return S2W_EINVAL;
// 2582     }
// 2583     p[i] = '\0';
        MOVS     R1,#+0
        STRB     R1,[R0, R4]
// 2584 
// 2585     AppS2wParse_Int(p, (UINT32 *)&time.tm_hour);
        MOV      R0,R4
        BL       ?Subroutine54
// 2586         //S2w_Printf(" %d:", time.tm_hour);
// 2587     if(time.tm_hour > 23)
??CrossCallReturnLabel_347:
        LDR      R0,[SP, #+16]
        CMP      R0,#+24
        BGE.N    ??AppS2wCmd_SystemTimeSet_4
// 2588         {
// 2589         return S2W_EINVAL;
// 2590         }
// 2591     j = ++i;
        MOV      R0,R6
        MOV      R2,R0
        B.N      ??AppS2wCmd_SystemTimeSet_11
// 2592     while(i < len)
// 2593     {
// 2594         if(p[i] == ':')
// 2595             {
// 2596             break;
// 2597             }
// 2598         i++;
??AppS2wCmd_SystemTimeSet_12:
        MOV      R0,R6
??AppS2wCmd_SystemTimeSet_11:
        ADDS     R6,R0,#+1
        UXTB     R0,R0
        CMP      R0,R5
        BGE.N    ??AppS2wCmd_SystemTimeSet_13
        LDRB     R1,[R0, R4]
        CMP      R1,#+58
        BNE.N    ??AppS2wCmd_SystemTimeSet_12
// 2599     }
// 2600 
// 2601     if( i >= len )
??AppS2wCmd_SystemTimeSet_13:
        CMP      R0,R5
        BGE.N    ??AppS2wCmd_SystemTimeSet_4
// 2602     {
// 2603         return S2W_EINVAL;
// 2604     }
// 2605     p[i] = '\0';
        MOVS     R1,#+0
        STRB     R1,[R0, R4]
// 2606 
// 2607     AppS2wParse_Int(&p[j], (UINT32 *)&time.tm_min);
        UXTB     R2,R2
        ADD      R1,SP,#+12
        ADDS     R0,R2,R4
          CFI FunCall AppS2wParse_Int
        BL       AppS2wParse_Int
// 2608         //S2w_Printf("%d:", time.tm_min);
// 2609     if(time.tm_min > 59)
        LDR      R0,[SP, #+12]
        CMP      R0,#+60
        ITT      LT 
        UXTBLT   R0,R6
        CMPLT    R0,R5
// 2610         {
// 2611         return S2W_EINVAL;
// 2612         }
// 2613 
// 2614     ++i;
// 2615     if( i >= len )
        BGE.N    ??AppS2wCmd_SystemTimeSet_4
// 2616     {
// 2617         return S2W_EINVAL;
// 2618     }
// 2619 
// 2620     AppS2wParse_Int(&p[i], (UINT32 *)&time.tm_sec);
        ADD      R1,SP,#+8
        ADDS     R0,R0,R4
          CFI FunCall AppS2wParse_Int
        BL       AppS2wParse_Int
// 2621         if(time.tm_sec > 60)
        LDR      R0,[SP, #+8]
        CMP      R0,#+61
        BGE.N    ??AppS2wCmd_SystemTimeSet_4
// 2622         {
// 2623             return S2W_EINVAL;
// 2624         }
// 2625         flag =1;
        MOVS     R5,#+1
// 2626     }
// 2627     p = AppS2wParse_NextParamGet(&ptr);
??AppS2wCmd_SystemTimeSet_0:
        ADD      R0,SP,#+60
          CFI FunCall AppS2wParse_NextParamGet
        BL       AppS2wParse_NextParamGet
        MOVS     R4,R0
// 2628     if(p && *p)
        ITT      NE 
        LDRBNE   R0,[R4, #+0]
        CMPNE    R0,#+0
        BEQ.N    ??AppS2wCmd_SystemTimeSet_14
// 2629     {
// 2630         if(flag)
        CBZ.N    R5,??AppS2wCmd_SystemTimeSet_15
// 2631         {
// 2632         return S2W_EINVAL;
??AppS2wCmd_SystemTimeSet_4:
        MOVS     R0,#+2
        B.N      ??AppS2wCmd_SystemTimeSet_16
// 2633         }
// 2634         AppS2wParse_64BitNumber(p,&time64);
??AppS2wCmd_SystemTimeSet_15:
        ADD      R1,SP,#+0
        MOV      R0,R4
          CFI FunCall AppS2wParse_64BitNumber
        BL       AppS2wParse_64BitNumber
// 2635     }
// 2636 	if(flag)
// 2637 	{
// 2638         time.tm_year = time.tm_year - 1900;
// 2639         time.tm_isdst = 0;
// 2640          
// 2641     
// 2642     	newTime = mktime(&time);    /* time in seconds*/
// 2643 	}
// 2644 	else
// 2645 		newTime = time64/1000;
??AppS2wCmd_SystemTimeSet_17:
        LDRD     R0,R1,[SP, #+0]
        MOV      R2,#+1000
        MOVS     R3,#+0
          CFI FunCall __aeabi_uldivmod
        BL       __aeabi_uldivmod
        MOV      R4,R0
        MOV      R5,R1
// 2646     newTime = (newTime <<15);      /*time in ticks*/
??AppS2wCmd_SystemTimeSet_18:
        LSLS     R5,R5,#+15
        ORR      R5,R5,R4, LSR #+17
        LSLS     R4,R4,#+15
// 2647 	/* calculate the difference*/
// 2648     currentTime = GsnTod_Get();
          CFI FunCall GsnTod_Get
        BL       GsnTod_Get
        MOV      R3,R1
        MOV      R2,R0
// 2649 
// 2650     if (currentTime > newTime)
        CMP      R5,R3
        BHI.N    ??AppS2wCmd_SystemTimeSet_19
        IT       CS 
        CMPCS    R4,R2
        BCS.N    ??AppS2wCmd_SystemTimeSet_19
// 2651     {
// 2652         diffNegative = TRUE;
        MOVS     R0,#+1
// 2653         timeDifference = currentTime - newTime;
        SUBS     R2,R2,R4
        SBCS     R3,R3,R5
        B.N      ??AppS2wCmd_SystemTimeSet_20
// 2654     }
??AppS2wCmd_SystemTimeSet_14:
        CMP      R5,#+0
        BEQ.N    ??AppS2wCmd_SystemTimeSet_17
        LDR      R0,[SP, #+28]
        SUBW     R0,R0,#+1900
        STR      R0,[SP, #+28]
        MOVS     R0,#+0
        STR      R0,[SP, #+40]
        ADD      R0,SP,#+8
          CFI FunCall __mktime32
        BL       __mktime32
        MOV      R4,R0
        MOVS     R5,#+0
        B.N      ??AppS2wCmd_SystemTimeSet_18
// 2655     else
// 2656     {
// 2657         diffNegative = FALSE;
??AppS2wCmd_SystemTimeSet_19:
        MOVS     R0,#+0
// 2658         timeDifference = newTime - currentTime;
        SUBS     R2,R4,R2
        SBC      R3,R5,R3
// 2659     }
// 2660 
// 2661     GsnTod_AdjustOffset(diffNegative, timeDifference);
??AppS2wCmd_SystemTimeSet_20:
          CFI FunCall GsnTod_AdjustOffset
        BL       GsnTod_AdjustOffset
// 2662    
// 2663     return S2W_SUCCESS;
        MOVS     R0,#+0
??AppS2wCmd_SystemTimeSet_16:
        ADD      SP,SP,#+64
          CFI CFA R13+16
        POP      {R4-R6,PC}       ;; return
          CFI EndBlock cfiBlock22
// 2664 }
// 2665 

        SECTION `.text`:CODE:NOROOT(1)
          CFI Block cfiBlock23 Using cfiCommon0
          CFI Function AppS2wCmd_SystemTimeGet
        THUMB
// 2666 PUBLIC UINT8
// 2667 AppS2wCmd_SystemTimeGet(UINT8 *ptr)
// 2668 {
AppS2wCmd_SystemTimeGet:
        PUSH     {R4,R5,LR}
          CFI R14 Frame(CFA, -4)
          CFI R5 Frame(CFA, -8)
          CFI R4 Frame(CFA, -12)
          CFI CFA R13+12
        SUB      SP,SP,#+36
          CFI CFA R13+48
// 2669     GSN_SYSTEM_TIME_T currentTime,mSeconds=0,seconds;
// 2670 
// 2671     if (ptr[0] == '?' && ptr[1] == '\0')
        LDRB     R1,[R0, #+0]
        CMP      R1,#+63
        ITT      EQ 
        LDRBEQ   R0,[R0, #+1]
        CMPEQ    R0,#+0
        BNE.N    ??AppS2wCmd_SystemTimeGet_0
// 2672     {
// 2673         struct tm *time_local;
// 2674         currentTime = GsnTod_Get();
// 2675 		mSeconds = SYSTIME_TO_MSEC(currentTime);
          CFI FunCall GsnTod_Get
        BL       GsnTod_Get
        MOV      R2,#+1000
        UMULL    R4,R5,R2,R0
        MLA      R5,R2,R1,R5
        LSRS     R4,R4,#+15
        ORR      R4,R4,R5, LSL #+17
        LSRS     R5,R5,#+15
        MOVS     R3,#+0
// 2676 		seconds = mSeconds / 1000;
        MOV      R0,R4
        MOV      R1,R5
          CFI FunCall __aeabi_uldivmod
        BL       __aeabi_uldivmod
        STRD     R0,R1,[SP, #+24]
// 2677         time_local = gmtime((time_t*)&seconds);
        ADD      R0,SP,#+24
          CFI FunCall __gmtime32
        BL       __gmtime32
// 2678         S2w_Printf("\r\n%d/%d/%d,%d:%d:%d,%lld\r\n",time_local->tm_mday,
// 2679         time_local->tm_mon+1,time_local->tm_year+1900,time_local->tm_hour,
// 2680         time_local->tm_min,time_local->tm_sec,(mSeconds));
        STRD     R4,R5,[SP, #+16]
        LDR      R1,[R0, #+0]
        STR      R1,[SP, #+8]
        LDR      R1,[R0, #+4]
        STR      R1,[SP, #+4]
        LDR      R1,[R0, #+8]
        STR      R1,[SP, #+0]
        LDR      R1,[R0, #+20]
        ADDW     R3,R1,#+1900
        LDR      R1,[R0, #+16]
        ADDS     R2,R1,#+1
        LDR      R1,[R0, #+12]
        ADR.W    R0,`?<Constant "\\r\\n%d/%d/%d,%d:%d:%d,%...">`
          CFI FunCall S2w_Printf
        BL       S2w_Printf
// 2681     }
// 2682     else
// 2683     {
// 2684         return S2W_EINVAL;
// 2685     }
// 2686     return S2W_SUCCESS;
        MOVS     R0,#+0
        B.N      ??AppS2wCmd_SystemTimeGet_1
??AppS2wCmd_SystemTimeGet_0:
        MOVS     R0,#+2
??AppS2wCmd_SystemTimeGet_1:
        ADD      SP,SP,#+36
          CFI CFA R13+12
        POP      {R4,R5,PC}       ;; return
          CFI EndBlock cfiBlock23
// 2687 }

        SECTION `.text`:CODE:NOROOT(2)
        SECTION_TYPE SHT_PROGBITS, 0
        DATA
`?<Constant "\\r\\n%d/%d/%d,%d:%d:%d,%...">`:
        DC8 "\015\012%d/%d/%d,%d:%d:%d,%lld\015\012"
        DC8 0
// 2688 
// 2689 #ifdef S2W_IPv6_SUPPORT
// 2690 VOID
// 2691 AppS2wHdrAndIpv6_Print()
// 2692 {
// 2693     INT8 ipv6str[INET6_ADDRSTRLEN];
// 2694     INT8 routerStr[INET6_ADDRSTRLEN]={0};
// 2695     GSN_NWIF_IP_CONFIG_T nwParams;
// 2696     ULONG ipv6Router[4]={0};
// 2697      
// 2698     GsnNwIf_IpConfigGet(&s2wappMainTaskCtxt->if0.nwifCtx,&nwParams);
// 2699     if((s2wLinkState != S2W_LINK_STATE_DISCONNECTED)  && (GsnNwif_Ipv6RouterGet(&s2wappMainTaskCtxt->if0.nwifCtx,ipv6Router) == GSN_SUCCESS))
// 2700     {
// 2701           S2w_ntop(ipv6Router,routerStr);
// 2702     }
// 2703     S2w_ntop(nwParams.ipv6.linkLocalAddr,ipv6str);
// 2704     S2w_Printf("\r\nIPv6-Linklocal=%s  Prefix=%d  Router=%s\r\n",ipv6str,64,routerStr );
// 2705     S2w_ntop(nwParams.ipv6.globalAddr,ipv6str);
// 2706     S2w_Printf("\nIPv6-Global=%s  Prefix=%d  Router=%s\r\n",ipv6str,64,routerStr);
// 2707 }
// 2708 #endif
// 2709 
// 2710 
// 2711 
// 2712 /**
// 2713  ******************************************************************
// 2714  * @ingroup S2w-Application
// 2715  * @brief S2w Ip address display function
// 2716  *   This function prints the ip address,sunbet and gateway address to
// 2717  *   the serial input.
// 2718  * @retval none.
// 2719  ******************************************************************/

        SECTION `.text`:CODE:NOROOT(1)
          CFI Block cfiBlock24 Using cfiCommon0
          CFI Function AppS2wHdrAndIpv4_Print
        THUMB
// 2720 VOID
// 2721 AppS2wHdrAndIpv4_Print()
// 2722 {
AppS2wHdrAndIpv4_Print:
        PUSH     {R4,LR}
          CFI R14 Frame(CFA, -4)
          CFI R4 Frame(CFA, -8)
          CFI CFA R13+8
// 2723     GSN_NWIF_IP_CONFIG_T nwParams;
// 2724     UINT8 ipaddr[4];
// 2725     UINT8 subaddr[4];
// 2726     UINT8 gateaddr[4];
// 2727 
// 2728 
// 2729     /* get the ip address by calling the geps API
// 2730      */
// 2731     GsnNwIf_IpConfigGet(&s2wappMainTaskCtxt->if0.nwifCtx,&nwParams);
        LDR.W    R4,??DataTable382
        LDR      R0,[R4, #+0]
        SUB      SP,SP,#+200
          CFI CFA R13+208
        ADD      R0,R0,#+5120
        ADD      R1,SP,#+48
        ADDS     R0,R0,#+80
          CFI FunCall GsnNwIf_IpConfigGet
        BL       GsnNwIf_IpConfigGet
// 2732 
// 2733     memcpy(ipaddr,(UINT8*)&(nwParams.ipv4.ipAddr),4);
        MOVS     R2,#+4
        ADD      R1,SP,#+60
        ADD      R0,SP,#+44
          CFI FunCall memcpy
        BL       memcpy
// 2734     memcpy(subaddr,(UINT8*)&(nwParams.ipv4.subnetMask),4);
        MOVS     R2,#+4
        ADD      R1,SP,#+64
        ADD      R0,SP,#+40
          CFI FunCall memcpy
        BL       memcpy
// 2735     memcpy(gateaddr,(UINT8*)&(nwParams.ipv4.gatewayIpAddr),4);
        MOVS     R2,#+4
        ADD      R1,SP,#+68
        ADD      R0,SP,#+36
          CFI FunCall memcpy
        BL       memcpy
// 2736 
// 2737 	{
// 2738 		//s2wCurrent.netConf.dhcp = 1;
// 2739 #if 0		
// 2740         memcpy(&s2wCurrent.netConf.ipAddr,(UINT8*)&(nwParams.ipv4.ipAddr),4);
// 2741         memcpy(&s2wCurrent.netConf.netMask,(UINT8*)&(nwParams.ipv4.subnetMask),4);
// 2742         memcpy(&s2wCurrent.netConf.gateway,(UINT8*)&(nwParams.ipv4.gatewayIpAddr),4);
// 2743         memcpy(&s2wCurrent.dns1,(UINT8*)&(nwParams.ipv4.dnsPriSrvrIp),4);
// 2744         memcpy(&s2wCurrent.dns2,(UINT8*)&(nwParams.ipv4.dnsSecSrvrIp),4);
// 2745 #endif		
// 2746 	}
// 2747     s2wappMainTaskCtxt->ipaddr = nwParams.ipv4.ipAddr;
        LDR      R0,[R4, #+0]
        LDR      R2,[SP, #+60]
        MOVW     R1,#+29988
        STR      R2,[R1, R0]
// 2748     s2wappMainTaskCtxt->subnetMask = nwParams.ipv4.subnetMask;
        ADDS     R0,R1,R0
        LDR      R1,[SP, #+64]
        STR      R1,[R0, #+4]
// 2749     /* print on the uart
// 2750      */
// 2751     S2w_Printf("\n    IP              SubNet         Gateway   \r\n ");
        ADR.W    R0,`?<Constant "\\n    IP              ...">`
          CFI FunCall S2w_Printf
        BL       S2w_Printf
// 2752     S2w_Printf("%d.%d.%d.%d:%d.%d.%d.%d:%d.%d.%d.%d ",ipaddr[3],ipaddr[2],ipaddr[1],ipaddr[0],
// 2753                subaddr[3],subaddr[2],subaddr[1],subaddr[0],
// 2754                gateaddr[3],gateaddr[2],gateaddr[1],gateaddr[0]);
        LDRB     R2,[SP, #+36]
        STR      R2,[SP, #+32]
        ADD      R0,SP,#+36
        ADD      R1,SP,#+40
        LDRB     R2,[R0, #+1]
        STR      R2,[SP, #+28]
        ADD      R4,SP,#+44
        LDRB     R2,[R0, #+2]
        LDRB     R0,[R0, #+3]
        LDRB     R3,[R4, #+1]
        STR      R0,[SP, #+20]
        STR      R2,[SP, #+24]
        LDRB     R0,[SP, #+40]
        LDRB     R2,[R4, #+2]
        STR      R0,[SP, #+16]
        LDRB     R0,[R1, #+1]
        STR      R0,[SP, #+12]
        LDRB     R0,[R1, #+2]
        STR      R0,[SP, #+8]
        LDRB     R0,[R1, #+3]
        LDRB     R1,[R4, #+3]
        STR      R0,[SP, #+4]
        LDRB     R0,[SP, #+44]
        STR      R0,[SP, #+0]
        ADR.W    R0,`?<Constant "%d.%d.%d.%d:%d.%d.%d....">`
          CFI FunCall S2w_Printf
        BL       S2w_Printf
// 2755 
// 2756 }
        ADD      SP,SP,#+200
          CFI CFA R13+8
        POP      {R4,PC}          ;; return
          CFI EndBlock cfiBlock24

        SECTION `.text`:CODE:NOROOT(2)
        SECTION_TYPE SHT_PROGBITS, 0
        DATA
`?<Constant "\\n    IP              ...">`:
        DC8 "\012    IP              SubNet         Gateway   \015\012 "
        DC8 0, 0

        SECTION `.text`:CODE:NOROOT(2)
        SECTION_TYPE SHT_PROGBITS, 0
        DATA
`?<Constant "%d.%d.%d.%d:%d.%d.%d....">`:
        DC8 "%d.%d.%d.%d:%d.%d.%d.%d:%d.%d.%d.%d "
        DC8 0, 0, 0
// 2757 
// 2758 
// 2759 
// 2760 
// 2761 /**
// 2762  ******************************************************************
// 2763  * @ingroup S2w-Application
// 2764  * @brief serial input process function
// 2765  *    This function process each serial input command(AT) and call
// 2766  *    the corresponding function to process the command. This function
// 2767  *    also check the validity of each AT commands.
// 2768  * @param cmd - IN  command string.
// 2769  * @retval S2W_SUCCESS - operation successful.
// 2770  * @retval S2W_EINVAL  - operation failure-invalid command.
// 2771  ******************************************************************/

        SECTION `.text`:CODE:NOROOT(1)
          CFI Block cfiBlock25 Using cfiCommon0
          CFI Function AppS2wCommand_Process
        THUMB
// 2772 PUBLIC UINT8
// 2773 AppS2wCommand_Process(UINT8 *cmd)
// 2774 {
AppS2wCommand_Process:
        PUSH     {R3-R11,LR}
          CFI R14 Frame(CFA, -4)
          CFI R11 Frame(CFA, -8)
          CFI R10 Frame(CFA, -12)
          CFI R9 Frame(CFA, -16)
          CFI R8 Frame(CFA, -20)
          CFI R7 Frame(CFA, -24)
          CFI R6 Frame(CFA, -28)
          CFI R5 Frame(CFA, -32)
          CFI R4 Frame(CFA, -36)
          CFI CFA R13+40
        MOV      R6,R0
// 2775     UINT8 status = S2W_EINVAL;
// 2776     UINT8 *ptr;
// 2777     UINT8 *cmdptr;
// 2778 
// 2779     UINT32 i;
// 2780     UINT32 j=0;
// 2781 
// 2782     /* this semaphore takes care of not mixing the command response
// 2783        and incomming data
// 2784      */
// 2785     GsnOsal_SemAcquire(&s2wSyncSemID, GSN_OSAL_WAIT_FOREVER);
        LDR.W    R9,??DataTable386
        MOV      R8,#+2
        MOVS     R5,#+0
        MOV      R1,#-1
        MOV      R0,R9
          CFI FunCall GsnOsal_SemAcquire
        BL       GsnOsal_SemAcquire
// 2786 
// 2787     /* Validate the AT sequence. */
// 2788     if (toupper(cmd[0]) != 'A' || toupper(cmd[1]) != 'T')
        LDRB     R0,[R6, #+0]
        MOVW     R10,#+27384
          CFI FunCall toupper
        BL       toupper
        CMP      R0,#+65
        BNE.N    ??AppS2wCommand_Process_0
        LDRB     R0,[R6, #+1]
          CFI FunCall toupper
        BL       toupper
        CMP      R0,#+84
        BEQ.N    ??AppS2wCommand_Process_1
// 2789     {
// 2790 		if(s2wappMainTaskCtxt->serialDeviceId == S2W_PORT_SDIO)
??AppS2wCommand_Process_0:
        BL       ?Subroutine80
??CrossCallReturnLabel_452:
        LDRB     R0,[R10, R0]
        CMP      R0,#+3
        BNE.N    ??AppS2wCommand_Process_2
// 2791         {
// 2792     		UINT32 msg = APP_EVENT_S2W_EINVAL;
// 2793 		    AppMainCtx_TaskNotify(msg);
        MOVS     R0,#+46
          CFI FunCall AppMainCtx_TaskNotify
        BL       AppMainCtx_TaskNotify
// 2794 		    GsnOsal_SemRelease(&s2wSyncSemID);
        B.N      ??AppS2wCommand_Process_3
// 2795 		}
// 2796 		else
// 2797 		{
// 2798         AppS2wProcess_StatusNotify(S2W_EINVAL, 0);
??AppS2wCommand_Process_2:
        MOVS     R1,#+0
        MOV      R0,R8
          CFI FunCall AppS2wProcess_StatusNotify
        BL       AppS2wProcess_StatusNotify
// 2799         GsnOsal_SemRelease(&s2wSyncSemID);
        B.N      ??AppS2wCommand_Process_3
// 2800 		}
// 2801         return status;
// 2802     }
// 2803 
// 2804     if (cmd[2] == '\0')
??AppS2wCommand_Process_1:
        LDRB     R0,[R6, #+2]
        CBNZ.N   R0,??AppS2wCommand_Process_4
// 2805     {
// 2806         AppS2wProcess_StatusNotify(S2W_SUCCESS, 0);
        MOVS     R1,#+0
          CFI FunCall AppS2wProcess_StatusNotify
        BL       AppS2wProcess_StatusNotify
// 2807         GsnOsal_SemRelease(&s2wSyncSemID);
        B.N      ??AppS2wCommand_Process_3
// 2808         return status;
// 2809     }
// 2810     ptr = (cmd + 2);
??AppS2wCommand_Process_4:
        ADDS     R4,R6,#+2
// 2811     {
// 2812 
// 2813        cmdptr =(cmd + 2);
        ADDS     R0,R6,#+2
        B.N      ??AppS2wCommand_Process_5
// 2814 
// 2815        while((cmdptr[j]) != '\0')
// 2816 
// 2817        {
// 2818 
// 2819         if((cmdptr[j]) == '=')
// 2820 
// 2821         {
// 2822 		
// 2823 			/* Bug Fix 5886 - Command to configure max recv/recvfrom on socket is not working */
// 2824            if(((cmdptr[j-1] >='0') && (cmdptr[j-1] <='9') ) && !((cmdptr[j-2] == 'c') || (cmdptr[j-2] == 'C')))
// 2825            {
// 2826                j--;
// 2827            }
// 2828            else
// 2829            {
// 2830                j++;
// 2831            }
// 2832            break;
// 2833         }
// 2834           j++;
??AppS2wCommand_Process_6:
        MOV      R5,R1
??AppS2wCommand_Process_5:
        LDRB     R2,[R5, R0]
        CBZ.N    R2,??AppS2wCommand_Process_7
        ADDS     R1,R5,#+1
        CMP      R2,#+61
        BNE.N    ??AppS2wCommand_Process_6
        ADDS     R2,R5,R0
        LDRB     R3,[R2, #-1]
        SUBS     R3,R3,#+48
        CMP      R3,#+10
        BCS.N    ??AppS2wCommand_Process_8
        LDRB     R2,[R2, #-2]
        CMP      R2,#+99
        ITT      NE 
        CMPNE    R2,#+67
        SUBNE    R5,R5,#+1
        BNE.N    ??AppS2wCommand_Process_7
??AppS2wCommand_Process_8:
        MOV      R5,R1
// 2835 
// 2836       }
// 2837 
// 2838       if(((cmdptr[0] == '&') && (j > 2)) || (((cmdptr[1] >= '0')&&(cmdptr[1] <= '3')) &&(j == 2)))
??AppS2wCommand_Process_7:
        LDRB     R1,[R0, #+0]
        CMP      R1,#+38
        BNE.N    ??AppS2wCommand_Process_9
        CMP      R5,#+3
        BCS.N    ??AppS2wCommand_Process_10
??AppS2wCommand_Process_9:
        LDRB     R0,[R0, #+1]
        SUBS     R0,R0,#+48
        CMP      R0,#+4
        BCS.N    ??AppS2wCommand_Process_11
        CMP      R5,#+2
        BNE.N    ??AppS2wCommand_Process_11
// 2839 
// 2840       {
// 2841          if( !((cmdptr[0] == 'a') || (cmdptr[0] == 'A')))
??AppS2wCommand_Process_10:
        CMP      R1,#+97
        ITT      NE 
        CMPNE    R1,#+65
        SUBNE    R5,R5,#+1
// 2842          j--;
// 2843 
// 2844       }
// 2845 
// 2846 
// 2847    }
// 2848 
// 2849 
// 2850     /* Call the call back function corresponding to the command. */
// 2851     for (i = 0; i < sizeof(s2wCmdTable) / sizeof(s2wCmdTable[0]); i++)
??AppS2wCommand_Process_11:
        MOVS     R6,#+0
// 2852     {
// 2853         UINT32  len = strlen(s2wCmdTable[i].cmd);
??AppS2wCommand_Process_12:
        ADR.W    R0,s2wCmdTable
        LDR      R11,[R0, R6, LSL #+3]
        MOV      R0,R11
          CFI FunCall strlen
        BL       strlen
        MOV      R7,R0
// 2854 
// 2855         if (!AppS2wParse_StrnCaseCmp((char *)ptr, s2wCmdTable[i].cmd, len))
        MOV      R2,R7
        MOV      R1,R11
        MOV      R0,R4
          CFI FunCall AppS2wParse_StrnCaseCmp
        BL       AppS2wParse_StrnCaseCmp
        CBNZ.N   R0,??AppS2wCommand_Process_13
// 2856         {
// 2857          if(len != j)
        CMP      R7,R5
        BEQ.N    ??AppS2wCommand_Process_14
// 2858 
// 2859          {
// 2860 
// 2861              if(!((len == 3) && ((ptr[2] == 's') || (ptr[2] == 'S')))   /* AT+WS */
// 2862                 && !((len == 10) && ((ptr[9] == 'p') || (ptr[9] == 'P')))  /* AT+PSDPSLEEP */
// 2863                 && !((len == 10) && ((ptr[9] == 'k') || (ptr[9] == 'K'))) /* AT+P2PPROVOK */
// 2864 #ifdef S2W_IPv6_SUPPORT
// 2865                 && !((ptr[len-2] == '6') && ((ptr[len-3] == 'v') || ptr[len-3] == 'V'))/* IPv6 */
// 2866 #endif //S2W_IPv6_SUPPORT
// 2867                 )
        CMP      R7,#+3
        BNE.N    ??AppS2wCommand_Process_15
        LDRB     R0,[R4, #+2]
        CMP      R0,#+115
        BEQ.N    ??AppS2wCommand_Process_14
        CMP      R0,#+83
        BNE.N    ??AppS2wCommand_Process_16
        B.N      ??AppS2wCommand_Process_14
??AppS2wCommand_Process_15:
        CMP      R7,#+10
        BNE.N    ??AppS2wCommand_Process_16
        LDRB     R0,[R4, #+9]
        CMP      R0,#+112
        IT       NE 
        CMPNE    R0,#+80
        BEQ.N    ??AppS2wCommand_Process_14
        CMP      R0,#+107
        IT       NE 
        CMPNE    R0,#+75
        BNE.N    ??AppS2wCommand_Process_16
// 2868              {
// 2869                  status = S2W_EINVAL;
// 2870                  break;
// 2871              }
// 2872 
// 2873          }
// 2874 
// 2875             status = s2wCmdTable[i].process(ptr + len);
??AppS2wCommand_Process_14:
        ADR.W    R1,s2wCmdTable
        ADD      R1,R1,R6, LSL #+3
        ADDS     R0,R7,R4
        LDR      R1,[R1, #+4]
          CFI FunCall
        BLX      R1
        MOV      R8,R0
// 2876             break;
        B.N      ??AppS2wCommand_Process_16
// 2877         }
// 2878     }
??AppS2wCommand_Process_13:
        ADDS     R6,R6,#+1
        CMP      R6,#+188
        BCC.N    ??AppS2wCommand_Process_12
// 2879 	
// 2880 #ifdef S2W_EXT_FLASH_FS_SUPPORT	
// 2881     for (i = 0; i < sizeof(s2wExtFlashCmdTable) / sizeof(s2wExtFlashCmdTable[0]); i++)
// 2882 	{
// 2883         UINT32  len = strlen(s2wExtFlashCmdTable[i].cmd);
// 2884 
// 2885         if (!AppS2wParse_StrnCaseCmp((char *)ptr, s2wExtFlashCmdTable[i].cmd, len))
// 2886         {
// 2887             status = s2wExtFlashCmdTable[i].process(ptr + len);
// 2888             break;
// 2889         }
// 2890     }
// 2891 #endif
// 2892     /* Notify the status to the host
// 2893      */
// 2894     if((0 == s2wappMainTaskCtxt->dpSleep ) && (stbySuccess == 0))
??AppS2wCommand_Process_16:
        LDR.W    R1,??DataTable382
        LDR      R1,[R1, #+0]
        MOVW     R0,#+27388
        LDR      R0,[R0, R1]
        CMP      R0,#+0
        ITTT     EQ 
        LDREQ.W  R0,??DataTable388_1
        LDRBEQ   R0,[R0, #+0]
        CMPEQ    R0,#+0
        BNE.N    ??AppS2wCommand_Process_17
// 2895     {
// 2896         AppS2wProcess_StatusNotify(status, 0);
        MOVS     R1,#+0
        MOV      R0,R8
          CFI FunCall AppS2wProcess_StatusNotify
        BL       AppS2wProcess_StatusNotify
// 2897     }
// 2898 
// 2899     // flush out all response for spi DMA
// 2900        if(s2wappMainTaskCtxt->serialDeviceId == S2W_PORT_FS_SPI)
??AppS2wCommand_Process_17:
        LDR.W    R0,??DataTable382
        LDR      R0,[R0, #+0]
        LDRB     R0,[R10, R0]
        CMP      R0,#+2
        IT       EQ 
          CFI FunCall s2wSpiFs_Flush
        BLEQ     s2wSpiFs_Flush
// 2901        {
// 2902            s2wSpiFs_Flush();
// 2903        }
// 2904 
// 2905     GsnOsal_SemRelease(&s2wSyncSemID);
??AppS2wCommand_Process_3:
        MOV      R0,R9
          CFI FunCall GsnOsal_SemRelease
        BL       GsnOsal_SemRelease
// 2906     return status;
        MOV      R0,R8
        POP      {R1,R4-R11,PC}   ;; return
          CFI EndBlock cfiBlock25
// 2907 }

        SECTION `.text`:CODE:NOROOT(2)
        SECTION_TYPE SHT_PROGBITS, 0
        DATA
??DataTable378:
        DC32     s2wSslConf

        SECTION `.text`:CODE:NOROOT(2)
        SECTION_TYPE SHT_PROGBITS, 0
        DATA
??DataTable378_1:
        DC32     s2w_ssl_cert_table

        SECTION `.text`:CODE:NOROOT(2)
        SECTION_TYPE SHT_PROGBITS, 0
        DATA
??DataTable378_2:
        DC32     httpConfAtCmd

        SECTION `.text`:CODE:NOROOT(2)
        SECTION_TYPE SHT_PROGBITS, 0
        DATA
??DataTable378_3:
        DC32     headerTypesModified

        SECTION `.text`:CODE:NOROOT(2)
        SECTION_TYPE SHT_PROGBITS, 0
        DATA
??DataTable378_4:
        DC32     OtaFwupConfParam

        SECTION `.text`:CODE:NOROOT(2)
        SECTION_TYPE SHT_PROGBITS, 0
        DATA
??DataTable378_5:
        DC32     headerTypes

        SECTION `.text`:CODE:NOROOT(2)
        SECTION_TYPE SHT_PROGBITS, 0
        DATA
s2wCmdTable:
        DC32 `?<Constant "+WA=">`, AppS2wCmd_Wassoc, `?<Constant "+WPHYMODE=">`
        DC32 AppS2wCmd_Wphymode, `?<Constant "+BCONMISSTHRHLD=">`
        DC32 AppS2wCmd_BeaconMissThresholdSet, `?<Constant "+TKIPCNTRMSR=">`
        DC32 AppS2wCmd_TkipContrMsrStart, `?<Constant "+TKIPSEQSET=">`
        DC32 AppS2wCmd_TkipSeqNumGet, `?<Constant "+WLANSTATS">`
        DC32 AppS2wCmd_WlanStatsGet, `?<Constant "+RXFILTER=">`
        DC32 AppS2wCmd_WlanRecvFiltrSet, `?<Constant "+WRTS=">`
        DC32 AppS2wCmd_RtsEnable, `?<Constant "+WBLOCKACK=">`
        DC32 AppS2wCmd_BlockAckReq, `?<Constant "+WAMSDU=">`
        DC32 AppS2wCmd_AmsduReqt, `?<Constant "+WAMPDU=">`, AppS2wCmd_AmpduReq
        DC32 `?<Constant "+TXFAILLMT=">`, AppS2wCmd_FrameTxFailCntLmitSet
        DC32 `?<Constant "+NDHCP=">`, AppS2wCmd_Ndhcp, `?<Constant "+NSTAT=">`
        DC32 AppS2wCmd_Nstat, `?<Constant "+CID=">`, AppS2wCmd_CidInfo
        DC32 `?<Constant "+NCLOSEALL">`, AppS2wCmd_Ncloseall
        DC32 `?<Constant "+NCLOSE=">`, AppS2wCmd_Nclose
        DC32 `?<Constant "+WRXACTIVE=">`, AppS2wCmd_Wradio
        DC32 `?<Constant "+WRETRY=">`, AppS2wCmd_Wretry
        DC32 `?<Constant "+NCTCP=">`, AppS2wCmd_Nctcp, `?<Constant "+NCUDP=">`
        DC32 AppS2wCmd_Ncudp, `?<Constant "+NSTCP=">`, AppS2wCmd_Nstcp
        DC32 `?<Constant "+NSUDP=">`, AppS2wCmd_Nsudp
        DC32 `?<Constant "+MDNSSTART">`, AppS2wCmd_MdnsInit
        DC32 `?<Constant "+MDNSSTOP">`, AppS2wCmd_MdnsDeInit
        DC32 `?<Constant "+MDNSANNOUNCE">`, AppS2wCmd_MdnsAnnounceAll
        DC32 `?<Constant "+MDNSHNREG=">`, AppS2wCmd_MdnsHostNameReg
        DC32 `?<Constant "+MDNSSRVREG=">`, AppS2wCmd_MdnsServiceReg
        DC32 `?<Constant "+MDNSSD=">`, AppS2wCmd_MdnsSrvcDiscover
        DC32 `?<Constant "+MDNSHNDEREG=">`, AppS2wCmd_MdnsHostNmDeReg
        DC32 `?<Constant "+MDNSSRVDEREG=">`, AppS2wCmd_MdnsSrvDeReg
        DC32 `?<Constant "+NXSETSOCKOPT=">`, AppS2wCmd_SetSockOp
        DC32 `?<Constant "+NMAC=">`, AppS2wCmd_Nmac, `?<Constant "+WSEC=">`
        DC32 AppS2wCmd_SecuritySet, `?<Constant "+WAUTH=">`, AppS2wCmd_Wauth
        DC32 `?<Constant "+WWPA=">`, AppS2wCmd_Wwpa, `?<Constant "+WPAPSK=">`
        DC32 AppS2wCmd_WpaPsk, `?<Constant "+WPSK=">`, AppS2wCmd_Psk
        DC32 `?<Constant "+WWEPCONF=">`, AppS2wCmd_WwepConf
        DC32 `?<Constant "+WWEP">`, AppS2wCmd_Wwep
        DC32 `?<Constant "+WSYNCINTRL=">`, S2w_CmdSyncLossIntrvlSet
        DC32 `?<Constant "+WSTATUS">`, AppS2wCmd_Wstatus, `?<Constant "+WST=">`
        DC32 AppS2wCmd_scanTimeSet, `?<Constant "+WS">`, AppS2wCmd_Wscan
        DC32 `?<Constant "+NSET=">`, AppS2wCmd_Nset, `?<Constant "+WM=">`
        DC32 AppS2wCmd_Wmode, `?<Constant "+WRXPS=">`, AppS2wCmd_PowerSave
        DC32 `?<Constant "+WIEEEPSPOLL=">`, AppS2wCmd_ieeePsPollSet
        DC32 `?<Constant "+WP=">`, AppS2wCmd_Wpower, `?<Constant "+WD">`
        DC32 AppS2wCmd_Disconnect, `?<Constant "+WRSSI=">`, AppS2wCmd_Wrssi
        DC32 `?<Constant "+WRATE=">`, AppS2wCmd_Wrate, `?<Constant "+WAPSM=">`
        DC32 AppS2wCmd_AssocPSModeSet, `?<Constant "+MCSTSET=">`
        DC32 AppS2wCmd_McastRecvSet, `?<Constant "+WIEEEPSPOLL=">`
        DC32 AppS2wCmd_ieeePsPollSet, `?<Constant "+NARP=">`
        DC32 AppS2wCmd_ArpEntryGet, `?<Constant "+NARPCHACHEEN=">`
        DC32 AppS2wCmd_ArpCacheEn, `?<Constant "+NARPCHACHEDEL">`
        DC32 AppS2wCmd_ArpCacheDel, `?<Constant "+NARPSET=">`
        DC32 AppS2wCmd_ArpEntrySet, `?<Constant "+NARPDELETE=">`
        DC32 AppS2wCmd_ArpEntryDelete, `?<Constant "+NARPAUTO=">`
        DC32 AppS2wCmd_ArpAutoSet, `?<Constant "+srvvalidationen=">`
        DC32 AppS2wCmad_WsrvrValidationEn, `?<Constant "+WEAPTIMECHK=">`
        DC32 AppS2wCmad_WeapTimeChk, `?<Constant "B=">`, AppS2wCmd_BaudRate
        DC32 `?<Constant "+UARTFLVL=">`, AppS2wCmd_UartFifoLevel
        DC32 `?<Constant "&R">`, AppS2wCmd_HardFlow, `?<Constant "&K">`
        DC32 AppS2wCmd_SoftFlow, `?<Constant "&F">`, AppS2wCmd_Factory
        DC32 `?<Constant "&V">`, AppS2wCmd_ConfigOutput, `?<Constant "&W">`
        DC32 AppS2wCmd_Write, `?<Constant "Z">`, AppS2wCmd_read
        DC32 `?<Constant "&Y">`, AppS2wCmd_SetDefaultProfile, `?<Constant "S">`
        DC32 AppS2wCmd_Settings, `?<Constant "E">`, AppS2wCmd_Echo
        DC32 `?<Constant "V">`, AppS2wCmd_Verbose, `?<Constant "I">`
        DC32 AppS2wCmd_IdOutput, `?<Constant "A">`, AppS2wCmd_AutoConnect
        DC32 `?<Constant "H">`, AppS2wCmd_Disconnect, `?<Constant "C">`
        DC32 AppS2wCmd_Acmode, `?<Constant "O">`, AppS2wCmd_GoOnline
        DC32 `?<Constant "+VER=">`, App2wCmd_Version, `?<Constant "+MCSTSET=">`
        DC32 AppS2wCmd_McastRecvSet, `?<Constant "+BDATA=">`
        DC32 S2w_CmdBulkDataState, `?<Constant "+RESET">`, AppS2wCmd_reset
        DC32 `?<Constant "+APCONF=">`, AppS2wCmd_ApConf
        DC32 `?<Constant "+APCLIENTINFO=">`, AppS2wCmd_ApClientInfoGet
        DC32 `?<Constant "+L2CONFIG=">`, AppS2w_CmdL2ConfigSet
        DC32 `?<Constant "+NTIMESYNC=">`, AppS2wCmd_ntpTimeSet
        DC32 `?<Constant "+DNS=">`, AppS2wCmd_Dns, `?<Constant "+DHCPSRVR=">`
        DC32 AppS2wCmd_DhcpSrvr, `?<Constant "+DHCPSRVRCFG=">`
        DC32 AppS2wCmd_DhcpSrvrConfig, `?<Constant "+SETTIME=">`
        DC32 AppS2wCmd_SystemTimeSet, `?<Constant "+GETTIME=">`
        DC32 AppS2wCmd_SystemTimeGet, `?<Constant "+WWPS=">`, AppS2wCmd_Wwps
        DC32 `?<Constant "+TCERTADD=">`, AppS2wCmd_SslCertificateAdd
        DC32 `?<Constant "+TCERTDEL=">`, AppS2wCmd_SslCertificateDelete
        DC32 `?<Constant "+WEAP=">`, AppS2wCmd_Weap, `?<Constant "+WEAPCONF=">`
        DC32 AppS2wCmd_WeapConf, `?<Constant "+HTTPOPEN=">`
        DC32 AppS2wCmd_HttpClientOpen, `?<Constant "+HTTPCLOSE=">`
        DC32 AppS2wCmd_HttpClientClose, `?<Constant "+HTTPCONF=">`
        DC32 AppS2wCmd_HttpClientConfig, `?<Constant "+HTTPCONFDEL=">`
        DC32 AppS2wCmd_HttpClientConfigDel, `?<Constant "+HTTPSEND=">`
        DC32 AppS2wCmd_HttpClientSend, `?<Constant "+SOTAFWUPCONF=">`
        DC32 AppS2wCmd_OtaFwupConf, `?<Constant "+SOTAFWUPSTART">`
        DC32 AppS2wCmd_OtaFwupExtFlashStart, `?<Constant "+SOTAFWUPROLLBACK">`
        DC32 AppS2wCmd_OtaFwupRollBack, `?<Constant "+WAUTO=">`
        DC32 AppS2wCmd_Wauto, `?<Constant "+NAUTO=">`, AppS2wCmd_Nauto
        DC32 `?<Constant "+PSDPSLEEP">`, AppS2wCmd_PowerSaveDpsleep
        DC32 `?<Constant "+PING=">`, AppS2wCmd_Ping
        DC32 `?<Constant "+MQTT_PUBLISH">`, App2wCmd_mqtt_publish
        DC32 `?<Constant "+DNSSET=">`, AppS2wCmd_DnsServerSet
        DC32 `?<Constant "+DNSLOOKUP=">`, AppS2wCmd_DnsLookup
        DC32 `?<Constant "+WREGDOMAIN=">`, AppS2wCmd_RegDomainSet
        DC32 `?<Constant "+SSLOPEN=">`, AppS2wCmd_SSLOpen
        DC32 `?<Constant "+SSLCLOSE=">`, AppS2wCmd_SSLClose
        DC32 `?<Constant "+SSLCONF=">`, AppS2wCmd_SslConfig
        DC32 `?<Constant "+WRFTESTSTART">`, AppS2wCmd_RfTestStart
        DC32 `?<Constant "+WRFTESTSTOP">`, AppS2wCmd_RfTestStop
        DC32 `?<Constant "+WFRAMETXTEST=">`, AppS2wCmd_RfTestTxStart
        DC32 `?<Constant "+WTX99TEST=">`, AppS2wCmd_RfTestTx99Start
        DC32 `?<Constant "+WTX100TEST=">`, AppS2wCmd_RfTestTx100Start
        DC32 `?<Constant "+WCARWAVTEST=">`, AppS2wCmd_RfTestCarrierWaveStart
        DC32 `?<Constant "+WTXSTOP=">`, AppS2wCmd_RfTestTxStop
        DC32 `?<Constant "+WRXTEST=">`, AppS2wCmd_RfTestRxStart
        DC32 `?<Constant "+WRXSTOP">`, AppS2wCmd_RfTestRxStop
        DC32 `?<Constant "+WCALIB=">`, AppS2wCmd_WlanCalib
        DC32 `?<Constant "+WOTPRD=">`, AppS2wCmd_WlanOtpRead
        DC32 `?<Constant "+AOTPRD=">`, AppS2wCmd_AppOtpRead
        DC32 `?<Constant "+WEBPROV=">`, APPS2wCmd_WebProv
        DC32 `?<Constant "+WEBPROVSTOP">`, APPS2wCmd_WebProvStop
        DC32 `?<Constant "+NURIREDIR=">`, APPS2wCmd_AddRedirURI
        DC32 `?<Constant "+WEBSERVER=">`, AppS2wCmd_WebServer
        DC32 `?<Constant "+URIRECV=">`, AppS2wCmd_CfgUri
        DC32 `?<Constant "+XMLSEND=">`, AppS2wCmd_XmlSend
        DC32 `?<Constant "+XMLPARSE=">`, AppS2wCmd_XmlParseEnable
        DC32 `?<Constant "+PSSTBY=">`, AppS2wCmd_PowerSaveStby
        DC32 `?<Constant "+STORENWCONN">`, AppS2wCmd_NwConnStore
        DC32 `?<Constant "+RESTORENWCONN">`, AppS2wCmd_NwConnRestore
        DC32 `?<Constant "+HIBERNATE=">`, AppS2wCmd_Hibernate
        DC32 `?<Constant "+NCMAUTO=">`, AppS2wCmd_NcmAuto
        DC32 `?<Constant "+NCMAUTOCONF=">`, AppS2wCmd_NcmAutoConf
        DC32 `?<Constant "+ASYNCMSGFMT=">`, AppS2wCmd_AsyncMsgFmt
        DC32 `?<Constant "+NIPMULTICASTJOIN=">`, AppS2wCmd_IpMulticastJoin
        DC32 `?<Constant "+NIPMULTICASTLEAVE=">`, AppS2wCmd_IpMulticastLeave
        DC32 `?<Constant "+DGPIO=">`, AppS2wCmd_Dgpio
        DC32 `?<Constant "+UNSOLICITEDTX=">`, S2w_CmdUnSolicitedTx
        DC32 `?<Constant "+UNSOLICITEDRX=">`, S2w_CmdUnSolicitedRx
        DC32 `?<Constant "+UNSOLICITEDRXSTOP">`, S2w_CmdUnSolicitedRxstop
        DC32 `?<Constant "+UAMCCA=">`, S2w_CmdUnSolicitedCcaConf
        DC32 `?<Constant "+adcconf=">`, AppS2wCmd_AdcConf
        DC32 `?<Constant "+adcstart">`, AppS2wCmd_AdcStart
        DC32 `?<Constant "+adcread=">`, AppS2wCmd_AdcRead
        DC32 `?<Constant "+adcstop">`, AppS2wCmd_AdcStop
        DC32 `?<Constant "+EXFLASHINIT=">`, AppS2wCmd_ExtFlashInit
        DC32 `?<Constant "+EXFLASHWRITE=">`, AppS2wCmd_ExtFlashWrite
        DC32 `?<Constant "+EXFLASHREAD=">`, AppS2wCmd_ExtFlashRead
        DC32 `?<Constant "+EXFLASHERASE=">`, AppS2wCmd_ExtFlashErase
        DC32 `?<Constant "+EXFLASHCERASE">`, AppS2wCmd_ExtFlashChipErase
        DC32 `?<Constant "+EXFLASHSPICONF=">`, AppS2wCmd_ExtFlashSpiConf
        DC32 `?<Constant "+WSTAPSCFG=">`, AppS2wCmd_WlanStaPsCfg
        DC32 `?<Constant "+WAPPSCFG=">`, AppS2wCmd_WlanApPsCfg
        DC32 `?<Constant "+PSPOLLINTRL=">`, S2w_CmdPsPollIntervelset
        DC32 `?<Constant "+WKEEPALIVE=">`, S2w_CmdPsPollIntervelset
        DC32 `?<Constant "+PWMSTART=">`, AppS2wCmd_PwmStart
        DC32 `?<Constant "+PWMSTOP=">`, AppS2wCmd_PwmStop
        DC32 `?<Constant "+PWMCNTRL=">`, AppS2wCmd_PwmCtrl
        DC32 `?<Constant "+MEMREAD=">`, AppS2wCmd_MemRead
        DC32 `?<Constant "+MEMWRITE=">`, AppS2wCmd_MemWrite
        DC32 `?<Constant "+LOGLVL=">`, AppS2wCmd_LogLevelSet
        DC32 `?<Constant "+BCHKSTRT=">`, AppS2wCmd_BattCheckStart
        DC32 `?<Constant "+BATTVALGET">`, AppS2wCmd_BattValueGet
        DC32 `?<Constant "+BCHK=">`, AppS2wCmd_BattCheckSet
        DC32 `?<Constant "+BCHKSTOP">`, AppS2wCmd_BattCheckStop
        DC32 `?<Constant "+BATTLVLSET=">`, AppS2wCmd_BattLvlSet
        DC32 `?<Constant "+CLKTUNE=">`, App_ClkTuneCmd
        DC32 `?<Constant "+COAPOPEN=">`, AppS2wCmd_CoapOpen
        DC32 `?<Constant "+COAPSENDRECIEVE=">`, AppS2wCmd_CoapSend
        DC32 `?<Constant "+COAPCLOSE=">`, AppS2wCmd_CoapClose
        DC32 `?<Constant "+COAPOPTCONF=">`, AppS2wCmd_CoapSetOption
        DC32 `?<Constant "+COAPOPTCONFDEL=">`, AppS2wCmd_CoapRemoveOption
        DC32 `?<Constant "+WBACKEN=">`, AppS2wCmd_BaBitMapSet
        DC32 `?<Constant "+WRADIOSTATE=">`, AppS2wCmd_RadioStateGet
        DC32 `?<Constant "+WASSOCCONF=">`, AppS2wCmd_SetAssocTimeout
        DC32 `?<Constant "+TEMPVALGET=">`, AppS2wCmd_TempGet
        DC32 `?<Constant "+WTEMPREAD=">`, AppS2wCmd_TempReadStart
        DC32 `?<Constant "+CRYPTOEN=">`, AppS2wCmd_HwCryptoEn
        DC32 `?<Constant "+GRATARP">`, AppS2wCmd_GratArpSend
// 2908 
// 2909 /**
// 2910  ******************************************************************
// 2911  * @ingroup S2w-Application
// 2912  * @brief Process the AT+CID command
// 2913  * @param ptr Pointer to the user input string.
// 2914  * @return status.
// 2915  ******************************************************************/

        SECTION `.text`:CODE:NOROOT(1)
          CFI Block cfiBlock26 Using cfiCommon0
          CFI Function AppS2wCmd_CidInfo
        THUMB
// 2916 PUBLIC UINT8
// 2917 AppS2wCmd_CidInfo(UINT8 *ptr)
// 2918 {
AppS2wCmd_CidInfo:
        PUSH     {R4-R11,LR}
          CFI R14 Frame(CFA, -4)
          CFI R11 Frame(CFA, -8)
          CFI R10 Frame(CFA, -12)
          CFI R9 Frame(CFA, -16)
          CFI R8 Frame(CFA, -20)
          CFI R7 Frame(CFA, -24)
          CFI R6 Frame(CFA, -28)
          CFI R5 Frame(CFA, -32)
          CFI R4 Frame(CFA, -36)
          CFI CFA R13+36
        SUB      SP,SP,#+212
          CFI CFA R13+248
// 2919     UINT32 cidnos =0,i=0;
        MOVS     R1,#+0
        STR      R1,[SP, #+12]
        MOVS     R4,#+0
// 2920     UINT8 status = S2W_EINVAL;
// 2921     if (ptr[0] == '?' && ptr[1] == '\0')
        LDRB     R1,[R0, #+0]
        MOVS     R5,#+2
        CMP      R1,#+63
        ITT      EQ 
        LDRBEQ   R0,[R0, #+1]
        CMPEQ    R0,#+0
        BNE.N    ??AppS2wCmd_CidInfo_0
// 2922     {
// 2923         S2W_CID_INFO_T cidinfo[16];
// 2924         memset(cidinfo,0,sizeof(cidinfo));
        MOVS     R2,#+192
        MOVS     R1,#+0
        ADD      R0,SP,#+16
          CFI FunCall memset
        BL       memset
// 2925         status = AppS2wHal_CidInfoGet(cidinfo,&cidnos);
        ADD      R1,SP,#+12
        ADD      R0,SP,#+16
          CFI FunCall AppS2wHal_CidInfoGet
        BL       AppS2wHal_CidInfoGet
        MOV      R5,R0
// 2926         if (cidnos == 0)
        LDR      R0,[SP, #+12]
        CBNZ.N   R0,??AppS2wCmd_CidInfo_1
// 2927         {
// 2928             S2w_Printf("\r\n No valid Cids\r\n");
        ADR.W    R0,`?<Constant "\\r\\n No valid Cids\\r\\n">`
          CFI FunCall S2w_Printf
        BL       S2w_Printf
// 2929         }
// 2930         else
// 2931         {
// 2932             S2w_Printf("\r\nCID\tTYPE\tMODE\tLOCAL PORT\tREMOTE PORT\tREMOTE IP\r\n");
// 2933             for(i=0;i<cidnos;i++)
// 2934             {
// 2935             	// fix for issue 5884 added-cid in hex not in decimal
// 2936                 S2w_Printf("%x\t",cidinfo[i].cid);
// 2937                 if( cidinfo[i].conType ==1)
// 2938                 {
// 2939                     S2w_Printf("UDP\t");
// 2940                 }
// 2941                 else
// 2942                 {
// 2943 					if (1 == AppS2w_ConnStateGet(cidinfo[i].cid))
// 2944 					{
// 2945 						S2w_Printf("TCP-SSL ");
// 2946 					}
// 2947 					else if(AppS2w_ConnHttpStateGet(cidinfo[i].cid) == 1)
// 2948 					{
// 2949 						S2w_Printf("HTTP\t");
// 2950 					}
// 2951 					else
// 2952                     {
// 2953                         S2w_Printf("TCP\t");
// 2954                     }
// 2955                 }
// 2956                 cidinfo[i].conMode?S2w_Printf("SERVER\t"):
// 2957                                    S2w_Printf("CLIENT\t");
// 2958 #ifdef S2W_IPv6_SUPPORT
// 2959             if(s2wCidList[i].addrType & ADDR_TYPE_IPv6)
// 2960             {
// 2961               INT8 ipv6str[INET6_ADDRSTRLEN];
// 2962               S2w_ntop((ULONG*)s2wCidList[i].remoteIpv6,ipv6str);
// 2963               S2w_Printf("%4d\t\t%4d\t\t %s \r\n",cidinfo[i].localPort,cidinfo[i].remotePort,ipv6str);  
// 2964               
// 2965              }
// 2966             else
// 2967 #endif 
// 2968             
// 2969                 S2w_Printf("%4d\t\t%4d\t\t%3d.%3d.%3d.%3d\r\n",cidinfo[i].localPort,
// 2970                           cidinfo[i].remotePort,cidinfo[i].remoteIp[0],cidinfo[i].remoteIp[1],
// 2971                            cidinfo[i].remoteIp[2],cidinfo[i].remoteIp[3]);
// 2972             }
// 2973         }
// 2974 
// 2975     }
// 2976     return status;
??AppS2wCmd_CidInfo_0:
        MOV      R0,R5
        ADD      SP,SP,#+212
          CFI CFA R13+36
        POP      {R4-R11,PC}      ;; return
          CFI CFA R13+248
??AppS2wCmd_CidInfo_1:
        ADR.W    R0,`?<Constant "\\r\\nCID\\tTYPE\\tMODE\\tLOCAL...">`
          CFI FunCall S2w_Printf
        BL       S2w_Printf
        ADR.W    R10,`?<Constant "HTTP\\t">`
        ADR.W    R11,`?<Constant "TCP-SSL ">`
        ADR.W    R8,`?<Constant "UDP\\t">`
        ADR.W    R9,??DataTable384  ;; "%x\t"
        B.N      ??AppS2wCmd_CidInfo_2
??AppS2wCmd_CidInfo_3:
          CFI FunCall S2w_Printf
        BL       S2w_Printf
        LDRB     R0,[R6, #+9]
        STR      R0,[SP, #+8]
        LDRB     R0,[R6, #+8]
        STR      R0,[SP, #+4]
        LDRB     R0,[R6, #+7]
        STR      R0,[SP, #+0]
        LDRB     R3,[R6, #+6]
        LDRH     R2,[R6, #+4]
        LDRH     R1,[R6, #+2]
        ADR.W    R0,`?<Constant "%4d\\t\\t%4d\\t\\t%3d.%3d.%3d...">`
          CFI FunCall S2w_Printf
        BL       S2w_Printf
        ADDS     R4,R4,#+1
??AppS2wCmd_CidInfo_2:
        LDR      R0,[SP, #+12]
        CMP      R4,R0
        BCS.N    ??AppS2wCmd_CidInfo_0
        MOVS     R0,#+12
        MUL      R7,R0,R4
        ADD      R0,SP,#+16
        ADDS     R6,R7,R0
        MOV      R0,R9
        LDRB     R1,[R6, #+10]
          CFI FunCall S2w_Printf
        BL       S2w_Printf
        ADD      R0,SP,#+16
        LDRB     R0,[R7, R0]
        CMP      R0,#+1
        IT       EQ 
        MOVEQ    R0,R8
        BEQ.N    ??AppS2wCmd_CidInfo_4
        LDRB     R0,[R6, #+10]
          CFI FunCall AppS2w_ConnStateGet
        BL       AppS2w_ConnStateGet
        CMP      R0,#+1
        IT       EQ 
        MOVEQ    R0,R11
        BEQ.N    ??AppS2wCmd_CidInfo_4
        LDRB     R0,[R6, #+10]
          CFI FunCall AppS2w_ConnHttpStateGet
        BL       AppS2w_ConnHttpStateGet
        CMP      R0,#+1
        ITE      EQ 
        MOVEQ    R0,R10
        ADRNE.W  R0,`?<Constant "TCP\\t">`
??AppS2wCmd_CidInfo_4:
          CFI FunCall S2w_Printf
        BL       S2w_Printf
        LDRB     R0,[R6, #+1]
        CMP      R0,#+0
        ITE      NE 
        ADRNE.W  R0,`?<Constant "SERVER\\t">`
        ADREQ.W  R0,`?<Constant "CLIENT\\t">`
        B.N      ??AppS2wCmd_CidInfo_3
          CFI EndBlock cfiBlock26
// 2977 }

        SECTION `.text`:CODE:NOROOT(2)
        SECTION_TYPE SHT_PROGBITS, 0
        DATA
`?<Constant "\\r\\n No valid Cids\\r\\n">`:
        DC8 "\015\012 No valid Cids\015\012"
        DC8 0

        SECTION `.text`:CODE:NOROOT(2)
        SECTION_TYPE SHT_PROGBITS, 0
        DATA
`?<Constant "\\r\\nCID\\tTYPE\\tMODE\\tLOCAL...">`:
        DC8 0DH, 0AH, 43H, 49H, 44H, 9, 54H, 59H
        DC8 50H, 45H, 9, 4DH, 4FH, 44H, 45H, 9
        DC8 4CH, 4FH, 43H, 41H, 4CH, 20H, 50H, 4FH
        DC8 52H, 54H, 9, 52H, 45H, 4DH, 4FH, 54H
        DC8 45H, 20H, 50H, 4FH, 52H, 54H, 9, 52H
        DC8 45H, 4DH, 4FH, 54H, 45H, 20H, 49H, 50H
        DC8 0DH, 0AH, 0
        DC8 0

        SECTION `.text`:CODE:NOROOT(2)
        SECTION_TYPE SHT_PROGBITS, 0
        DATA
`?<Constant "HTTP\\t">`:
        DC8 "HTTP\t"
        DC8 0, 0

        SECTION `.text`:CODE:NOROOT(2)
        SECTION_TYPE SHT_PROGBITS, 0
        DATA
`?<Constant "TCP-SSL ">`:
        DC8 "TCP-SSL "
        DC8 0, 0, 0

        SECTION `.text`:CODE:NOROOT(2)
        SECTION_TYPE SHT_PROGBITS, 0
        DATA
`?<Constant "UDP\\t">`:
        DC8 "UDP\t"
        DC8 0, 0, 0

        SECTION `.text`:CODE:NOROOT(2)
        SECTION_TYPE SHT_PROGBITS, 0
        DATA
`?<Constant "%4d\\t\\t%4d\\t\\t%3d.%3d.%3d...">`:
        DC8 "%4d\t\t%4d\t\t%3d.%3d.%3d.%3d\015\012"

        SECTION `.text`:CODE:NOROOT(2)
        SECTION_TYPE SHT_PROGBITS, 0
        DATA
`?<Constant "TCP\\t">`:
        DC8 "TCP\t"
        DC8 0, 0, 0

        SECTION `.text`:CODE:NOROOT(2)
        SECTION_TYPE SHT_PROGBITS, 0
        DATA
`?<Constant "SERVER\\t">`:
        DC8 "SERVER\t"

        SECTION `.text`:CODE:NOROOT(2)
        SECTION_TYPE SHT_PROGBITS, 0
        DATA
`?<Constant "CLIENT\\t">`:
        DC8 "CLIENT\t"
// 2978 
// 2979 /**
// 2980  ******************************************************************
// 2981  * @ingroup S2w-Application
// 2982  * @brief Process the AT+BDATA command
// 2983  *      This function set/reset bulk mode.
// 2984  * @param ptr Pointer to the user input string.
// 2985  * @retval S2W_SUCCESS - operation successful.
// 2986  * @retval S2W_EINVAL  - operation failure-invalid command.
// 2987  ******************************************************************/

        SECTION `.text`:CODE:NOROOT(1)
          CFI Block cfiBlock27 Using cfiCommon0
          CFI Function S2w_CmdBulkDataState
          CFI NoCalls
        THUMB
// 2988 UINT8
// 2989 S2w_CmdBulkDataState(UINT8 *ptr)
// 2990 {
S2w_CmdBulkDataState:
        PUSH     {R7,LR}
          CFI R14 Frame(CFA, -4)
          CFI CFA R13+8
// 2991     UINT8 status;
// 2992     UINT8 mode;
// 2993 
// 2994     status = AppS2wParse_Boolean(ptr, &mode);
        BL       ?Subroutine60
// 2995     if (status != S2W_SUCCESS)
??CrossCallReturnLabel_385:
        CBNZ.N   R0,??S2w_CmdBulkDataState_0
// 2996     {
// 2997         return status;
// 2998     }
// 2999     s2wCurrent.bulkTxEnable = mode;
        LDR.W    R0,??DataTable393
        LDRB     R1,[SP, #+0]
        STRB     R1,[R0, #+468]
// 3000     return status;
        MOVS     R0,#+0
??S2w_CmdBulkDataState_0:
        POP      {R1,PC}          ;; return
          CFI EndBlock cfiBlock27
// 3001 }
// 3002 
// 3003 /**
// 3004  ******************************************************************
// 3005  * @ingroup S2w-Application
// 3006  * @brief Process the AT+NCTCP Command.
// 3007  * @param ptr Pointer to the user input string.
// 3008  * @return status.
// 3009  ******************************************************************/

        SECTION `.text`:CODE:NOROOT(1)
          CFI Block cfiBlock28 Using cfiCommon0
          CFI Function AppS2wCmd_Nctcp
        THUMB
// 3010 PUBLIC UINT8
// 3011 AppS2wCmd_Nctcp(UINT8 *ptr)
// 3012 {
AppS2wCmd_Nctcp:
        PUSH     {LR}
          CFI R14 Frame(CFA, -4)
          CFI CFA R13+4
        SUB      SP,SP,#+68
          CFI CFA R13+72
// 3013     S2W_NETDATA_T peerData;
// 3014     UINT8 *temp = ptr;
        STR      R0,[SP, #+4]
// 3015     UINT32 status;
// 3016     UINT8 cid;
// 3017 
// 3018     if (s2wIsAutoconnected)
        LDR.W    R0,??DataTable393_1
        LDRB     R0,[R0, #+0]
        CBZ.N    R0,??AppS2wCmd_Nctcp_0
// 3019     {
// 3020         return S2W_EINVAL;
        MOVS     R0,#+2
        B.N      ??AppS2wCmd_Nctcp_1
// 3021     }
// 3022     if(s2wLinkState == S2W_LINK_STATE_DISCONNECTED)
??AppS2wCmd_Nctcp_0:
        LDR.W    R0,??DataTable393_2
        LDRB     R0,[R0, #+0]
        CBNZ.N   R0,??AppS2wCmd_Nctcp_2
// 3023     {
// 3024         return S2W_LINK_LOST_EVT;
        MOVS     R0,#+9
        B.N      ??AppS2wCmd_Nctcp_1
// 3025     }
// 3026     status = AppS2wParse_AddrPort(&temp, &peerData);
??AppS2wCmd_Nctcp_2:
        ADD      R1,SP,#+8
        ADD      R0,SP,#+4
          CFI FunCall AppS2wParse_AddrPort
        BL       AppS2wParse_AddrPort
// 3027     if (status != S2W_SUCCESS)
        CBNZ.N   R0,??AppS2wCmd_Nctcp_1
// 3028     {
// 3029         return status;
// 3030     }
// 3031 
// 3032     peerData.proto = S2W_NETDATA_PROTO_TCP;
        MOVS     R0,#+1
        STRB     R0,[SP, #+9]
// 3033     peerData.mode = S2W_NETDATA_MODE_CLIENT;
// 3034 
// 3035     status = AppS2wHal_NetTcpClient(&peerData, &cid);
        ADD      R1,SP,#+0
        MOVS     R0,#+0
        STRB     R0,[SP, #+8]
        ADD      R0,SP,#+8
          CFI FunCall AppS2wHal_NetTcpClient
        BL       AppS2wHal_NetTcpClient
// 3036     if (status != S2W_SUCCESS)
        CBNZ.N   R0,??AppS2wCmd_Nctcp_1
// 3037     {
// 3038         return status;
// 3039     }
// 3040 
// 3041     AppS2wProcess_StatusNotify(S2W_CON_SUCCESS, cid);
        LDRB     R1,[SP, #+0]
        BL       ??Subroutine119_0
// 3042     return status;
??CrossCallReturnLabel_567:
        MOVS     R0,#+0
??AppS2wCmd_Nctcp_1:
        ADD      SP,SP,#+68
          CFI CFA R13+4
        POP      {PC}             ;; return
          CFI EndBlock cfiBlock28
// 3043 
// 3044 }

        SECTION `.text`:CODE:NOROOT(2)
        SECTION_TYPE SHT_PROGBITS, 0
        DATA
??DataTable381:
        DC32     s2wCidList
// 3045 

        SECTION `.text`:CODE:NOROOT(1)
          CFI Block cfiBlock29 Using cfiCommon0
          CFI Function AppS2wCmd_scanTimeSet
        THUMB
// 3046 PUBLIC UINT8
// 3047 AppS2wCmd_scanTimeSet(UINT8 *ptr)
// 3048 {
AppS2wCmd_scanTimeSet:
        PUSH     {R0,R4,R5,LR}
          CFI R14 Frame(CFA, -4)
          CFI R5 Frame(CFA, -8)
          CFI R4 Frame(CFA, -12)
          CFI CFA R13+16
        SUB      SP,SP,#+16
          CFI CFA R13+32
// 3049     UINT8 status = S2W_SUCCESS;
// 3050     UINT8 *p;
// 3051     UINT32 minTime=0,maxTime=0,passiveTime=0;
        MOVS     R0,#+0
        STR      R0,[SP, #+4]
        STR      R0,[SP, #+0]
        STR      R0,[SP, #+8]
// 3052 
// 3053     if (ptr[0] == '?' && ptr[1] == '\0')
        LDR.W    R4,??DataTable393
        LDR      R0,[SP, #+16]
        LDRB     R0,[R0, #+0]
        ADDW     R5,R4,#+462
        CMP      R0,#+63
        ITTT     EQ 
        LDREQ    R0,[SP, #+16]
        LDRBEQ   R0,[R0, #+1]
        CMPEQ    R0,#+0
        BNE.N    ??AppS2wCmd_scanTimeSet_0
// 3054     {
// 3055         S2w_Printf("\r\nMinScanTime=%d\r\nMaxScanTime=%d\r\n", s2wCurrent.minScanTime,
// 3056                     s2wCurrent.registers[S2W_REG_SCAN_TIME]);
        LDRH     R2,[R4, #+462]
        LDRH     R1,[R5, #+8]
        ADR.W    R0,`?<Constant "\\r\\nMinScanTime=%d\\r\\nMax...">`
          CFI FunCall S2w_Printf
        BL       S2w_Printf
// 3057         return S2W_SUCCESS;
        MOVS     R0,#+0
        B.N      ??AppS2wCmd_scanTimeSet_1
// 3058     }
// 3059     p = AppS2wParse_NextParamGet(&ptr);
??AppS2wCmd_scanTimeSet_0:
        BL       ?Subroutine30
// 3060     if (!p)
??CrossCallReturnLabel_95:
        CBZ.N    R0,??AppS2wCmd_scanTimeSet_2
// 3061     {
// 3062         return S2W_EINVAL;
// 3063     }
// 3064     status = AppS2wParse_Int(p, &minTime);
        BL       ?Subroutine52
// 3065     if (status != S2W_SUCCESS)
??CrossCallReturnLabel_332:
        CBNZ.N   R0,??AppS2wCmd_scanTimeSet_1
// 3066     {
// 3067         return status;
// 3068     }
// 3069     p = AppS2wParse_NextParamGet(&ptr);
        BL       ?Subroutine30
// 3070     if (!p)
??CrossCallReturnLabel_94:
        CBZ.N    R0,??AppS2wCmd_scanTimeSet_2
// 3071     {
// 3072         return S2W_EINVAL;
// 3073     }
// 3074     status = AppS2wParse_Int(p, &maxTime);
        BL       ?Subroutine51
// 3075     if (status != S2W_SUCCESS)
??CrossCallReturnLabel_309:
        CBNZ.N   R0,??AppS2wCmd_scanTimeSet_1
// 3076     {
// 3077         return status;
// 3078     }
// 3079     if(maxTime < minTime)
        LDR      R0,[SP, #+0]
        LDR      R1,[SP, #+4]
        CMP      R0,R1
        BCS.N    ??AppS2wCmd_scanTimeSet_3
// 3080     {
// 3081         return S2W_EINVAL;
??AppS2wCmd_scanTimeSet_2:
        MOVS     R0,#+2
        B.N      ??AppS2wCmd_scanTimeSet_1
// 3082     }
// 3083     p = AppS2wParse_NextParamGet(&ptr);
??AppS2wCmd_scanTimeSet_3:
        BL       ?Subroutine30
// 3084     if(p)
??CrossCallReturnLabel_93:
        CBZ.N    R0,??AppS2wCmd_scanTimeSet_4
// 3085     {
// 3086         status = AppS2wParse_Int(p, &passiveTime);
        BL       ?Subroutine50
// 3087         if (status != S2W_SUCCESS)
??CrossCallReturnLabel_261:
        CBNZ.N   R0,??AppS2wCmd_scanTimeSet_1
// 3088         {
// 3089             return status;
// 3090         }
// 3091     }
// 3092     
// 3093    status = GsnWdd_ScanParamSet(&s2wappMainTaskCtxt->if0.wddCtx,minTime,maxTime,passiveTime);
??AppS2wCmd_scanTimeSet_4:
        LDR.N    R0,??DataTable382
        LDR      R3,[SP, #+8]
        LDR      R2,[SP, #+0]
        LDR      R1,[SP, #+4]
        LDR      R0,[R0, #+0]
        UXTH     R3,R3
        UXTH     R2,R2
        UXTH     R1,R1
        ADD      R0,R0,#+3808
          CFI FunCall GsnWdd_ScanParamSet
        BL       GsnWdd_ScanParamSet
// 3094 
// 3095    /* update the default in profile */
// 3096     s2wCurrent.registers[S2W_REG_SCAN_TIME] = maxTime;
        LDR      R1,[SP, #+0]
        STRH     R1,[R4, #+462]
// 3097     s2wCurrent.minScanTime = (UINT16)minTime;
// 3098 
// 3099     return  status;
        UXTB     R0,R0
        LDR      R1,[SP, #+4]
        STRH     R1,[R5, #+8]
??AppS2wCmd_scanTimeSet_1:
        ADD      SP,SP,#+20
          CFI CFA R13+12
        POP      {R4,R5,PC}       ;; return
          CFI EndBlock cfiBlock29
// 3100 }

        SECTION `.text`:CODE:NOROOT(2)
        SECTION_TYPE SHT_PROGBITS, 0
        DATA
??DataTable382:
        DC32     s2wappMainTaskCtxt

        SECTION `.text`:CODE:NOROOT(2)
        SECTION_TYPE SHT_PROGBITS, 0
        DATA
`?<Constant "\\r\\nMinScanTime=%d\\r\\nMax...">`:
        DC8 "\015\012MinScanTime=%d\015\012MaxScanTime=%d\015\012"
        DC8 0
// 3101 /**
// 3102  ******************************************************************
// 3103  * @ingroup S2w-Application
// 3104  * @brief Process AT+NSTCP command.
// 3105  * @param ptr Pointer to the user input string.
// 3106  * @return status, S2W_SUCCESS or S2W_FAILURE.
// 3107  ******************************************************************/

        SECTION `.text`:CODE:NOROOT(1)
          CFI Block cfiBlock30 Using cfiCommon0
          CFI Function AppS2wCmd_Nstcp
        THUMB
// 3108 PUBLIC UINT8
// 3109 AppS2wCmd_Nstcp(UINT8 *ptr)
// 3110 {
AppS2wCmd_Nstcp:
        PUSH     {R0,LR}
          CFI R14 Frame(CFA, -4)
          CFI CFA R13+8
        SUB      SP,SP,#+72
          CFI CFA R13+80
// 3111     S2W_NETDATA_T peerData;
// 3112     UINT8 status;
// 3113     UINT32 port;
// 3114     UINT8 cid;
// 3115 	UINT32 maxConn=0;
        MOVS     R0,#+0
        STR      R0,[SP, #+4]
// 3116     UINT8 *p;
// 3117 
// 3118     if (s2wIsAutoconnected)
        LDR.W    R0,??DataTable393_1
        LDRB     R0,[R0, #+0]
        CBNZ.N   R0,??AppS2wCmd_Nstcp_0
// 3119     {
// 3120         return S2W_EINVAL;
// 3121     }
// 3122     if(s2wLinkState == S2W_LINK_STATE_DISCONNECTED)
        LDR.W    R0,??DataTable393_2
        LDRB     R0,[R0, #+0]
        CBNZ.N   R0,??AppS2wCmd_Nstcp_1
// 3123     {
// 3124         return S2W_LINK_LOST_EVT;
        MOVS     R0,#+9
        B.N      ??AppS2wCmd_Nstcp_2
// 3125     }
// 3126 	p = AppS2wParse_NextParamGet(&ptr);
??AppS2wCmd_Nstcp_1:
        ADD      R0,SP,#+72
          CFI FunCall AppS2wParse_NextParamGet
        BL       AppS2wParse_NextParamGet
// 3127 	if (*p == 0)
        LDRB     R1,[R0, #+0]
        CBZ.N    R1,??AppS2wCmd_Nstcp_0
// 3128 	{
// 3129 	  return S2W_EINVAL;
// 3130 	}
// 3131     status = AppS2wParse_Int(p, &port);
// 3132     if (status != S2W_SUCCESS || !is_valid_port(port))
        BL       ?Subroutine51
??CrossCallReturnLabel_308:
        CBNZ.N   R0,??AppS2wCmd_Nstcp_0
        LDR      R0,[SP, #+0]
        CBZ.N    R0,??AppS2wCmd_Nstcp_0
        CMP      R0,#+65536
        BCS.N    ??AppS2wCmd_Nstcp_0
// 3133     {
// 3134         return S2W_EINVAL;
// 3135     }
// 3136 	p = AppS2wParse_NextParamGet(&ptr);
        ADD      R0,SP,#+72
          CFI FunCall AppS2wParse_NextParamGet
        BL       AppS2wParse_NextParamGet
// 3137 	maxConn = 15;
        MOVS     R1,#+15
        STR      R1,[SP, #+4]
// 3138 	if (p != NULL)
        CBZ.N    R0,??AppS2wCmd_Nstcp_3
// 3139 	{
// 3140 		status = AppS2wParse_Int(p, &maxConn);
// 3141 		if (status != S2W_SUCCESS )
        BL       ?Subroutine52
??CrossCallReturnLabel_331:
        CBZ.N    R0,??AppS2wCmd_Nstcp_3
// 3142 		{
// 3143 			return S2W_EINVAL;
??AppS2wCmd_Nstcp_0:
        MOVS     R0,#+2
        B.N      ??AppS2wCmd_Nstcp_2
// 3144 		}
// 3145     }
// 3146 
// 3147     peerData.port = port;
// 3148     peerData.proto = S2W_NETDATA_PROTO_TCP;
// 3149     peerData.mode = S2W_NETDATA_MODE_SERVER;
// 3150 
// 3151 
// 3152     status = AppS2wHal_NetTcpServer(&peerData, &cid);
??AppS2wCmd_Nstcp_3:
        ADD      R1,SP,#+8
        LDR      R0,[SP, #+0]
        STRH     R0,[SP, #+14]
        MOVS     R0,#+1
        STRB     R0,[SP, #+13]
        STRB     R0,[SP, #+12]
        ADD      R0,SP,#+12
          CFI FunCall AppS2wHal_NetTcpServer
        BL       AppS2wHal_NetTcpServer
// 3153     if (status != S2W_SUCCESS)
        CBNZ.N   R0,??AppS2wCmd_Nstcp_2
// 3154     {
// 3155         return status;
// 3156     }
// 3157 	AppS2wHal_TcpSrvMaxConSet(cid,maxConn);
        LDR      R1,[SP, #+4]
        LDRB     R0,[SP, #+8]
          CFI FunCall AppS2wHal_TcpSrvMaxConSet
        BL       AppS2wHal_TcpSrvMaxConSet
// 3158 
// 3159     AppS2wProcess_StatusNotify(S2W_CON_SUCCESS, cid);
        BL       ?Subroutine119
// 3160     return status;
??CrossCallReturnLabel_569:
        MOVS     R0,#+0
??AppS2wCmd_Nstcp_2:
        ADD      SP,SP,#+76
          CFI CFA R13+4
        POP      {PC}             ;; return
          CFI EndBlock cfiBlock30
// 3161 }

        SECTION `.text`:CODE:NOROOT(1)
          CFI Block cfiCond31 Using cfiCommon0
          CFI Function AppS2wCmd_Nstcp
          CFI Conditional ??CrossCallReturnLabel_569
          CFI R14 Frame(CFA, -4)
          CFI CFA R13+80
          CFI Block cfiCond32 Using cfiCommon0
          CFI (cfiCond32) Function AppS2wCmd_Ncudp
          CFI (cfiCond32) Conditional ??CrossCallReturnLabel_568
          CFI (cfiCond32) R14 Frame(CFA, -4)
          CFI (cfiCond32) CFA R13+80
          CFI Block cfiPicker33 Using cfiCommon1
          CFI (cfiPicker33) NoFunction
          CFI (cfiPicker33) Picker
        THUMB
?Subroutine119:
        LDRB     R1,[SP, #+8]
          CFI Block cfiCond34 Using cfiCommon0
          CFI (cfiCond34) Function AppS2wCmd_Nctcp
          CFI (cfiCond34) Conditional ??CrossCallReturnLabel_567
          CFI (cfiCond34) R14 Frame(CFA, -4)
          CFI (cfiCond34) CFA R13+72
          CFI Block cfiCond35 Using cfiCommon0
          CFI (cfiCond35) Function AppS2wCmd_Nsudp
          CFI (cfiCond35) Conditional ??CrossCallReturnLabel_566
          CFI (cfiCond35) R14 Frame(CFA, -4)
          CFI (cfiCond35) CFA R13+72
??Subroutine119_0:
        MOVS     R0,#+7
          CFI FunCall AppS2wCmd_Nstcp AppS2wProcess_StatusNotify
          CFI FunCall AppS2wCmd_Ncudp AppS2wProcess_StatusNotify
          CFI FunCall AppS2wCmd_Nctcp AppS2wProcess_StatusNotify
          CFI FunCall AppS2wCmd_Nsudp AppS2wProcess_StatusNotify
        B.W      AppS2wProcess_StatusNotify
          CFI EndBlock cfiCond31
          CFI EndBlock cfiCond32
          CFI EndBlock cfiPicker33
          CFI EndBlock cfiCond34
          CFI EndBlock cfiCond35
// 3162 
// 3163 /**
// 3164  ******************************************************************
// 3165  * @ingroup S2w-Application
// 3166  * Process AT+NSUDP command.
// 3167  * @param ptr Pointer to the user input string.
// 3168  * @return status, S2W_SUCCESS or S2W_FAILURE.
// 3169  ******************************************************************/

        SECTION `.text`:CODE:NOROOT(1)
          CFI Block cfiBlock36 Using cfiCommon0
          CFI Function AppS2wCmd_Nsudp
        THUMB
// 3170 PUBLIC UINT8
// 3171 AppS2wCmd_Nsudp(UINT8 *ptr)
// 3172 {
AppS2wCmd_Nsudp:
        PUSH     {LR}
          CFI R14 Frame(CFA, -4)
          CFI CFA R13+4
// 3173     S2W_NETDATA_T peerData;
// 3174     UINT8 status;
// 3175     UINT32 port;
// 3176     UINT8 cid;
// 3177 
// 3178     if (s2wIsAutoconnected)
        LDR.W    R1,??DataTable393_1
        LDRB     R1,[R1, #+0]
        SUB      SP,SP,#+68
          CFI CFA R13+72
        CBNZ.N   R1,??AppS2wCmd_Nsudp_0
// 3179     {
// 3180         return S2W_EINVAL;
// 3181     }
// 3182     if(s2wLinkState == S2W_LINK_STATE_DISCONNECTED)
        LDR.W    R1,??DataTable393_2
        LDRB     R1,[R1, #+0]
        CBNZ.N   R1,??AppS2wCmd_Nsudp_1
// 3183     {
// 3184         return S2W_LINK_LOST_EVT;
        MOVS     R0,#+9
        B.N      ??AppS2wCmd_Nsudp_2
// 3185     }
// 3186 
// 3187     status = AppS2wParse_Int(ptr, &port);
// 3188     if (status != S2W_SUCCESS || !is_valid_port(port))
??AppS2wCmd_Nsudp_1:
        BL       ?Subroutine51
??CrossCallReturnLabel_307:
        CBNZ.N   R0,??AppS2wCmd_Nsudp_0
        LDR      R0,[SP, #+0]
        CBZ.N    R0,??AppS2wCmd_Nsudp_0
        CMP      R0,#+65536
        BCC.N    ??AppS2wCmd_Nsudp_3
// 3189     {
// 3190         return S2W_EINVAL;
??AppS2wCmd_Nsudp_0:
        MOVS     R0,#+2
        B.N      ??AppS2wCmd_Nsudp_2
// 3191     }
// 3192     peerData.port = port;
??AppS2wCmd_Nsudp_3:
        STRH     R0,[SP, #+10]
// 3193     peerData.proto = S2W_NETDATA_PROTO_UDP;
// 3194     peerData.mode = S2W_NETDATA_MODE_SERVER;
// 3195 
// 3196     status = AppS2wHal_NetUdpServer(&peerData, &cid);
        ADD      R1,SP,#+4
        MOVS     R0,#+0
        STRB     R0,[SP, #+9]
        MOVS     R0,#+1
        STRB     R0,[SP, #+8]
        ADD      R0,SP,#+8
          CFI FunCall AppS2wHal_NetUdpServer
        BL       AppS2wHal_NetUdpServer
// 3197     if (status != S2W_SUCCESS)
        CBNZ.N   R0,??AppS2wCmd_Nsudp_2
// 3198     {
// 3199         return status;
// 3200     }
// 3201 
// 3202     AppS2wProcess_StatusNotify(S2W_CON_SUCCESS, cid);
        LDRB     R1,[SP, #+4]
        BL       ??Subroutine119_0
// 3203     return status;
??CrossCallReturnLabel_566:
        MOVS     R0,#+0
??AppS2wCmd_Nsudp_2:
        ADD      SP,SP,#+68
          CFI CFA R13+4
        POP      {PC}             ;; return
          CFI EndBlock cfiBlock36
// 3204 }

        SECTION `.text`:CODE:NOROOT(2)
        SECTION_TYPE SHT_PROGBITS, 0
        DATA
??DataTable384:
        DC8      "%x\t"

        SECTION `.text`:CODE:NOROOT(2)
        SECTION_TYPE SHT_PROGBITS, 0
        DATA
??DataTable384_1:
        DC32     AppMcu_RespTimeoutCb
// 3205 
// 3206 /**
// 3207  ******************************************************************
// 3208  * @ingroup S2w-Application
// 3209  * Process AT+SETSOCKOPT command.
// 3210  * @param ptr Pointer to the user input string.
// 3211  * @return status, S2W_SUCCESS ,S2W_FAILURE or S2W_EINVAL.
// 3212  ******************************************************************/

        SECTION `.text`:CODE:NOROOT(1)
          CFI Block cfiBlock37 Using cfiCommon0
          CFI Function AppS2wCmd_SetSockOp
        THUMB
// 3213 PUBLIC UINT8
// 3214 AppS2wCmd_SetSockOp(UINT8 *ptr)
// 3215 {
AppS2wCmd_SetSockOp:
        PUSH     {R0,LR}
          CFI R14 Frame(CFA, -4)
          CFI CFA R13+8
        SUB      SP,SP,#+24
          CFI CFA R13+32
// 3216     UINT8 status;
// 3217     S2W_SOCK_OP_T params;
// 3218     UINT8 *p;
// 3219 
// 3220 
// 3221     p = AppS2wParse_NextParamGet(&ptr);
        BL       ?Subroutine33
// 3222     if (!p)
??CrossCallReturnLabel_127:
        CBZ.N    R0,??AppS2wCmd_SetSockOp_0
// 3223     {
// 3224         return S2W_EINVAL;
// 3225     }
// 3226     AppS2wParse_Int(p, &params.cid);
        BL       ?Subroutine51
// 3227 
// 3228     p = AppS2wParse_NextParamGet(&ptr);
??CrossCallReturnLabel_306:
        BL       ?Subroutine33
// 3229     if (!p)
??CrossCallReturnLabel_126:
        CBZ.N    R0,??AppS2wCmd_SetSockOp_0
// 3230     {
// 3231         return S2W_EINVAL;
// 3232     }
// 3233     AppS2wParse_Int(p, &params.type);
        BL       ?Subroutine52
// 3234 
// 3235     p = AppS2wParse_NextParamGet(&ptr);
??CrossCallReturnLabel_330:
        BL       ?Subroutine33
// 3236     if (!p)
??CrossCallReturnLabel_125:
        CBZ.N    R0,??AppS2wCmd_SetSockOp_0
// 3237     {
// 3238         return S2W_EINVAL;
// 3239     }
// 3240 
// 3241     status = AppS2wParse_Hex(p, &params.param);
        ADD      R1,SP,#+8
          CFI FunCall AppS2wParse_Hex
        BL       AppS2wParse_Hex
// 3242     if (status != S2W_SUCCESS)
        CBNZ.N   R0,??AppS2wCmd_SetSockOp_1
// 3243     {
// 3244     	return status;
// 3245     }
// 3246 
// 3247     p = AppS2wParse_NextParamGet(&ptr);
        BL       ?Subroutine33
// 3248     if (!p)
??CrossCallReturnLabel_124:
        CBZ.N    R0,??AppS2wCmd_SetSockOp_0
// 3249     {
// 3250         return S2W_EINVAL;
// 3251     }
// 3252     AppS2wParse_Int(p, &params.paramValue);
        BL       ?Subroutine53
// 3253 
// 3254     p = AppS2wParse_NextParamGet(&ptr);
??CrossCallReturnLabel_340:
        BL       ?Subroutine33
// 3255     if (!p)
??CrossCallReturnLabel_123:
        CBNZ.N   R0,??AppS2wCmd_SetSockOp_2
// 3256     {
// 3257         return S2W_EINVAL;
??AppS2wCmd_SetSockOp_0:
        MOVS     R0,#+2
        B.N      ??AppS2wCmd_SetSockOp_1
// 3258     }
// 3259     AppS2wParse_Int(p, &params.paramSize);
??AppS2wCmd_SetSockOp_2:
        BL       ?Subroutine54
// 3260 
// 3261     status = AppS2wHal_SockOpSet(&params);
// 3262 
// 3263     return status;
??CrossCallReturnLabel_346:
        ADD      R0,SP,#+0
          CFI FunCall AppS2wHal_SockOpSet
        BL       AppS2wHal_SockOpSet
??AppS2wCmd_SetSockOp_1:
        ADD      SP,SP,#+28
          CFI CFA R13+4
        POP      {PC}             ;; return
          CFI EndBlock cfiBlock37
// 3264 }
// 3265 
// 3266 
// 3267 
// 3268 
// 3269 
// 3270 /**
// 3271  ******************************************************************
// 3272  * @ingroup S2w-Application
// 3273  * @brief Process the AT+ERRCOUNT command
// 3274  * @param ptr Pointer to the user input string.
// 3275  * @return status.
// 3276  ******************************************************************/

        SECTION `.text`:CODE:NOROOT(1)
          CFI Block cfiBlock38 Using cfiCommon0
          CFI Function AppS2wCmd_ErrorCount
          CFI NoCalls
        THUMB
// 3277 PUBLIC UINT8
// 3278 AppS2wCmd_ErrorCount(UINT8 *ptr)
// 3279 {
// 3280     UINT8 status = S2W_EINVAL;
// 3281     //S2W_ERROR_COUNT_T errorParam;
// 3282 
// 3283 
// 3284     if (ptr[0] == '?' && ptr[1] == '\0')
AppS2wCmd_ErrorCount:
        LDRB     R2,[R0, #+0]
        MOVS     R1,#+2
        CMP      R2,#+63
        ITTT     EQ 
        LDRBEQ   R0,[R0, #+1]
        CMPEQ    R0,#+0
        MOVEQ    R1,#+0
// 3285     {
// 3286         /* print the error counts */
// 3287         //S2w_Printf("\r\nAPP-WD     :%d\r\nWLAN-WD    :%d\r\nWLAN-ABORT :%d\r\nWLAN-ASSERT:%d\r\nAPP-SW-RST :%d\r\nWLAN-SW-RST:%d\r\n",
// 3288           //         appRtcMemData.err.appWdCount,appRtcMemData.err.wlanWdCount,
// 3289             //       appRtcMemData.err.wlanAbortCount,appRtcMemData.err.wlanAssertCount,
// 3290               //     appRtcMemData.err.appSwResetCount,appRtcMemData.err.wlanSwResetCount);
// 3291         status = S2W_SUCCESS;
// 3292     }
// 3293     return status;
        MOV      R0,R1
        BX       LR               ;; return
          CFI EndBlock cfiBlock38
// 3294 }
// 3295 
// 3296 
// 3297 
// 3298 /**
// 3299  ******************************************************************
// 3300  * @ingroup S2w-Application
// 3301  * @brief Close all connections and disassociate.
// 3302  * @retval S2W_SUCCESS - operation successful.
// 3303  * @retval S2W_EINVAL  - operation failure-invalid command.
// 3304  ******************************************************************/

        SECTION `.text`:CODE:NOROOT(1)
          CFI Block cfiBlock39 Using cfiCommon0
          CFI Function AppS2w_HangUp
        THUMB
// 3305 PUBLIC UINT8
// 3306 AppS2w_HangUp(VOID)
// 3307 {
AppS2w_HangUp:
        PUSH     {R0-R6,LR}
          CFI R14 Frame(CFA, -4)
          CFI R6 Frame(CFA, -8)
          CFI R5 Frame(CFA, -12)
          CFI R4 Frame(CFA, -16)
          CFI CFA R13+32
// 3308 	UINT8 status=S2W_FAILURE;
// 3309     s2wIsAutoconnected = 0;
        BL       ?Subroutine23
// 3310 
// 3311     /* close all connections
// 3312      */
// 3313     AppS2wHal_NetCloseAll(0);
// 3314     curCid = INVALID_CID;
??CrossCallReturnLabel_52:
        LDR.W    R0,??DataTable395
// 3315     /* call the hal disassociate function
// 3316      */
// 3317 	s2wappMainTaskCtxt->wlanRespHndl= GsnSoftTmr_Start(&s2wappMainTaskCtxt->wlanRespTmr,
// 3318 					   GSN_SOFT_TMR_ONESHOT,0,
// 3319 						SEC_TO_SYSTIME(S2W_WLAN_RESPTIMEOUT),
// 3320 					  ( GSN_SOFT_TMR_CBR_T )AppS2w_WlanRespTmrCb,NULL);
        LDR.W    R4,??DataTable395_1
        MOVS     R1,#+255
        STRB     R1,[R0, #+0]
        MOVS     R0,#+0
        STR      R0,[SP, #+12]
        MOVS     R1,#+0
        LDR.W    R0,??DataTable398
        STR      R0,[SP, #+8]
        MOV      R2,R1
        MOV      R0,#+4915200
        STRD     R0,R1,[SP, #+0]
        MOV      R3,R1
        LDR      R0,[R4, #+0]
        ADD      R0,R0,#+33024
        ADDS     R0,R0,#+160
          CFI FunCall GsnSoftTmr_Start
        BL       GsnSoftTmr_Start
        LDR      R1,[R4, #+0]
        MOVW     R5,#+33216
        STR      R0,[R5, R1]
// 3321     status=AppS2wHal_Disassociate(0);	
        MOVS     R0,#+0
          CFI FunCall AppS2wHal_Disassociate
        BL       AppS2wHal_Disassociate
        MOV      R6,R0
// 3322 	GsnSoftTmr_Stop(s2wappMainTaskCtxt->wlanRespHndl);
        LDR      R0,[R4, #+0]
        LDR      R0,[R5, R0]
          CFI FunCall GsnSoftTmr_Stop
        BL       GsnSoftTmr_Stop
// 3323 	return status;
        MOV      R0,R6
        ADD      SP,SP,#+16
          CFI CFA R13+16
        POP      {R4-R6,PC}       ;; return
          CFI EndBlock cfiBlock39
// 3324 }
// 3325 
// 3326 
// 3327 /**
// 3328  ******************************************************************
// 3329  * @ingroup S2w-Application
// 3330  * @brief Display the scan result in the format, "SSID,BSSID,Channel,RSSI,Mode".
// 3331  *   This function should be called from HAL function for scan,
// 3332  *   after finishing the scan.
// 3333  * @param ssid    - IN SSID of network.
// 3334  * @param ssidLen - IN SSID length.
// 3335  * @param bssid   - IN BSSID of network.
// 3336  * @param channel - IN Channel.
// 3337  * @param rssi    - IN RSSI.
// 3338  * @param adhoc   - IN 802.11 operating mode.
// 3339  * @return None.
// 3340  ******************************************************************/

        SECTION `.text`:CODE:NOROOT(1)
          CFI Block cfiBlock40 Using cfiCommon0
          CFI Function AppS2wScanResult_Print
        THUMB
// 3341 PUBLIC VOID
// 3342 AppS2wScanResult_Print(UINT8 *ssid, UINT8 ssidLen, UINT8 *bssid,
// 3343         UINT8 channel, UINT8 rssi,  UINT8 adhoc)
// 3344 {
AppS2wScanResult_Print:
        PUSH     {R1-R9,LR}
          CFI R14 Frame(CFA, -4)
          CFI R9 Frame(CFA, -8)
          CFI R8 Frame(CFA, -12)
          CFI R7 Frame(CFA, -16)
          CFI R6 Frame(CFA, -20)
          CFI R5 Frame(CFA, -24)
          CFI R4 Frame(CFA, -28)
          CFI CFA R13+40
        MOV      R7,R0
        MOV      R8,R1
        LDR      R4,[SP, #+40]
        LDR      R5,[SP, #+44]
// 3345     UINT8 len=0;
// 3346     static const char prefix[] = "\r\n";
// 3347 
// 3348     /*print format --> bssid  ssid  channel  type   Security  RSSI
// 3349      */
// 3350     AppS2wHal_CharNPut(prefix, sizeof(prefix) - 1);
        ADR.W    R0,??prefix
        MOV      R6,R2
        MOV      R9,R3
        MOVS     R1,#+2
          CFI FunCall AppS2wHal_CharNPut
        BL       AppS2wHal_CharNPut
// 3351     S2w_Printf(" %02x:%02x:%02x:%02x:%02x:%02x, ",
// 3352            bssid[0], bssid[1], bssid[2], bssid[3], bssid[4], bssid[5]);
        BL       ?Subroutine10
??CrossCallReturnLabel_15:
        LDRB     R1,[R6, #+0]
        ADR.W    R0,`?<Constant " %02x:%02x:%02x:%02x:...">`
          CFI FunCall S2w_Printf
        BL       S2w_Printf
// 3353 
// 3354     AppS2wHal_CharNPut(ssid, ssidLen);
        MOV      R1,R8
        MOV      R0,R7
          CFI FunCall AppS2wHal_CharNPut
        BL       AppS2wHal_CharNPut
// 3355 
// 3356     for(len = (32- ssidLen);len>0;len--)
        RSB      R7,R8,#+32
        ADR.W    R8,??DataTable388  ;; " "
        B.N      ??AppS2wScanResult_Print_0
// 3357     {
// 3358         S2w_Printf(" ");
??AppS2wScanResult_Print_1:
        MOV      R0,R8
          CFI FunCall S2w_Printf
        BL       S2w_Printf
// 3359     }
        SUBS     R7,R7,#+1
??AppS2wScanResult_Print_0:
        UXTB     R7,R7
        CMP      R7,#+0
        BNE.N    ??AppS2wScanResult_Print_1
// 3360     S2w_Printf(", %02d", channel);
        MOV      R1,R9
        ADR.W    R0,`?<Constant ", %02d">`
          CFI FunCall S2w_Printf
        BL       S2w_Printf
// 3361     if(adhoc)
        CMP      R5,#+0
        ITE      NE 
        ADRNE.W  R0,`?<Constant ",  ADHOC ">`
        ADREQ.W  R0,`?<Constant ",  INFRA ">`
// 3362     {
// 3363         S2w_Printf(",  ADHOC ");
// 3364     }
// 3365     else
// 3366     {
// 3367         S2w_Printf(",  INFRA ");
          CFI FunCall S2w_Printf
        BL       S2w_Printf
// 3368     }
// 3369 
// 3370     S2w_Printf(", %d ,",(signed char)rssi);
        SXTB     R1,R4
        ADD      SP,SP,#+12
          CFI CFA R13+28
        POP      {R4-R9,LR}
          CFI R4 SameValue
          CFI R5 SameValue
          CFI R6 SameValue
          CFI R7 SameValue
          CFI R8 SameValue
          CFI R9 SameValue
          CFI R14 SameValue
          CFI CFA R13+0
        ADR.W    R0,`?<Constant ", %d ,">`
          CFI FunCall S2w_Printf
        B.W      S2w_Printf
          CFI EndBlock cfiBlock40
// 3371 }

        SECTION `.text`:CODE:NOROOT(2)
        SECTION_TYPE SHT_PROGBITS, 0
        DATA
??DataTable386:
        DC32     s2wSyncSemID

        SECTION `.text`:CODE:NOROOT(2)
        SECTION_TYPE SHT_PROGBITS, 0
        DATA
??prefix:
        DC8 "\015\012"
        DC8 0

        SECTION `.text`:CODE:NOROOT(2)
        SECTION_TYPE SHT_PROGBITS, 0
        DATA
`?<Constant " %02x:%02x:%02x:%02x:...">`:
        DC8 " %02x:%02x:%02x:%02x:%02x:%02x, "
        DC8 0, 0, 0
// 3372 
// 3373 
// 3374 
// 3375 
// 3376 
// 3377 
// 3378 #ifndef IOT_APP_ENABLE
// 3379 
// 3380 /**
// 3381  ******************************************************************
// 3382  * @ingroup S2w-Application
// 3383  * @brief Process the AT+WM Command.
// 3384  *   This function check the validy of the parameter passed and set the
// 3385  *   wireless mode as per the parameter.
// 3386  * @param ptr Pointer to the user input string.
// 3387  * @return S2W_SUCCESS - operation successful.
// 3388  * @retval S2W_EINVAL  - operation failure-invalid command.
// 3389  ******************************************************************/

        SECTION `.text`:CODE:NOROOT(1)
          CFI Block cfiBlock41 Using cfiCommon0
          CFI Function AppS2wCmd_Wmode
        THUMB
// 3390 PRIVATE UINT8
// 3391 AppS2wCmd_Wmode(UINT8 *ptr)
// 3392 {
AppS2wCmd_Wmode:
        PUSH     {R0,R4-R11,LR}
          CFI R14 Frame(CFA, -4)
          CFI R11 Frame(CFA, -8)
          CFI R10 Frame(CFA, -12)
          CFI R9 Frame(CFA, -16)
          CFI R8 Frame(CFA, -20)
          CFI R7 Frame(CFA, -24)
          CFI R6 Frame(CFA, -28)
          CFI R5 Frame(CFA, -32)
          CFI R4 Frame(CFA, -36)
          CFI CFA R13+40
        SUB      SP,SP,#+32
          CFI CFA R13+72
// 3393     UINT8 status;
// 3394     UINT32 mode,interval,noStations,dtimPeriod;
// 3395 	UINT32 inactivityTimeoutInSec,grpKeyUpdtIntrvl;
// 3396     UINT8 *p;
// 3397     GSN_WIF_WLAN_NW_TYPE_T prevWlanNwType;
// 3398 
// 3399 
// 3400     /* check the validity of the parameter passed
// 3401      */
// 3402     p = AppS2wParse_NextParamGet(&ptr);
        BL       ?Subroutine37
// 3403     if (!p)
??CrossCallReturnLabel_195:
        CMP      R0,#+0
        BEQ.N    ??AppS2wCmd_Wmode_0
// 3404     {
// 3405         return S2W_EINVAL;
// 3406     }
// 3407 
// 3408     status = AppS2wParse_Int(p, &mode);
        BL       ?Subroutine51
// 3409     if (status != S2W_SUCCESS)
??CrossCallReturnLabel_305:
        CMP      R0,#+0
        BNE.N    ??AppS2wCmd_Wmode_1
// 3410     {
// 3411         return status;
// 3412     }
// 3413     if(mode > S2W_WLANDATA_MODE_PROV_AP || S2W_WLANDATA_MODE_ADHOC == mode )
        LDR      R0,[SP, #+0]
        CMP      R0,#+7
        BCS.N    ??AppS2wCmd_Wmode_2
        CMP      R0,#+3
??AppS2wCmd_Wmode_0:
        BEQ.W    ??AppS2wCmd_Wmode_3
// 3414     {
// 3415         return S2W_EINVAL;
// 3416     }
// 3417     // remap the mode
// 3418     if(mode == 0)
        CBNZ.N   R0,??AppS2wCmd_Wmode_4
// 3419     {
// 3420         mode = S2W_WLANDATA_MODE_INFRA;
        MOVS     R0,#+1
        STR      R0,[SP, #+0]
??AppS2wCmd_Wmode_4:
        MOVW     R4,#+33224
        LDR.W    R7,??DataTable393
        LDR      R0,[SP, #+0]
        LDRB     R1,[R7, #+4]
        LDR.W    R6,??DataTable395_1
        MOVW     R5,#+33221
        MOVW     R9,#+33222
        MOV      R10,#+360
        MOVW     R8,#+33220
        CMP      R0,R1
        BNE.N    ??AppS2wCmd_Wmode_5
// 3421     }
// 3422 	if(mode == s2wCurrent.mode)
// 3423 	{			
// 3424 		if((mode == S2W_WLANDATA_MODE_AP) || (mode == S2W_WLANDATA_MODE_PROV_AP))
        CMP      R0,#+2
        IT       NE 
        CMPNE    R0,#+6
        BNE.N    ??AppS2wCmd_Wmode_5
// 3425 		{
// 3426 			s2wappMainTaskCtxt->bcastSsid = S2W_DEFAULT_AP_SSID_BROADCAST;
        LDR      R0,[R6, #+0]
        MOVS     R1,#+0
        STRB     R1,[R8, R0]
// 3427 			s2wappMainTaskCtxt->inactivityTimeoutInSec= 360;
// 3428 			s2wappMainTaskCtxt->dtimPeriod = 3;
        MOVS     R1,#+3
        LDR      R0,[R6, #+0]
        STRH     R10,[R9, R0]
        STRB     R1,[R5, R0]
// 3429 		    s2wappMainTaskCtxt->grpKeyUpdtIntrvl= 3600;
        MOV      R1,#+3600
        LDR      R0,[R6, #+0]
        STRH     R1,[R4, R0]
// 3430 		    GsnWdd_SetGrpKeyUpdateTime(&s2wappMainTaskCtxt->if0.wddCtx, s2wappMainTaskCtxt->grpKeyUpdtIntrvl);
        ADD      R0,R0,#+3808
          CFI FunCall GsnWdd_SetGrpKeyUpdateTime
        BL       GsnWdd_SetGrpKeyUpdateTime
// 3431 		}
// 3432 	}
// 3433 
// 3434     /* if the mode selected is 2(AP) accept the next param(beacon interval )also */
// 3435     prevWlanNwType = s2wappMainTaskCtxt->if0.macIfType;
??AppS2wCmd_Wmode_5:
        LDR      R0,[R6, #+0]
// 3436     if((mode == S2W_WLANDATA_MODE_AP) || (mode == S2W_WLANDATA_MODE_PROV_AP))
        LDR      R1,[SP, #+0]
        LDRB     R11,[R0, #+2508]
        CMP      R1,#+2
        IT       NE 
        CMPNE    R1,#+6
        BNE.W    ??AppS2wCmd_Wmode_6
// 3437     {
// 3438         s2wappMainTaskCtxt->bcastSsid = S2W_DEFAULT_AP_SSID_BROADCAST;
        MOVS     R1,#+0
        STRB     R1,[R8, R0]
// 3439 		s2wCurrent.lmtdApConf.noStations = S2W_DEFAULT_AP_SUPPORTED_STATIONS;
        MOVS     R0,#+64
        STRB     R0,[R7, #+647]
// 3440         p = AppS2wParse_NextParamGet(&ptr);
        BL       ?Subroutine37
// 3441         if ((p) && (*p != '\0'))
??CrossCallReturnLabel_194:
        CMP      R0,#+0
        ITT      NE 
        LDRBNE   R1,[R0, #+0]
        CMPNE    R1,#+0
        BEQ.N    ??AppS2wCmd_Wmode_7
// 3442         {
// 3443             status = AppS2wParse_Int(p, &interval);
        BL       ?Subroutine56
// 3444             if (status != S2W_SUCCESS)
??CrossCallReturnLabel_357:
        CMP      R0,#+0
        BNE.N    ??AppS2wCmd_Wmode_1
// 3445             {
// 3446                 return status;
// 3447             }
// 3448             if((interval < 50) || (interval > 1500))
        LDR      R0,[SP, #+20]
        SUBS     R0,R0,#+50
        MOVW     R1,#+1451
        CMP      R0,R1
??AppS2wCmd_Wmode_2:
        BCS.W    ??AppS2wCmd_Wmode_3
// 3449             {
// 3450                 return S2W_EINVAL;
// 3451             }
// 3452             s2wCurrent.lmtdApConf.beaconInterval = interval;
        LDR      R0,[SP, #+20]
        STRH     R0,[R7, #+650]
// 3453         }
// 3454         p = AppS2wParse_NextParamGet(&ptr);
??AppS2wCmd_Wmode_7:
        BL       ?Subroutine37
// 3455         if ((p) && (*p != '\0'))
??CrossCallReturnLabel_193:
        CMP      R0,#+0
        ITT      NE 
        LDRBNE   R1,[R0, #+0]
        CMPNE    R1,#+0
        BEQ.N    ??AppS2wCmd_Wmode_8
// 3456         {
// 3457             status = AppS2wParse_Boolean(p, &s2wappMainTaskCtxt->bcastSsid);
        LDR      R1,[R6, #+0]
        ADD      R1,R8,R1
          CFI FunCall AppS2wParse_Boolean
        BL       AppS2wParse_Boolean
// 3458             if (status != S2W_SUCCESS)
        CMP      R0,#+0
??AppS2wCmd_Wmode_1:
        BNE.W    ??AppS2wCmd_Wmode_9
// 3459             {
// 3460                 return status;
// 3461             }
// 3462         }
// 3463 		p = AppS2wParse_NextParamGet(&ptr);
??AppS2wCmd_Wmode_8:
        BL       ?Subroutine37
// 3464         if ((p) && (*p != '\0'))
??CrossCallReturnLabel_192:
        CMP      R0,#+0
        ITT      NE 
        LDRBNE   R1,[R0, #+0]
        CMPNE    R1,#+0
        BEQ.N    ??AppS2wCmd_Wmode_10
// 3465         {
// 3466             status = AppS2wParse_Int(p, &noStations);
// 3467             if (status != S2W_SUCCESS || noStations == 0)
        BL       ?Subroutine54
??CrossCallReturnLabel_345:
        CMP      R0,#+0
        BNE.N    ??AppS2wCmd_Wmode_11
        LDR      R0,[SP, #+16]
        CMP      R0,#+0
        BEQ.N    ??AppS2wCmd_Wmode_12
// 3468             {
// 3469                 return S2W_EINVAL;
// 3470             }
// 3471 			s2wCurrent.lmtdApConf.noStations = (UINT8)noStations;
        STRB     R0,[R7, #+647]
// 3472         }
// 3473 		s2wappMainTaskCtxt->dtimPeriod = 3;
??AppS2wCmd_Wmode_10:
        LDR      R0,[R6, #+0]
        MOVS     R1,#+3
        STRB     R1,[R5, R0]
// 3474 		p = AppS2wParse_NextParamGet(&ptr);
        BL       ?Subroutine37
// 3475 		if ((p) && (*p != '\0'))
??CrossCallReturnLabel_191:
        CMP      R0,#+0
        ITT      NE 
        LDRBNE   R1,[R0, #+0]
        CMPNE    R1,#+0
        BEQ.N    ??AppS2wCmd_Wmode_13
// 3476 		{
// 3477 			status = AppS2wParse_Int(p, &dtimPeriod);
