///////////////////////////////////////////////////////////////////////////////
//                                                                            /
// IAR ANSI C/C++ Compiler V6.50.6.4896/W32 for ARM     19/Nov/2015  14:31:03 /
// Copyright 1999-2013 IAR Systems AB.                                        /
//                                                                            /
//    Cpu mode     =  thumb                                                   /
//    Endian       =  little                                                  /
//    Source file  =  E:\Gainspan\gs2011mxx_SDK_s2w_tls_tlslp_5.1.5_GA\userap /
//                    ps_mqtt_QoS2\s2w\src\parser\s2w_misc_command.c          /
//    Command line =  E:\Gainspan\gs2011mxx_SDK_s2w_tls_tlslp_5.1.5_GA\userap /
//                    ps_mqtt_QoS2\s2w\src\parser\s2w_misc_command.c -D       /
//                    TX_ENABLE_IAR_LIBRARY_SUPPORT -D IAR -D                 /
//                    FIXED_ROM_BUILD -D RUN_ALL_FROM_FLASH -D TM_USE_HTTPD   /
//                    -D S2W_DNS_CLIENT -D NX_INCLUDE_USER_DEFINE_FILE -D     /
//                    S2W_WEB_FS_AVAILABLE -D S2W_EXTFLASH_DRIVER_TEST -D     /
//                    S2W_PWM_SUPPORT -D S2W_MEM_ACCESS -D                    /
//                    S2W_FORCE_UART_PORT -D S2W_EXT_FLASH_FWUP_PUSH_METHOD   /
//                    -D S2W_NCM_SUPPORT_ENABLE -D                            /
//                    S2W_SECURITY_ENTERPRISE_PEAP_V0_AVAILABLE -D            /
//                    S2W_EXT_FLASH_FWUP_PULL_METHOD -D                       /
//                    S2W_SECURITY_ENTERPRISE_TLS_AVAILABLE -D                /
//                    S2W_DNS_SERVER_ENABLE -D ADK_OTAFU -D S2W_GSLINK_RAW    /
//                    -D S2W_GSLINK_XML -D S2W_SECURITY_ENTERPRISE_PEAP_V1_AV /
//                    AILABLE -D S2W_PING_TRACE -D S2W_RF_TEST -D             /
//                    S2W_SSL_CLIENT_SUPPORT -D S2W_DEFAULT_UART_PARITY=0 -D  /
//                    S2W_DHCP_SERVER_ENABLE -D S2W_SECURITY_WPS_ENABLE -D    /
//                    ADK_PROV_CONFIG_LIMITED_AP -D S2W_WEB_SERVER -D         /
//                    ADK_PROV -D S2W_DEFAULT_UART_SW_FLOW=0 -D               /
//                    S2W_FILE_UPLOAD_API -D S2W_COAP_SUPPORT -D              /
//                    S2W_HTTPD_SSLCERT_UPLOAD -D                             /
//                    S2W_DEFAULT_UART_STOP_BITS=0 -D S2W_FACT_IMAGE_REQ -D   /
//                    S2W_DEFAULT_UART_BAUD=9600 -D S2W_ASYNC_MSG -D          /
//                    S2W_HTTPS_SUPPORT -D S2W_DEFAULT_UART_HW_FLOW=0 -D      /
//                    S2W_SECURITY_ENTERPRISE_FAST_GTC_AVAILABLE -D           /
//                    S2W_WEB_PROV -D S2W_UNASSOC_TXRX_SUPPORT -D S2W_SNTP    /
//                    -D S2W_UART_ENABLE -D S2W_GSLINK_XMLNESTED_PARSER -D    /
//                    S2W_GSLINK -D S2W_SECURITY_ENTERPRISE_TTLS_AVAILABLE    /
//                    -D S2W_ADC_SUPPORT -D S2W_HTTPC_SUPPORT -D              /
//                    S2W_SECURITY_ENTERPRISE_FAST_MSCHAPV2_AVAILABLE -D      /
//                    S2W_SSL_SERVER_SUPPORT -D ADK_PROV_CONFIG_CLIENT -D     /
//                    S2W_DEFAULT_UART_BITS_PER_CHAR=3 -D S2W_MDNS_ENABLE     /
//                    -lC E:\Gainspan\gs2011mxx_SDK_s2w_tls_tlslp_5.1.5_GA\us /
//                    erapps_mqtt_QoS2\s2w\build\Debug\List\ -lA              /
//                    E:\Gainspan\gs2011mxx_SDK_s2w_tls_tlslp_5.1.5_GA\userap /
//                    ps_mqtt_QoS2\s2w\build\Debug\List\ --diag_suppress      /
//                    Pa050,Pe231,Pe177 -o E:\Gainspan\gs2011mxx_SDK_s2w_tls_ /
//                    tlslp_5.1.5_GA\userapps_mqtt_QoS2\s2w\build\Debug\Obj\  /
//                    --debug --endian=little --cpu=Cortex-M3 -e --fpu=None   /
//                    --dlib_config "C:\Program Files (x86)\IAR               /
//                    Systems\Embedded Workbench                              /
//                    6.5\arm\INC\c\DLib_Config_Full.h" -I                    /
//                    E:\Gainspan\gs2011mxx_SDK_s2w_tls_tlslp_5.1.5_GA\userap /
//                    ps_mqtt_QoS2\s2w\build\..\..\..\geps\inc\ -I            /
//                    E:\Gainspan\gs2011mxx_SDK_s2w_tls_tlslp_5.1.5_GA\userap /
//                    ps_mqtt_QoS2\s2w\build\..\..\..\geps\inc\core\ -I       /
//                    E:\Gainspan\gs2011mxx_SDK_s2w_tls_tlslp_5.1.5_GA\userap /
//                    ps_mqtt_QoS2\s2w\build\..\..\..\geps\inc\drivers\ -I    /
//                    E:\Gainspan\gs2011mxx_SDK_s2w_tls_tlslp_5.1.5_GA\userap /
//                    ps_mqtt_QoS2\s2w\build\..\..\..\geps\inc\modules\ -I    /
//                    E:\Gainspan\gs2011mxx_SDK_s2w_tls_tlslp_5.1.5_GA\userap /
//                    ps_mqtt_QoS2\s2w\build\..\..\..\geps\inc\rtos\ -I       /
//                    E:\Gainspan\gs2011mxx_SDK_s2w_tls_tlslp_5.1.5_GA\userap /
//                    ps_mqtt_QoS2\s2w\build\..\..\..\geps\inc\netx\ -I       /
//                    E:\Gainspan\gs2011mxx_SDK_s2w_tls_tlslp_5.1.5_GA\userap /
//                    ps_mqtt_QoS2\s2w\build\..\..\..\geps\inc\netx\netx_bsd_ /
//                    layer\ -I E:\Gainspan\gs2011mxx_SDK_s2w_tls_tlslp_5.1.5 /
//                    _GA\userapps_mqtt_QoS2\s2w\build\..\..\..\geps\inc\main /
//                    \ -I E:\Gainspan\gs2011mxx_SDK_s2w_tls_tlslp_5.1.5_GA\u /
//                    serapps_mqtt_QoS2\s2w\build\..\..\..\geps\inc\fs\ -I    /
//                    E:\Gainspan\gs2011mxx_SDK_s2w_tls_tlslp_5.1.5_GA\userap /
//                    ps_mqtt_QoS2\s2w\build\..\..\..\geps\inc\fs\hcc\src\    /
//                    -I E:\Gainspan\gs2011mxx_SDK_s2w_tls_tlslp_5.1.5_GA\use /
//                    rapps_mqtt_QoS2\s2w\build\..\..\..\geps\inc\security\sr /
//                    c\ -I E:\Gainspan\gs2011mxx_SDK_s2w_tls_tlslp_5.1.5_GA\ /
//                    userapps_mqtt_QoS2\s2w\build\..\..\..\geps\inc\security /
//                    \hw_engine_if\ -I E:\Gainspan\gs2011mxx_SDK_s2w_tls_tls /
//                    lp_5.1.5_GA\userapps_mqtt_QoS2\s2w\build\..\..\..\geps\ /
//                    inc\security\wpa_if\ -I E:\Gainspan\gs2011mxx_SDK_s2w_t /
//                    ls_tlslp_5.1.5_GA\userapps_mqtt_QoS2\s2w\build\..\..\.. /
//                    \userlib\ncm\inc\ -I E:\Gainspan\gs2011mxx_SDK_s2w_tls_ /
//                    tlslp_5.1.5_GA\userapps_mqtt_QoS2\s2w\build\..\..\..\us /
//                    erlib\ -I E:\Gainspan\gs2011mxx_SDK_s2w_tls_tlslp_5.1.5 /
//                    _GA\userapps_mqtt_QoS2\s2w\build\..\inc\ctx\ -I         /
//                    E:\Gainspan\gs2011mxx_SDK_s2w_tls_tlslp_5.1.5_GA\userap /
//                    ps_mqtt_QoS2\s2w\build\..\inc\ -I                       /
//                    E:\Gainspan\gs2011mxx_SDK_s2w_tls_tlslp_5.1.5_GA\userap /
//                    ps_mqtt_QoS2\s2w\build\..\inc\main\ -I                  /
//                    E:\Gainspan\gs2011mxx_SDK_s2w_tls_tlslp_5.1.5_GA\userap /
//                    ps_mqtt_QoS2\s2w\build\..\inc\hal\ -I                   /
//                    E:\Gainspan\gs2011mxx_SDK_s2w_tls_tlslp_5.1.5_GA\userap /
//                    ps_mqtt_QoS2\s2w\build\..\inc\parser\ -I                /
//                    E:\Gainspan\gs2011mxx_SDK_s2w_tls_tlslp_5.1.5_GA\userap /
//                    ps_mqtt_QoS2\s2w\build\..\inc\config\ -I                /
//                    E:\Gainspan\gs2011mxx_SDK_s2w_tls_tlslp_5.1.5_GA\userap /
//                    ps_mqtt_QoS2\s2w\build\..\src\ -I                       /
//                    E:\Gainspan\gs2011mxx_SDK_s2w_tls_tlslp_5.1.5_GA\userap /
//                    ps_mqtt_QoS2\s2w\build\..\..\..\adk\otafu\inc\ -I       /
//                    E:\Gainspan\gs2011mxx_SDK_s2w_tls_tlslp_5.1.5_GA\userap /
//                    ps_mqtt_QoS2\s2w\build\..\..\..\adk\provisioning\inc\   /
//                    -I E:\Gainspan\gs2011mxx_SDK_s2w_tls_tlslp_5.1.5_GA\use /
//                    rapps_mqtt_QoS2\s2w\build\..\inc\mqtt\ -I               /
//                    E:\Gainspan\gs2011mxx_SDK_s2w_tls_tlslp_5.1.5_GA\userap /
//                    ps_mqtt_QoS2\s2w\build\..\src\mqtt\ -I                  /
//                    E:\Gainspan\gs2011mxx_SDK_s2w_tls_tlslp_5.1.5_GA\userap /
//                    ps_mqtt_QoS2\s2w\build\..\inc\one_wire\ -I              /
//                    E:\Gainspan\gs2011mxx_SDK_s2w_tls_tlslp_5.1.5_GA\userap /
//                    ps_mqtt_QoS2\s2w\build\..\src\one_wire\ -I              /
//                    E:\Gainspan\gs2011mxx_SDK_s2w_tls_tlslp_5.1.5_GA\userap /
//                    ps_mqtt_QoS2\s2w\build\..\inc\linked_list\ -I           /
//                    E:\Gainspan\gs2011mxx_SDK_s2w_tls_tlslp_5.1.5_GA\userap /
//                    ps_mqtt_QoS2\s2w\build\..\src\linked_list\ -I           /
//                    E:\Gainspan\gs2011mxx_SDK_s2w_tls_tlslp_5.1.5_GA\userap /
//                    ps_mqtt_QoS2\s2w\build\..\inc\mqtt_main\ -I             /
//                    E:\Gainspan\gs2011mxx_SDK_s2w_tls_tlslp_5.1.5_GA\userap /
//                    ps_mqtt_QoS2\s2w\build\..\src\mqtt_main\ -I             /
//                    E:\Gainspan\gs2011mxx_SDK_s2w_tls_tlslp_5.1.5_GA\userap /
//                    ps_mqtt_QoS2\s2w\build\..\inc\mqtt_log\ -I              /
//                    E:\Gainspan\gs2011mxx_SDK_s2w_tls_tlslp_5.1.5_GA\userap /
//                    ps_mqtt_QoS2\s2w\build\..\src\mqtt_log\ -Ohz            /
//                    --use_c++_inline -I "C:\Program Files (x86)\IAR         /
//                    Systems\Embedded Workbench 6.5\arm\CMSIS\Include\"      /
//    List file    =  E:\Gainspan\gs2011mxx_SDK_s2w_tls_tlslp_5.1.5_GA\userap /
//                    ps_mqtt_QoS2\s2w\build\Debug\List\s2w_misc_command.s    /
//                                                                            /
//                                                                            /
///////////////////////////////////////////////////////////////////////////////

        NAME s2w_misc_command

        RTMODEL "__SystemLibrary", "DLib"
        RTMODEL "__dlib_file_descriptor", "1"
        RTMODEL "__dlib_full_locale_support", "1"
        RTMODEL "__iar_require _Printf", "flags,widths"
        AAPCS BASE,INTERWORK
        PRESERVE8
        REQUIRE8

        #define SHT_PROGBITS 0x1

        EXTERN AppMcu_RespTimeoutCb
        EXTERN AppS2wHal_BattChkLvlSet
        EXTERN AppS2wHal_BattChkParam
        EXTERN AppS2wHal_BattChkSet
        EXTERN AppS2wHal_BattChkStart
        EXTERN AppS2wHal_BattChkStop
        EXTERN AppS2wHal_BattChkValueGet
        EXTERN AppS2wHal_CharNGet
        EXTERN AppS2wHal_CharNPut
        EXTERN AppS2wHal_CidFind
        EXTERN AppS2wHal_HttpHandleGet
        EXTERN AppS2wHal_InfoGet
        EXTERN AppS2wHal_MdnsAnnounce
        EXTERN AppS2wHal_MdnsDeInit
        EXTERN AppS2wHal_MdnsHostNameDereg
        EXTERN AppS2wHal_MdnsHostNameReg
        EXTERN AppS2wHal_MdnsInit
        EXTERN AppS2wHal_MdnsServiceDereg
        EXTERN AppS2wHal_MdnsServiceReg
        EXTERN AppS2wHal_MdnsSrvcDiscover
        EXTERN AppS2wHal_PsPollIntervelset
        EXTERN AppS2wHal_RssiGet
        EXTERN AppS2wParse_Boolean
        EXTERN AppS2wParse_Hex
        EXTERN AppS2wParse_Int
        EXTERN AppS2wParse_IntToStr
        EXTERN AppS2wParse_Ip
        EXTERN AppS2wParse_Mac
        EXTERN AppS2wParse_MdnsKeyValidate
        EXTERN AppS2wParse_NextParamGet
        EXTERN AppS2wProcess_StatusNotify
        EXTERN AppS2w_CidValidate
        EXTERN AppS2w_GslinkDeInit
        EXTERN AppS2w_GslinkInit
        EXTERN AppS2w_HttpSemRelease
        EXTERN AppS2w_HttpdSetTimeOut
        EXTERN App_FsInit
        EXTERN App_McuHttpApiDeInit
        EXTERN App_McuHttpApiInit
        EXTERN App_XmlParserCb
        EXTERN FREE
        EXTERN GsnDhcpSrvr_ClientQuery
        EXTERN GsnDynMemMgmt_Alloc
        EXTERN GsnDynMemMgmt_Free
        EXTERN GsnGpio_Init
        EXTERN GsnGpio_OutClear
        EXTERN GsnGpio_OutIndvidualSet
        EXTERN GsnHeIf_DriverInit
        EXTERN GsnHeIf_DriverSuspend
        EXTERN GsnHttp_Send
        EXTERN GsnHttpd_AddRedirURI
        EXTERN GsnHttpd_GetBuffer
        EXTERN GsnHttpd_IsRunning
        EXTERN GsnHttpd_ReleaseBuffer
        EXTERN GsnHttpd_Start
        EXTERN GsnHttpd_UriHandlerConfig
        EXTERN GsnMdns_AnnounceAll
        EXTERN GsnNwIf_IpConfigGet
        EXTERN GsnNw_PktPoolHndlGet
        EXTERN GsnOtpMm_Read
        EXTERN GsnPwm_Open
        EXTERN GsnPwm_PatternUpdate
        EXTERN GsnPwm_Start
        EXTERN GsnPwm_Stop
        EXTERN GsnRingBuf_Get
        EXTERN GsnRingBuf_Init
        EXTERN GsnRingBuf_Put
        EXTERN GsnSoftTmr_Start
        EXTERN GsnSoftTmr_Stop
        EXTERN GsnSysCtl_AppTempSend
        EXTERN GsnSysCtl_MemReadReq
        EXTERN GsnSysCtl_MemWriteReq
        EXTERN GsnSysCtl_OtpReadReq
        EXTERN GsnWdd_ApPowerSaveCfgSet
        EXTERN GsnWdd_CalibrnRun
        EXTERN GsnWdd_ConctedStaListGet
        EXTERN GsnWdd_PhyAddrGet
        EXTERN GsnWdd_RadioPowerSaveCfgSet
        EXTERN GsnWdd_RfTestCarrierWaveStart
        EXTERN GsnWdd_RfTestModeStart
        EXTERN GsnWdd_RfTestModeStop
        EXTERN GsnWdd_RfTestRxStart
        EXTERN GsnWdd_RfTestRxStop
        EXTERN GsnWdd_RfTestTx100Start
        EXTERN GsnWdd_RfTestTx99Start
        EXTERN GsnWdd_RfTestTxStart
        EXTERN GsnWdd_UAMDataRxConfig
        EXTERN GsnWdd_UAMDataRxStop
        EXTERN GsnWdd_UAMStart
        EXTERN GsnWdd_UAMStop
        EXTERN GsnWdd_UamDataRxStart
        EXTERN GsnWdd_WlanStatsGet
        EXTERN GsnXMLStr_Decode
        EXTERN GsnXMLStr_Encode
        EXTERN GsnXMLStr_SetRootTag
        EXTERN GsnXMLStr_SetTagCount
        EXTERN MALLOC
        EXTERN McuHttpCb
        EXTERN S2wApp_WebserverStackSize_Get
        EXTERN S2wApp_WebserverStack_Free
        EXTERN S2wApp_WebserverStack_Get
        EXTERN S2wCert_FlashFileLoad
        EXTERN S2wCert_SearchRamTable
        EXTERN S2w_Printf
        EXTERN S2w_PutChar
        EXTERN S2w_macAddrRTCGet
        EXTERN __aeabi_memclr4
        EXTERN __aeabi_memcpy
        EXTERN __aeabi_memcpy4
        EXTERN __aeabi_memset
        EXTERN __iar_Strstr
        EXTERN _nx_arp_auto_arp_entry_enable
        EXTERN _nxe_arp_dynamic_entries_invalidate
        EXTERN _nxe_arp_gratuitous_send
        EXTERN _nxe_arp_static_entry_create
        EXTERN _nxe_arp_static_entry_delete
        EXTERN _tx_queue_send
        EXTERN _tx_semaphore_create
        EXTERN _tx_semaphore_delete
        EXTERN _tx_semaphore_get
        EXTERN _tx_semaphore_put
        EXTERN _tx_thread_interrupt_control
        EXTERN appCtx
        EXTERN dhcpSrvr
        EXTERN free
        EXTERN fsm_enterFS
        EXTERN headerTypes
        EXTERN headerTypesModified
        EXTERN httpConfInfo
        EXTERN mdnsFlag
        EXTERN mdnsHnParam
        EXTERN memcmp
        EXTERN ncmAutoMode
        EXTERN nx_arp_table_get
        EXTERN s2wCidList
        EXTERN s2wCurrent
        EXTERN s2wNetQueue
        EXTERN s2wSpiFs_Flush
        EXTERN s2wSyncSemID
        EXTERN s2wWlanOpSyncSem
        EXTERN s2w_ssl_cert_table
        EXTERN s2wappMainTaskCtxt
        EXTERN s2wappMainTaskNotifier
        EXTERN sprintf
        EXTERN strcmp
        EXTERN strcpy
        EXTERN strlen
        EXTERN strncpy
        EXTERN toupper

        PUBLIC APPS2wCmd_AddRedirURI
        PUBLIC APPS2wCmd_WebProv
        PUBLIC APPS2wCmd_WebProvStop
        PUBLIC AppArp_Invalidate
        PUBLIC AppS2wCmd_ApClientInfoGet
        PUBLIC AppS2wCmd_AppOtpRead
        PUBLIC AppS2wCmd_ArpAutoSet
        PUBLIC AppS2wCmd_ArpCacheDel
        PUBLIC AppS2wCmd_ArpCacheEn
        PUBLIC AppS2wCmd_ArpEntryDelete
        PUBLIC AppS2wCmd_ArpEntryGet
        PUBLIC AppS2wCmd_ArpEntrySet
        PUBLIC AppS2wCmd_AsyncMsgFmt
        PUBLIC AppS2wCmd_BattCheckSet
        PUBLIC AppS2wCmd_BattCheckStart
        PUBLIC AppS2wCmd_BattCheckStop
        PUBLIC AppS2wCmd_BattLvlSet
        PUBLIC AppS2wCmd_BattValueGet
        PUBLIC AppS2wCmd_CfgUri
        PUBLIC AppS2wCmd_GetSecurityString
        PUBLIC AppS2wCmd_GratArpSend
        PUBLIC AppS2wCmd_HwCryptoEn
        PUBLIC AppS2wCmd_LogLevelSet
        PUBLIC AppS2wCmd_MdnsAnnounce
        PUBLIC AppS2wCmd_MdnsAnnounceAll
        PUBLIC AppS2wCmd_MdnsDeInit
        PUBLIC AppS2wCmd_MdnsHostNameReg
        PUBLIC AppS2wCmd_MdnsHostNmDeReg
        PUBLIC AppS2wCmd_MdnsInit
        PUBLIC AppS2wCmd_MdnsServiceReg
        PUBLIC AppS2wCmd_MdnsSrvDeReg
        PUBLIC AppS2wCmd_MdnsSrvcDiscover
        PUBLIC AppS2wCmd_MemRead
        PUBLIC AppS2wCmd_MemWrite
        PUBLIC AppS2wCmd_PwmCtrl
        PUBLIC AppS2wCmd_PwmStart
        PUBLIC AppS2wCmd_PwmStop
        PUBLIC AppS2wCmd_RfTestCarrierWaveStart
        PUBLIC AppS2wCmd_RfTestRxStart
        PUBLIC AppS2wCmd_RfTestRxStop
        PUBLIC AppS2wCmd_RfTestStart
        PUBLIC AppS2wCmd_RfTestStop
        PUBLIC AppS2wCmd_RfTestTx100Start
        PUBLIC AppS2wCmd_RfTestTx99Start
        PUBLIC AppS2wCmd_RfTestTxStart
        PUBLIC AppS2wCmd_RfTestTxStop
        PUBLIC AppS2wCmd_SetAssocTimeout
        PUBLIC AppS2wCmd_SslConfig
        PUBLIC AppS2wCmd_WebServer
        PUBLIC AppS2wCmd_WlanApPsCfg
        PUBLIC AppS2wCmd_WlanCalib
        PUBLIC AppS2wCmd_WlanOtpRead
        PUBLIC AppS2wCmd_WlanStaPsCfg
        PUBLIC AppS2wCmd_WlanStatsGet
        PUBLIC AppS2wCmd_Wrssi
        PUBLIC AppS2wCmd_Wstatus
        PUBLIC AppS2wCmd_XmlParseEnable
        PUBLIC AppS2wCmd_XmlSend
        PUBLIC AppS2wHal_GetStausCode
        PUBLIC AppS2wHal_RawhttpContentGet
        PUBLIC AppS2wHal_XmlPost
        PUBLIC AppS2wHelp_Print
        PUBLIC AppS2w_CmdL2ConfigSet
        PUBLIC AppS2w_HttpdBodyLenSet
        PUBLIC AppS2w_HttpdCtxDeInit
        PUBLIC AppS2w_HttpdCtxInit
        PUBLIC AppS2w_HttpdMethodSet
        PUBLIC AppS2w_RawDataSend
        PUBLIC AppS2w_WebServerStart
        PUBLIC AppS2w_WebServerStop
        PUBLIC AppS2w_XmlDataProcess
        PUBLIC AppS2w_XmlRxBufferMgmtCb
        PUBLIC GsnIoMux_PullDownDisable
        PUBLIC GsnIoMux_Sel
        PUBLIC GsnOsal_IntrDisable
        PUBLIC GsnOsal_IntrEnable
        PUBLIC GsnOsal_SemAcquire
        PUBLIC GsnOsal_SemRelease
        PUBLIC S2W_UnassocDataIndCB
        PUBLIC S2wHttp_XmlSend
        PUBLIC S2w_AsyncMsgGpioInit
        PUBLIC S2w_AsyncMsgGpioOp
        PUBLIC S2w_CmdPsPollIntervelset
        PUBLIC S2w_CmdUnSolicitedCcaConf
        PUBLIC S2w_CmdUnSolicitedRx
        PUBLIC S2w_CmdUnSolicitedRxstop
        PUBLIC S2w_CmdUnSolicitedTx
        PUBLIC S2w_UamRx
        PUBLIC S2w_Wlan_Cal_Cb
        PUBLIC frame
        PUBLIC frameTransmissionType
        PUBLIC mdnsATConfig
        PUBLIC mdnsAnnceParam
        PUBLIC mdnsParamBuff
        PUBLIC mdnsSrvcParam
        PUBLIC mdnsStarted
        PUBLIC mdnsv6Enable
        PUBLIC memcpy
        PUBLIC memset
        PUBLIC pS2wHttpdTaskStack
        PUBLIC pattern
        PUBLIC pwmInit
        PUBLIC pwm_handle
        PUBLIC s2wErrorCode
        PUBLIC s2wHttpdPktPtr
        PUBLIC s2wSslConf
        PUBLIC s2wUamBufs
        PUBLIC s2wUamRx_Init
        PUBLIC trPktPoolHndl
        PUBLIC uamRxInit
        
          CFI Names cfiNames0
          CFI StackFrame CFA R13 DATA
          CFI Resource R0:32, R1:32, R2:32, R3:32, R4:32, R5:32, R6:32, R7:32
          CFI Resource R8:32, R9:32, R10:32, R11:32, R12:32, R13:32, R14:32
          CFI EndNames cfiNames0
        
          CFI Common cfiCommon0 Using cfiNames0
          CFI CodeAlign 2
          CFI DataAlign 4
          CFI ReturnAddress R14 CODE
          CFI CFA R13+0
          CFI R0 Undefined
          CFI R1 Undefined
          CFI R2 Undefined
          CFI R3 Undefined
          CFI R4 SameValue
          CFI R5 SameValue
          CFI R6 SameValue
          CFI R7 SameValue
          CFI R8 SameValue
          CFI R9 SameValue
          CFI R10 SameValue
          CFI R11 SameValue
          CFI R12 Undefined
          CFI R14 SameValue
          CFI EndCommon cfiCommon0
        
        
          CFI Common cfiCommon1 Using cfiNames0
          CFI CodeAlign 2
          CFI DataAlign 4
          CFI ReturnAddress R14 CODE
          CFI CFA R13+0
          CFI R0 SameValue
          CFI R1 SameValue
          CFI R2 SameValue
          CFI R3 SameValue
          CFI R4 SameValue
          CFI R5 SameValue
          CFI R6 SameValue
          CFI R7 SameValue
          CFI R8 SameValue
          CFI R9 SameValue
          CFI R10 SameValue
          CFI R11 SameValue
          CFI R12 SameValue
          CFI R14 SameValue
          CFI EndCommon cfiCommon1
        
// E:\Gainspan\gs2011mxx_SDK_s2w_tls_tlslp_5.1.5_GA\userapps_mqtt_QoS2\s2w\src\parser\s2w_misc_command.c
//    1 /*****************************************************************
//    2  *
//    3 *               COPYRIGHT (c) 2009-2010 GainSpan Corporation
//    4 *                         All Rights Reserved
//    5 *
//    6 * The source code contained or described herein and all documents
//    7 * related to the source code ("Material") are owned by GainSpan
//    8 * Corporation or its licensors.  Title to the Material remains
//    9 * with GainSpan Corporation or its suppliers and licensors.
//   10 *
//   11 * The Material is protected by worldwide copyright and trade secret
//   12 * laws and treaty provisions. No part of the Material may be used,
//   13 * copied, reproduced, modified, published, uploaded, posted, transmitted,
//   14 * distributed, or disclosed in any way except in accordance with the
//   15 * applicable license agreement.
//   16 *
//   17 * No license under any patent, copyright, trade secret or other
//   18 * intellectual property right is granted to or conferred upon you by
//   19 * disclosure or delivery of the Materials, either expressly, by
//   20 * implication, inducement, estoppel, except in accordance with the
//   21 * applicable license agreement.
//   22 *
//   23 * Unless otherwise agreed by GainSpan in writing, you may not remove or
//   24 * alter this notice or any other notice embedded in Materials by GainSpan
//   25 * or GainSpan's suppliers or licensors in any way.
//   26 *
//   27 * $RCSfile: s2w_misc_command.c,v $
//   28 *
//   29 * Description : s2w command interprter file
//   30 ******************************************************************/
//   31 #ifndef IOT_APP_ENABLE
//   32 
//   33 
//   34 /*****************************************************************
//   35   * File Inclusions
//   36   *****************************************************************/
//   37 #include "time.h"
//   38 #include <ctype.h>
//   39 #include <string.h>

        SECTION `.text`:CODE:REORDER:NOROOT(1)
        SECTION_GROUP memcpy
          CFI Block cfiBlock0 Using cfiCommon0
          CFI Function memcpy
        THUMB
// __intrinsic __nounwind __interwork __softfp void *memcpy(void *, void const *, size_t)
memcpy:
        PUSH     {R4,LR}
          CFI R14 Frame(CFA, -4)
          CFI R4 Frame(CFA, -8)
          CFI CFA R13+8
        MOV      R4,R0
          CFI FunCall __aeabi_memcpy
        BL       __aeabi_memcpy
        MOV      R0,R4
        POP      {R4,PC}          ;; return
          CFI EndBlock cfiBlock0

        SECTION `.text`:CODE:REORDER:NOROOT(1)
        SECTION_GROUP memset
          CFI Block cfiBlock1 Using cfiCommon0
          CFI Function memset
        THUMB
// __intrinsic __nounwind __interwork __softfp void *memset(void *, int, size_t)
memset:
        PUSH     {R4,LR}
          CFI R14 Frame(CFA, -4)
          CFI R4 Frame(CFA, -8)
          CFI CFA R13+8
        MOV      R4,R0
        MOV      R0,R2
        MOV      R2,R1
        MOV      R1,R0
        MOV      R0,R4
          CFI FunCall __aeabi_memset
        BL       __aeabi_memset
        MOV      R0,R4
        POP      {R4,PC}          ;; return
          CFI EndBlock cfiBlock1
//   40 #include "gsn_includes.h"

        SECTION `.text`:CODE:REORDER:NOROOT(1)
        SECTION_GROUP GsnOsal_IntrDisable
          CFI Block cfiBlock2 Using cfiCommon0
          CFI Function GsnOsal_IntrDisable
        THUMB
// __interwork __softfp int GsnOsal_IntrDisable(void)
GsnOsal_IntrDisable:
        MOVS     R0,#+1
          CFI FunCall _tx_thread_interrupt_control
        B.W      _tx_thread_interrupt_control
          CFI EndBlock cfiBlock2

        SECTION `.text`:CODE:REORDER:NOROOT(1)
        SECTION_GROUP GsnOsal_IntrEnable
          CFI Block cfiBlock3 Using cfiCommon0
          CFI Function GsnOsal_IntrEnable
          CFI FunCall _tx_thread_interrupt_control
        THUMB
// __interwork __softfp void GsnOsal_IntrEnable(int)
GsnOsal_IntrEnable:
        B.W      _tx_thread_interrupt_control
          CFI EndBlock cfiBlock3

        SECTION `.text`:CODE:REORDER:NOROOT(1)
        SECTION_GROUP GsnOsal_SemAcquire
          CFI Block cfiBlock4 Using cfiCommon0
          CFI Function GsnOsal_SemAcquire
        THUMB
// __interwork __softfp GSN_STATUS_T GsnOsal_SemAcquire(TX_SEMAPHORE *, UINT32)
GsnOsal_SemAcquire:
        PUSH     {R7,LR}
          CFI R14 Frame(CFA, -4)
          CFI CFA R13+8
          CFI FunCall _tx_semaphore_get
        BL       _tx_semaphore_get
        CBZ.N    R0,??GsnOsal_SemAcquire_0
        ADD      R0,R0,#-1879048192
        ADD      R0,R0,#+256
??GsnOsal_SemAcquire_0:
        POP      {R1,PC}          ;; return
          CFI EndBlock cfiBlock4

        SECTION `.text`:CODE:REORDER:NOROOT(1)
        SECTION_GROUP GsnOsal_SemRelease
          CFI Block cfiBlock5 Using cfiCommon0
          CFI Function GsnOsal_SemRelease
        THUMB
// __interwork __softfp GSN_STATUS_T GsnOsal_SemRelease(TX_SEMAPHORE *)
GsnOsal_SemRelease:
        PUSH     {R7,LR}
          CFI R14 Frame(CFA, -4)
          CFI CFA R13+8
          CFI FunCall _tx_semaphore_put
        BL       _tx_semaphore_put
        CBZ.N    R0,??GsnOsal_SemRelease_0
        ADD      R0,R0,#-1879048192
        ADD      R0,R0,#+256
??GsnOsal_SemRelease_0:
        POP      {R1,PC}          ;; return
          CFI EndBlock cfiBlock5

        SECTION `.text`:CODE:REORDER:NOROOT(2)
        SECTION_GROUP GsnIoMux_Sel
          CFI Block cfiBlock6 Using cfiCommon0
          CFI Function GsnIoMux_Sel
          CFI NoCalls
        THUMB
// __interwork __softfp void GsnIoMux_Sel(UINT32, UINT32)
GsnIoMux_Sel:
        LDR.N    R2,??GsnIoMux_Sel_0  ;; 0x40160000
        STR      R1,[R2, R0, LSL #+2]
        BX       LR               ;; return
        DATA
??GsnIoMux_Sel_0:
        DC32     0x40160000
          CFI EndBlock cfiBlock6

        SECTION `.text`:CODE:REORDER:NOROOT(2)
        SECTION_GROUP GsnIoMux_PullDownDisable
          CFI Block cfiBlock7 Using cfiCommon0
          CFI Function GsnIoMux_PullDownDisable
        THUMB
// __interwork __softfp void GsnIoMux_PullDownDisable(UINT32)
GsnIoMux_PullDownDisable:
        PUSH     {R4,LR}
          CFI R14 Frame(CFA, -4)
          CFI R4 Frame(CFA, -8)
          CFI CFA R13+8
        MOV      R4,R0
          CFI FunCall GsnOsal_IntrDisable
        BL       GsnOsal_IntrDisable
        MOVS     R2,#+1
        LDR.N    R1,??GsnIoMux_PullDownDisable_0  ;; 0x40160200
        CMP      R4,#+32
        BCS.N    ??GsnIoMux_PullDownDisable_1
        LDR      R3,[R1, #+0]
        LSLS     R2,R2,R4
        ORRS     R2,R2,R3
        STR      R2,[R1, #+0]
        B.N      ??GsnIoMux_PullDownDisable_2
??GsnIoMux_PullDownDisable_1:
        SUBS     R4,R4,#+32
        LDR      R3,[R1, #+4]
        LSLS     R2,R2,R4
        ORRS     R2,R2,R3
        STR      R2,[R1, #+4]
??GsnIoMux_PullDownDisable_2:
        POP      {R4,LR}
          CFI R4 SameValue
          CFI R14 SameValue
          CFI CFA R13+0
          CFI FunCall GsnOsal_IntrEnable
        B.W      GsnOsal_IntrEnable
        DATA
??GsnIoMux_PullDownDisable_0:
        DC32     0x40160200
          CFI EndBlock cfiBlock7
//   41 #include "hal/s2w.h"
//   42 #include "hal/s2w_types.h"
//   43 #include "hal/s2w_hal.h"
//   44 #include "hal/s2w_timer.h"
//   45 #include "parser/s2w_parse.h"
//   46 #include "parser/s2w_process.h"
//   47 #include "parser/s2w_command.h"
//   48 #include "hal/s2w_net.h"
//   49 #include "app_defines_builder.h"
//   50 #include "hal/s2w_config.h"
//   51 //#include "config\app_config_private.h"
//   52 #include "hal/s2w_cert_mgmt.h"
//   53 #include "main/app_main_ctx.h"
//   54 #include "config/app_stat_config.h"
//   55 #include "app_rtc_mem.h"
//   56 #include "app_events.h"
//   57 //#include "modules\gsn_dyn_alloc_chk.h"
//   58 #include "config/app_resource_config.h"
//   59 #include "config/app_httpd_config.h"
//   60 //#include "config\app_ncm_config.h"
//   61 //#include "web_prov/html/app_http_fs.h"
//   62 #include "modules/http/gsn_httpd.h"
//   63 #include "modules/http/gsn_httpd_util.h"
//   64 //#include "gsn_httpd_config.h"
//   65 //#include "gsn_httpd_prov.h"
//   66 //#include "modules/gsn_httpd_logo.h"
//   67 //#include "config/app_httpd_config.h"
//   68 #include "web_prov\s2w_web_prov.h"
//   69 #include "../src/gslink\app_mcu_def.h"
//   70 #ifdef S2W_GSLINK
//   71 #ifdef S2W_GSLINK_XML
//   72 #include "modules/xml_string_parser/gsn_xml_string_parser.h"
//   73 #endif
//   74 #endif
//   75 //#include "web_prov\s2w_web_prov.h"
//   76 #if defined(S2W_DTLS_CLIENT_SUPPORT)
//   77 #include "modules/dtls/gsn_dtls.h"
//   78 #endif
//   79 
//   80 #ifdef GSN_MEM_TRACE
//   81 #include "modules\dbg\gsn_dyn_alloc_chk.h"
//   82 #endif
//   83 
//   84 
//   85 #define TX_BUF_ELEMENTS                 19
//   86 #define TX_MAC_INDEX                    0x06
//   87 #define TX_BSSID_INDEX                  0x07
//   88 #define TX99_BUF_ELEMENTS               21
//   89 #define TX99_MAC_DESTADDR_INDEX         6
//   90 #define TX99_MAC_BSSID_INDEX            7
//   91 #define TX100_BUF_ELEMENTS              14
//   92 #define CR_WAVE_BUF_ELEMENTS            5
//   93 #define RX_BUF_ELEMENTS                 6
//   94 #define RX_MAC_INDEX                    0x03
//   95 #define HTTP_SEND_CHUNK_SIZE   			1000
//   96 
//   97 #ifdef S2W_HTTP_CUSTOM_SUPPORT
//   98 #define HTTP_HDR_BITMAP_STR_SIZE        8
//   99 #endif
//  100 
//  101 typedef enum RF_TEST
//  102 {
//  103 	RF_TX_TEST,
//  104 	RF_TX99_TEST,
//  105 	RF_TX100_TEST,
//  106 	RF_CARRIER_WAVE_TEST,
//  107 	RF_RX_TEST
//  108 
//  109 }RF_TEST_T;
//  110 
//  111 #ifdef ADK_PROV
//  112 #include "modules/http/gsn_httpd_api.h"
//  113 #endif
//  114 #ifdef ADK_OTAFU
//  115 #endif

        SECTION `.bss`:DATA:REORDER:NOROOT(2)
//  116 PUBLIC UINT8 *pS2wHttpdTaskStack;
pS2wHttpdTaskStack:
        DS8 4
//  117 extern S2W_PROFILE_T s2wCurrent;
//  118 extern GSN_OSAL_QUEUE_T s2wNetQueue;
//  119 UINT8 mdnsv6Enable;
//  120 /**
//  121  ******************************************************************************
//  122  * @file s2w_misc_command.c
//  123  * @brief S2W Application command routines.
//  124  *      This file contains the s2w application specific implimentation for
//  125  *      functions for each command .
//  126 ******************************************************************************/
//  127 
//  128 /*****************************************************************************
//  129   *  Private Variables
//  130   *****************************************************************************/
//  131 
//  132 /*****************************************************************************
//  133   *  Public Variables
//  134   *****************************************************************************/
//  135 
//  136 extern UINT8 curCid;
//  137 extern S2W_LINK_STATE_T s2wLinkState ;
//  138 extern APP_MAIN_CTX_T *s2wappMainTaskCtxt;
//  139 extern UINT8 s2wNRAWState;
//  140 extern UINT8 stbySuccess;
//  141 extern UINT8 storeParams;
//  142 extern BOOL ncmAutoMode;
//  143 #ifdef S2W_RFTEST
//  144 extern UINT32 asyncFrameCount;
//  145 #endif
//  146 extern S2W_PROFILE_PARAMS_T profile_params;
//  147 UINT8 frameTransmissionType = 0;
//  148 #ifdef S2W_UNASSOC_TXRX_SUPPORT
//  149 S2W_UNSOLICITED_FRAME_T frame;
//  150 #endif
//  151 
//  152 #if 0
//  153 PRIVATE const char *S2W_ErrList[] =
//  154 {
//  155     "NO ERROR",                         /* S2W_ERR_NOERROR */
//  156     "ERR:SSID NOT FOUND",                /* S2W_ERR_SSID_NOT_FOUND */
//  157     "ERR:AUTH FAIL:PSK INVALID",         /* S2W_ERR_PSK_INVALID */
//  158     "ERR:AUTH FAIL:TIMEOUT",             /* S2W_ERR_AUTH_TIMEOUT */
//  159     "ERR:AUTH FAIL:EAP_FAST_FAILURE",     /* S2W_ERR_AUTH_EAP_FAST_FAILURE */
//  160     "ERR:AUTH FAIL:EAP_CRED_FAILURE",     /* S2W_ERR_AUTH_EAP_CRED_FAILURE */
//  161 };
//  162 #endif
//  163 
//  164 
//  165 #define S2W_INVALID_CERT_INDEX 0xFFFFFFFF
//  166 extern UINT32 certIndex, certFormat, certFileSize;
//  167 extern S2W_SSL_CERT_SRAM_TABLE_T s2w_ssl_cert_table[];
//  168 extern GSN_NOTIFICATION_FUNC_T s2wappMainTaskNotifier;
//  169 extern S2W_CID_T s2wCidList[];
//  170 #ifdef S2W_HTTPC_SUPPORT
//  171 extern GSN_HTTPC_CONF_INFO_T httpConfInfo;
//  172 extern GSN_HTTP_USER_HEADER_TYPE_T headerTypes[];
//  173 extern GSN_HTTP_USER_HEADER_TYPE_T headerTypesModified[];
//  174 #endif
//  175 
//  176 /* packet pool handle to be used by HTTP server */
//  177 GSN_NW_PKT_POOL_HANDLE   trPktPoolHndl;
//  178 void                    *s2wHttpdPktPtr;
s2wHttpdPktPtr:
        DS8 4
//  179 #define S2W_HTTPD_PKT_POOL  (10*1024)
//  180 
//  181 #endif
//  182 extern const UINT8 server_key[];
//  183 extern const UINT8 server_cert[];
//  184 extern const UINT8 ca_cert[];
//  185 
//  186 /*****************************************************************************
//  187  *  Private Functions
//  188  *****************************************************************************/
//  189 
//  190 
//  191 VOID S2w_AsyncMsgGpioOp(UINT8 flag);
//  192 
//  193 
//  194 #ifdef S2W_GSLINK
//  195 UINT8
//  196 AppS2w_HttpdCtxInit(S2W_HTTPD_CONTEXT_T *httpdCtx,UINT8 reinit);
//  197 
//  198 #ifdef S2W_WEB_SERVER
//  199 
//  200 GSN_HTTPD_STATUS_T
//  201 McuHttpCb(ttHttpdUserEvent event, const char* uri,
//  202         ttHttpdUserConHandle conHandle);
//  203 #endif
//  204 #ifdef S2W_GSLINK_XML
//  205 
//  206 extern VOID
//  207 App_XmlParserCb(VOID *cbContext,GSNXMLSTR_CB_PARAM_T *xmlCbparams);
//  208 #endif
//  209 #endif /* S2W_GSLINK */
//  210 
//  211 extern INT8*
//  212 GsnHttpd_GetBuffer();
//  213 
//  214 #ifdef S2W_MDNS_ENABLE
//  215 
//  216 VOID
//  217 AppS2wHal_MdnsInit(UINT8*);
//  218 
//  219 PUBLIC UINT8
//  220 AppS2wHal_MdnsHostNameReg(S2W_MDNS_HN_PARAM_T *pHNparam);
//  221 
//  222 PUBLIC UINT8
//  223 AppS2wHal_MdnsHostNameDereg(S2W_MDNS_HN_PARAM_T *pHNparam);
//  224 
//  225 PUBLIC UINT8
//  226 AppS2wHal_MdnsServiceReg(S2W_MDNS_SRV_PARAM_T *pSrvParam);
//  227 
//  228 PUBLIC UINT8
//  229 AppS2wHal_MdnsServiceReg(S2W_MDNS_SRV_PARAM_T *pSrvParam);
//  230 
//  231 PUBLIC UINT8
//  232 AppS2wHal_MdnsSrvcDiscover(S2W_MDNS_SRVCDISCVR_PARAM_T *mdnsSrvDscr);
//  233 
//  234 #endif
//  235 
//  236 #ifdef S2W_ISOTX_SUPPORT
//  237 extern GSN_STATUS
//  238 GsnIsotx_BlinkReq(GSN_ISOTX_CTX_T *pIsotxCtx, 	GSN_ISOTX_BLINK_REQ_PARAM *pParam);
//  239 
//  240 extern GSN_STATUS
//  241 GsnIsotx_StopReq(GSN_ISOTX_CTX_T *pIsotxCtx);
//  242 
//  243 extern GSN_STATUS
//  244 GsnIsotx_RegWriteReq(GSN_ISOTX_CTX_T *pIsotxCtx, 	GSN_ISOTX_REG_WRITE_REQ_PARAM *pParam);
//  245 extern VOID
//  246 App_IsotxCtrlNotifCb(VOID *ctx, UINT16 msgId, UINT16 msgLen,	VOID *pMsg);
//  247 
//  248 #endif
//  249 
//  250 
//  251 #ifdef S2W_MEM_ACCESS
//  252 extern PUBLIC GSN_STATUS
//  253 GsnSysCtl_MemReadReq(GSN_SYS_CTL_CTX_T *pSysCtlCtx, GSN_SYS_CTL_MEM_READ_REQ_T * pMemReadReqParam);
//  254 extern PUBLIC GSN_STATUS
//  255 GsnSysCtl_MemWriteReq(GSN_SYS_CTL_CTX_T *pSysCtlCtx,          GSN_SYS_CTL_MEM_WRITE_REQ_T *pMemWrReqParam);
//  256 
//  257 #endif
//  258 
//  259 /**
//  260  ******************************************************************
//  261  * @ingroup S2w-Application
//  262  * @brief help print function
//  263  *   This function prints the help information of all commands.
//  264  * @param cmd - IN  Pointer to the user input command.
//  265  * @param desc - IN Pointer to the desription.
//  266  * @return none.
//  267  ******************************************************************/

        SECTION `.text`:CODE:NOROOT(1)
          CFI Block cfiBlock8 Using cfiCommon0
          CFI Function AppS2wHelp_Print
        THUMB
//  268 VOID
//  269 AppS2wHelp_Print(const char *cmd, const char *desc)
//  270 {
AppS2wHelp_Print:
        PUSH     {R4-R8,LR}
          CFI R14 Frame(CFA, -4)
          CFI R8 Frame(CFA, -8)
          CFI R7 Frame(CFA, -12)
          CFI R6 Frame(CFA, -16)
          CFI R5 Frame(CFA, -20)
          CFI R4 Frame(CFA, -24)
          CFI CFA R13+24
        MOVS     R4,R0
        MOV      R8,R1
//  271     int len = cmd ? strlen(cmd) : 1;
        BEQ.N    ??AppS2wHelp_Print_0
          CFI FunCall strlen
        BL       strlen
        MOV      R6,R0
        B.N      ??AppS2wHelp_Print_1
??AppS2wHelp_Print_0:
        MOVS     R6,#+1
//  272     int desclen = strlen(desc);
??AppS2wHelp_Print_1:
        MOV      R0,R8
          CFI FunCall strlen
        BL       strlen
        MOV      R7,R0
//  273     int left = 78;
//  274     int i;
//  275 
//  276     S2W_ASSERT(desclen <= left);
//  277 
//  278     AppS2wHal_CharNPut("\r\n", 2);
        ADR.N    R5,??DataTable147  ;; 0x0D, 0x0A, 0x00, 0x00
        BL       ?Subroutine5
//  279     AppS2wHal_CharNPut(cmd ? cmd : " ", len);
??CrossCallReturnLabel_20:
        CBNZ.N   R4,??AppS2wHelp_Print_2
        ADR.N    R4,??DataTable149  ;; " "
??AppS2wHelp_Print_2:
        MOV      R1,R6
        MOV      R0,R4
          CFI FunCall AppS2wHal_CharNPut
        BL       AppS2wHal_CharNPut
//  280 
//  281     left -= len;
        RSB      R4,R6,#+78
//  282     if (desclen > left)
        CMP      R4,R7
        BGE.N    ??AppS2wHelp_Print_3
//  283     {
//  284         AppS2wHal_CharNPut("\r\n", 2);
        BL       ?Subroutine5
//  285         left = 78;
??CrossCallReturnLabel_19:
        MOVS     R4,#+78
//  286     }
//  287 
//  288     for (i = 0; i < left - desclen; i++)
??AppS2wHelp_Print_3:
        MOVS     R6,#+0
        B.N      ??AppS2wHelp_Print_4
//  289     {
//  290         S2w_PutChar(' ');
??AppS2wHelp_Print_5:
        MOVS     R0,#+32
          CFI FunCall S2w_PutChar
        BL       S2w_PutChar
//  291     }
        ADDS     R6,R6,#+1
??AppS2wHelp_Print_4:
        SUBS     R0,R4,R7
        CMP      R6,R0
        BLT.N    ??AppS2wHelp_Print_5
//  292 
//  293     AppS2wHal_CharNPut(desc, desclen);
        MOV      R1,R7
        MOV      R0,R8
        POP      {R4-R8,LR}
          CFI R4 SameValue
          CFI R5 SameValue
          CFI R6 SameValue
          CFI R7 SameValue
          CFI R8 SameValue
          CFI R14 SameValue
          CFI CFA R13+0
          CFI FunCall AppS2wHal_CharNPut
        B.W      AppS2wHal_CharNPut
          CFI EndBlock cfiBlock8
//  294 }

        SECTION `.text`:CODE:NOROOT(1)
          CFI Block cfiCond9 Using cfiCommon0
          CFI Function AppS2wHelp_Print
          CFI Conditional ??CrossCallReturnLabel_20
          CFI R4 Frame(CFA, -24)
          CFI R5 Frame(CFA, -20)
          CFI R6 Frame(CFA, -16)
          CFI R7 Frame(CFA, -12)
          CFI R8 Frame(CFA, -8)
          CFI R14 Frame(CFA, -4)
          CFI CFA R13+24
          CFI Block cfiCond10 Using cfiCommon0
          CFI (cfiCond10) Function AppS2wHelp_Print
          CFI (cfiCond10) Conditional ??CrossCallReturnLabel_19
          CFI (cfiCond10) R4 Frame(CFA, -24)
          CFI (cfiCond10) R5 Frame(CFA, -20)
          CFI (cfiCond10) R6 Frame(CFA, -16)
          CFI (cfiCond10) R7 Frame(CFA, -12)
          CFI (cfiCond10) R8 Frame(CFA, -8)
          CFI (cfiCond10) R14 Frame(CFA, -4)
          CFI (cfiCond10) CFA R13+24
          CFI Block cfiPicker11 Using cfiCommon1
          CFI (cfiPicker11) NoFunction
          CFI (cfiPicker11) Picker
        THUMB
?Subroutine5:
        MOVS     R1,#+2
          CFI Block cfiCond12 Using cfiCommon0
          CFI (cfiCond12) Function S2wHttp_XmlSend
          CFI (cfiCond12) Conditional ??CrossCallReturnLabel_18
          CFI (cfiCond12) R4 Frame(CFA, -24)
          CFI (cfiCond12) R5 Frame(CFA, -20)
          CFI (cfiCond12) R6 Frame(CFA, -16)
          CFI (cfiCond12) R7 Frame(CFA, -12)
          CFI (cfiCond12) R8 Frame(CFA, -8)
          CFI (cfiCond12) R14 Frame(CFA, -4)
          CFI (cfiCond12) CFA R13+56
??Subroutine5_0:
        MOV      R0,R5
          CFI FunCall AppS2wHelp_Print AppS2wHal_CharNPut
          CFI FunCall AppS2wHelp_Print AppS2wHal_CharNPut
          CFI FunCall S2wHttp_XmlSend AppS2wHal_CharNPut
        B.W      AppS2wHal_CharNPut
          CFI EndBlock cfiCond9
          CFI EndBlock cfiCond10
          CFI EndBlock cfiPicker11
          CFI EndBlock cfiCond12
//  295 
//  296 #if 0
//  297 /**
//  298  ******************************************************************
//  299  * @ingroup S2w-Application
//  300  * @brief Process the Help command
//  301  *        Help command lists all the Serial2WiFi Host commands.
//  302  *        It also displays the command format and the brief descriptions about
//  303  *        the command.
//  304  * @param ptr Pointer to the user input string.
//  305  * @return status.
//  306  ******************************************************************/
//  307 PUBLIC UINT8
//  308 AppS2wCmd_Help(UINT8 *ptr)
//  309 {
//  310 
//  311 /**************** Command Interface********************************************************************************/
//  312 	AppS2wHelp_Print("AT",	"verify that the command interface is operating correctly \ 
//  313 					\n\rit should return a successful response OK (or 0 if verbose mode is disabled");
//  314     AppS2wHelp_Print("ATE<0|1>", "Disable/enable echo");
//  315     AppS2wHelp_Print("ATV<0|1>", "Disable/enable verbose responses");
//  316     AppS2wHelp_Print("AT?", "Help");
//  317 /****************************************************************************************************************/
//  318 
//  319 /**************** UART/ADAPTER Interface Configuration***************************************************************/
//  320     AppS2wHelp_Print("ATB=<rate>,<bitsperchar>,<parity>,<stopbits>",
//  321                       "Configure serial port");
//  322     AppS2wHelp_Print("AT&K<0|1>", "Disable/enable software flow control");
//  323     AppS2wHelp_Print("AT&R<0|1>", "Disable/enable hardware flow control");
//  324     AppS2wHelp_Print("ATSparam=value", "Set configuration parameters");
//  325 	AppS2wHelp_Print("AT+UARTFLVL=<?>/<Rx Level>,<Tx Level>" ,"Sets/displays the UART FIFO thresholds");
//  326     AppS2wHelp_Print("ATI<n>", "Display identification number n");	
//  327 	AppS2wHelp_Print("AT+WST=<Min scan time>,<Max scantime> <passive time>","configures the scan time");
//  328 /****************************************************************************************************************/
//  329 
//  330 /****************************Profile Management*******************************************************************/
//  331     AppS2wHelp_Print("AT&W<0|1>", "Save Settings to profile 0/1");
//  332     AppS2wHelp_Print("ATZ<0|1>", "Load Settings from profile 0/1");
//  333     AppS2wHelp_Print("AT&Y<0|1>",
//  334                      "Set default power on profile to profile 0/1");
//  335     AppS2wHelp_Print("AT&V", "Output current configuration");
//  336     AppS2wHelp_Print("AT&F", "Reset to factory defaults");
//  337 
//  338 /****************************************************************************************************************/
//  339 
//  340 /****************************WiFi Interface************************************************************************/
//  341 	AppS2wHelp_Print("AT+NMAC=<?>/<mac>",
//  342 						 "Get/Set MAC address and store in flash");
//  343     AppS2wHelp_Print("AT+WREGDOMAIN=<?>/<domain>","Get/Set Reg.Domain.domain values:fcc->0,etsi->1,telec->2");	
//  344     AppS2wHelp_Print("AT+WS[=<SSID>[,<BSSID>][,<Ch>][,<ScanTime>]]",
//  345                      "Perform wireless scan");
//  346 	AppS2wHelp_Print("AT+WM=<0|1>",
//  347 							 "Set mode to Infrastructure (0) or ad-hoc (1)");
//  348     AppS2wHelp_Print("AT+WA=<SSID>[[,<BSSID>][,<Ch>]]",
//  349                      "Associate to network or form ad-hoc network");
//  350     AppS2wHelp_Print("AT+WD or ATH", "Disassociate from current network");
//  351 #ifdef S2W_SECURITY_WPS_ENABLE
//  352 	AppS2wHelp_Print("AT+WWPS=<1/2>,<wps pin>",
//  353 					 "Associate to an AP using WPS. 1 - Push Button mathod.   \ 
//  354 					 2 - PIN mathod. Provide <wps pin> only in case of PIN mathod");
//  355 #endif
//  356 #ifndef S2W_IP2WIFI_SUPPORT
//  357 		AppS2wHelp_Print("AT+NSTAT=?", "Display current network context");
//  358 #endif
//  359 	AppS2wHelp_Print("WLANSTATS=?","");
//  360 	AppS2wHelp_Print("AT+WRSSI=?", "Query the current RSSI value");
//  361 	AppS2wHelp_Print("AT+WRATE=?", "Query the current WiFi rate used");
//  362     AppS2wHelp_Print("AT+WRETRY=n", "Set the wireless retry count");
//  363 	AppS2wHelp_Print("AT+APCLIENTINFO=?", "Get the information about the clients associated to node \ 
//  364 					\n\rwhen it acts as a limited AP");
//  365 	AppS2wHelp_Print("AT+BCONMISSTHRHLD=<BeaconMissThresholdTime>,<BeaconMissThresholdCount>",
//  366 			 		 "Configure the beacon miss threshold count and time");
//  367 	AppS2wHelp_Print("AT+TKIPCNTRMSR=<0|1>", "");	
//  368 	AppS2wHelp_Print("AT+TKIPSEQSET=","");	
//  369 /*******************************************************************************************************************/
//  370     AppS2wHelp_Print("AT+WRXACTIVE=<0|1>", "Enable/disable the radio");
//  371     AppS2wHelp_Print("AT+WRXPS=<0|1>", "Enable/disable 802.11 power save");
//  372     AppS2wHelp_Print("AT+WP=<power>", "Set the transmit power");
//  373     AppS2wHelp_Print("AT+WSTATUS", "Display current Wireless Status");
//  374     AppS2wHelp_Print("AT+WSYNCINTRL=<interval>","configure the sync loss interval in TBTT interval");
//  375 	AppS2wHelp_Print("AT+WAPSM=<0|1|2|3>", " configure 802.11 power save mode to be used during association");
//  376 	AppS2wHelp_Print("AT+WIEEEPSPOLL=<n>[,listen beacon interval]", "sets the listen intervals for n beacons  \ 
//  377 					 \n\r The interval range is 1 to 65535 beacons");				 
//  378     AppS2wHelp_Print("AT+PSPOLLINTRL=<interval>", "configure the Ps poll interval in Seconds");
//  379 	AppS2wHelp_Print("AT+MCSTSET=<0/1>", " enable or disable multicast and broadcast reception");
//  380 /*******************************************************************************************************************/
//  381 
//  382 /****************************WiFi Security***************************************************************/
//  383 	AppS2wHelp_Print("AT+WAUTH=<authmode>",
//  384 						 "Set authmode (1->open,2->shared)");	
//  385 	AppS2wHelp_Print("AT+WWEPn=<key>",
//  386 						 "Set WEP key (10 or 26 hex digits) with index n (1-4)");
//  387 	AppS2wHelp_Print("AT+WWPA=passphrase",
//  388 						 "Set WPA passphrase (8 - 63 chars)");
//  389 	AppS2wHelp_Print("AT+WPAPSK=<SSID>,<PassPhrase>",
//  390 						 "Calculate and store the PSK");
//  391 	AppS2wHelp_Print("AT+WPSK=<PSK>", "Store the PSK");		
//  392 #if defined(S2W_SECURITY_ENTERPRISE_TLS_AVAILABLE) || defined(S2W_SECURITY_ENTERPRISE_FAST_MSCHAPV2_AVAILABLE) || defined(S2W__SECURITY_ENTERPRISE_PEAP_V0_AVAILABLE)|| defined(S2W__SECURITY_ENTERPRISE_TTLS_AVAILABLE) || defined(S2W_SECURITY_ENTERPRISE_FAST_GTC_AVAILABLE)|| defined(S2W__SECURITY_ENTERPRISE_PEAP_V1_AVAILABLE)
//  393 	AppS2wHelp_Print("AT+WEAPCONF=<outer authtype>,<inner authtype>,<user name>,<password>",
//  394 		   "Configure auth type,user name and password for EAP");
//  395 	AppS2wHelp_Print("AT+WEAP=<type>,<format>,<size>,<location>\n\r<ESC>W<data of size above>",
//  396 		"Provision certificate for EAP TLS. Type-CA/CLIENT/PUB_KEY(0/1/2),format\ 
//  397 		-binary/ascii(0/1),location- flash/RAM(0/1).Follow the escape sequence to send data.");
//  398 #endif
//  399 #ifndef S2W_IP2WIFI_SUPPORT
//  400 	AppS2wHelp_Print("AT+TCERTADD=<name>,<format>,<size>,<location>\n\r<ESC>W<data of size above>",
//  401 		   "Provisions a certificate. format-binary/ascii(0/1),location-FLASH/RAM.\ 
//  402 			\n\rFollow the escape sequence to send data.");
//  403 	AppS2wHelp_Print("AT+TCERTDEL=<name>", "Delete a certificate");
//  404 #endif
//  405 	AppS2wHelp_Print("AT+WSEC=n", "configure the security[0 - Auto,1 - Open,  2 - WEP \ 
//  406 					\n\r 3 - WPA-PSK,4 - WPA2-PSK,16 - WPA Enterprise, 32 - WPA2 Enterprise");
//  407 /*******************************************************************************************************************/
//  408 
//  409 /*****************Connection Management *****************************************************************************/
//  410 #ifndef S2W_IP2WIFI_SUPPORT
//  411     AppS2wHelp_Print("AT+NCTCP=<IP>,<Port>", "Open TCP client");
//  412     AppS2wHelp_Print("AT+NCUDP=<IP>,<RemotePort>,[<LocalPort>]",
//  413                      "Open UDP client");
//  414     AppS2wHelp_Print("AT+NSTCP=<Port>", "Open TCP server on Port");
//  415     AppS2wHelp_Print("AT+NSUDP=<Port>", "Open UDP server on Port");
//  416     AppS2wHelp_Print("AT+NCLOSE=cid", "Close the specified connection");
//  417     AppS2wHelp_Print("AT+NCLOSEALL", "Close all connections");
//  418     AppS2wHelp_Print("AT+SETSOCKOPT=<cid>,<type>,<parameter>,<value>,<length>",
//  419                       "Set options of a socket specified by cid");
//  420     AppS2wHelp_Print("AT+NXSETSOCKOPT=<cid>,<type>,<parameter>,<value>,<length>",
//  421                       "Set options of a socket specified by cid");
//  422 
//  423 	AppS2wHelp_Print("AT+SSLOPEN=<cid>,<name>",
//  424 		"Opens a ssl connection. name-Name of certificate to use");
//  425 	AppS2wHelp_Print("AT+SSLCLOSE=<cid>","Close a SSL connection");
//  426 	AppS2wHelp_Print("AT+HTTPOPEN=<hostName/ip addr>,[<port>,<secured/non secured>,<certificate name>]",\ 
//  427 		"Opens a http/https connection");
//  428 	AppS2wHelp_Print("AT+HTTPCLOSE=<cid>", "Closes a http connection");
//  429 	AppS2wHelp_Print("AT+HTTPSEND=<cid>,<Method>,<TimeOut>,<Page>[,<Size>]\n\r<ESC>H<data of size above>",
//  430 		"Send a Get or POST request.Method- GET/HEAD/POST(1/2/3) Follow the escape sequence to send data");
//  431 	AppS2wHelp_Print("AT+HTTPCONF=<Param>,<Value>", "Configures http parameters");
//  432 	AppS2wHelp_Print("AT+HTTPCONFDEL=<Param>", "Delete the http Configuration parameters");		
//  433 	AppS2wHelp_Print("AT+CID=?", "Display The CID info");
//  434 #ifdef S2W_WEB_PROV
//  435 #ifdef S2W_IP2WIFI_SUPPORT
//  436 	   AppS2wHelp_Print("AT+WEBPROV=<user name>,<passwd>,<ip addr><subnet mask> <gateway>",
//  437 							"start web server. username passwd are used for authentication\ 
//  438 							The server is atarted with the given ip addr, subnetmask and gateway");
//  439 #else
//  440 	   AppS2wHelp_Print("AT+WEBPROV=<user name>,<passwd>,[<SSL enable>,<Store params>,<Idle timeout>,<NCM auto connect>]",
//  441 							   "start/stop web server. 1-start,0-stop. username passwd are used for authentication\r\n");
//  442 	   AppS2wHelp_Print("AT+WEBPROVSTOP=",
//  443 							"stops the web server\r\n");
//  444 	   AppS2wHelp_Print("AT+ NURIREDIR=<URL>",	"Adds the redirection URI");
//  445 #endif
//  446 #ifdef S2W_WEB_SRVR_LOGO_INTRNL_FLASH
//  447 	   AppS2wHelp_Print("AT+WEBLOGOADD=<size>","add webserver logo of size <size>. After issuing \ 
//  448 					  the command, send <esc> followed by l/L	and send the content of the logo file");
//  449 #endif
//  450 #endif
//  451 #ifdef S2W_UNASSOC_TXRX_SUPPORT	
//  452 	AppS2wHelp_Print("AT+UNSOLICITEDTX=<FC>,<SC>,<CH>,<Rate>,<Power>,<CCA Enable>,<FrameLength>,<Rx_WaitTime>, \ 
//  453 					<DestAddr>,[<RxAddr3>],[<TxAddr4>]<FC>,<SC>,<CH>,<Rate>,<Wmm>,<Receiver Mac>,<Bssid>,<FrameLen>",
//  454 					"\n\rconfigure and start unsolicited Tx.After issuing this cmd send <ESC> followed by \ 
//  455 					\n\r D/d and frame content");
//  456 	AppS2wHelp_Print("AT+UNSOLICITEDRX=<TypeBitmap>,<IEFilterEnable>,<IEID>,<Channel>,<Rx_WaitTime>",
//  457 					"\n\rconfigure and start unsolicited Rx.Data will send <ESC>D<Data> format");
//  458 	AppS2wHelp_Print("AT+UNSOLICITEDRX=<TypeBitmap>,<IEFilterEnable>,<IEID>,<Channel>,<Rx_WaitTime>",
//  459 					"\n\r start Unsolicited data reception"); 
//  460 	AppS2wHelp_Print("AT+UNSOLICITEDRXSTOP", "Stops unsolicited Rx");
//  461 #endif
//  462 #ifdef S2W_ISOTX_SUPPORT
//  463 	AppS2wHelp_Print("AT+ISOTXSTART=<frequency>,<gain>,<blink type>,<bandwidth>,<mode>,<no of blinks> \ 
//  464 					[,<interval between 1st blink>,,<interval between 2nd blink>,...]>",
//  465 					"\n\r starts the ISOTX Transmission");
//  466 	AppS2wHelp_Print("AT+ISOTXSTOP=","stops the ISOTX Transmission");
//  467 	AppS2wHelp_Print("AT+ISOTXREGWR= <addr>,<value>","configures the ISOTX");
//  468 #endif	
//  469 	AppS2wHelp_Print("AT++NIPMULTICASTJOIN=<ip>", "Joins multicast group");
//  470 	AppS2wHelp_Print("AT++NIPMULTICASTLEAVE=<ip>", "Leaves multicast group");
//  471 #endif
//  472 /***************** ***** ***** ***** *****************************************************************************/
//  473 /****************Auto connection************************************************************************************/
//  474     AppS2wHelp_Print("AT+WAUTO=<Mode>,<SSID>,<bssid>,[Channel]",
//  475                      "Configure auto connect wireless settings");
//  476 	AppS2wHelp_Print("AT+NCMAUTO=<Mode>,<Start/Stop>[,Level] ,[<Nvds store flag>]",
//  477 					 "starts the Network Connection Manager \n\r\ 
//  478 					 Mode: 0-station,1-Limited AP \n\r\ 
//  479 					 Level: 0-L2+L3 Connection,1-L2+L3+L4 connection");
//  480     AppS2wHelp_Print("AT+NAUTO=<Type>,<Protocol>,<DestIP>,<DestPort>",
//  481             "Configure auto connection");
//  482     AppS2wHelp_Print(NULL,
//  483                      "Client(0)/server(1), protocol UDP(0)/TCP(1),and host");
//  484 	AppS2wHelp_Print("AT+APCONF=<1>","Enable the NCM AP configuration");
//  485 #ifndef S2W_IP2WIFI_SUPPORT
//  486 /***************Misc Commands************************************************************************************/
//  487     AppS2wHelp_Print("AT+BDATA=<0|1> ","Enable bulk data");
//  488 	AppS2wHelp_Print("AT+RESET","Resets the Device");
//  489 	AppS2wHelp_Print("AT+NTIMESYNC= <Enable>,<Server IP>,<Timeout>,<Periodic>,[<frequency>]",
//  490 					 "\n\rSets the system time using the SNTP");
//  491 	AppS2wHelp_Print("AT+SETTIME=<dd/mm/yyyy>,<HH:MM:SS>","Set the system time");
//  492 	AppS2wHelp_Print("AT+GETTIME=?","Get the system time in Milli-seconds since Epoch(1970)");
//  493 	AppS2wHelp_Print("AT+DGPIO=<GPIO_PIN>,<1-SET/0-RESET>","Set/reset a gpio pin");
//  494 	AppS2wHelp_Print("AT+VER=?|?", "Get the Version Info");
//  495 	AppS2wHelp_Print("AT+PING=<Ip>,<Trails>,<Interval>,<Len>,<TOS>,<TTL>,<PAYLAOD(16 Bytes)>",
//  496 						 "Starts Ping");
//  497     AppS2wHelp_Print("AT+NSET=<IP>,<NetMask>,<Gateway>",
//  498                      "Configure network address");
//  499 	AppS2wHelp_Print("AT+SOTAFWUPSTART=<value>", "start the Firmware upgrading procedure");
//  500 	AppS2wHelp_Print("AT+SOTAFWUPCONF=<param>,<value>","configure the firware upgrade parameters");
//  501 	AppS2wHelp_Print("AT+ASYNCMSGFMT=<0|1>","enable/disable enhanced asynchronous notification ");
//  502 /****************************************************************************************************************/
//  503 	#if 0
//  504     AppS2wHelp_Print("ATC<0|1>", "Disable/enable auto connection");
//  505     AppS2wHelp_Print("ATA", "Initiate AutoConnect");
//  506     AppS2wHelp_Print("ATA2", "Initiate AutoConnect-tcp/udp level");
//  507     AppS2wHelp_Print("ATO", "Return to Auto Data mode");
//  508 
//  509     AppS2wHelp_Print("+++",
//  510                      "Switch to Command mode while in auto-connect mode");
//  511 
//  512     AppS2wHelp_Print("ATSparam=value", "Set configuration parameters");
//  513     AppS2wHelp_Print(NULL,
//  514                      "Network connection timeout (0) / Auto associate timeout (1)");
//  515     AppS2wHelp_Print(NULL,
//  516                      "TCP connection timeout (2) / Association retry count (3)");
//  517     AppS2wHelp_Print(NULL, "Nagle algorithm wait time (4)");
//  518 	 AppS2wHelp_Print("AT+FWUP=<SrvIp>,<SrvPort>,<SrcPort>", "Start FW Upgrade");
//  519 #endif
//  520 #endif
//  521    
//  522 
//  523 #ifndef S2W_IP2WIFI_SUPPORT
//  524 
//  525 /****************Network Interface***************************************************************************************/
//  526 	AppS2wHelp_Print("AT+DNS=1/0,<url>" , "start/stop the DNS server,URL is the DNS name \ 
//  527 					\n\r associated to the DNS IP address");
//  528 	AppS2wHelp_Print("AT+DHCPSRVR=<Start/Stop>[,<DnsOptionDisable>,<GatewayOptionDisable>]",
//  529 					 "\n\r start/stop the DHCP server");
//  530 	AppS2wHelp_Print("AT+DHCPSRVRCFG=<start IP addr>,<no Clients>","configure DHCP server");
//  531 	AppS2wHelp_Print("AT+NDHCP=<0|1>", "Disable/Enable DHCP");
//  532     AppS2wHelp_Print("AT+DNSLOOKUP=<URL>,[<RETRY>,<TIMEOUT-S>]",
//  533                      "Get the ip from host name");
//  534     AppS2wHelp_Print("AT+DNSSET=<DNS1-IP>,[<DNS2-IP>]",
//  535                      "Set static DNS IP addresses");
//  536 #ifdef S2W_MDNS_ENABLE
//  537 	AppS2wHelp_Print("AT+MDNSSTART","Initialise MDNS module");
//  538 	AppS2wHelp_Print("AT+MDNSHNREG=<Host name>,<Domain name>,[<TTL>,<scope><Conflict Detect>]","Register Host Name");
//  539 	AppS2wHelp_Print("AT+MDNSHNDEREG==<host name>,<Domain name>", "De-register Host Name");
//  540 	AppS2wHelp_Print("AT+MDNSSRVREG=<ServiceInstanceName>,<ServiceSubType>,<ServiceType>, <Protocol>,\ 
//  541 					\n\r <Domain>,<port>,<Default Key=Val>...<key n=valn >,<TTL>[<TTL>,<scope>\ 
//  542 					,\n\r<Conflict Detect>]",
//  543 					"Register MDNS service");
//  544 	AppS2wHelp_Print("AT+MDNSSRVDEREG=<ServiceInstanceName>,[<ServiceSubType>],<ServiceType>, <Protocol>,<Domain>",
//  545 					"De-register MDNS service");
//  546 	AppS2wHelp_Print("AT+MDNSSD=[<Service subtype>],<Service type>,<Protocol>,<Domain>",
//  547 					  "Discover the mDNC service");
//  548 	AppS2wHelp_Print("AT+MDNSANNOUNCE", "Announce the mDNS services");	
//  549 #endif
//  550 	AppS2wHelp_Print("AT+STORENWCONN", "Store the nw context");
//  551 	AppS2wHelp_Print("AT+RESTORENWCONN", "Restore the nw context");
//  552 #endif
//  553 /****************************************************************************************************************/
//  554 
//  555 /****************Battery Check*************************************************************************************/
//  556     AppS2wHelp_Print("AT+BCHKSTRT=<Measure interval>","Start the batt chk ");
//  557     AppS2wHelp_Print("AT+BCHK=<?>/<Measure interval>",
//  558                      "Get/Set batt chk param ");
//  559     AppS2wHelp_Print("AT+BATTVALGET",
//  560                      " Get the latest battery value stored in RTC");
//  561     AppS2wHelp_Print("AT+BCHKSTOP ","Stop the batt chk ");
//  562 
//  563     AppS2wHelp_Print("AT+BATTLVLSET=<Warning Level>,<warning Freq>,<Standby Level>",
//  564                      "Set batt warning level, frequency of reporting warning and batt standby levl ");
//  565 
//  566 /****************************************************************************************************************/
//  567 #ifdef S2W_RFTEST
//  568     AppS2wHelp_Print("AT+RFFRAMETXSTART=<CH>,<Power>,<Rate>,<No.Of.Times>,<Fr.Intrvel>,<FC>,<DurationId>,<SC>,<frameLen>,\ 
//  569     				\n\r<Preamble>,<Scrambler>[,<DstMac>,<Src Mac>]",
//  570     				"\n\rconfigure and start async Tx.After issuing this cmd send <ESC> followed by A/a and frame content");
//  571     AppS2wHelp_Print("AT+RFWAVETXSTART=<Modulated>,<CH>,<rate>,<PreambleLong>,<ScamblerOff>,<Cont.Tx>,<Power>,<ssid>",
//  572 					"\n\rstart modulated/unmodulated Wave Tx.");
//  573     AppS2wHelp_Print("AT+RFRXSTART=<CH>[,<sendtouser>]","start async Reception on channel CH.");
//  574     AppS2wHelp_Print("AT+RFSTOP","stop the rf test which has been started.");
//  575 	AppS2wHelp_Print("AT+WFRAMETXTEST=<Channel>,<bandWidth>,<numFrames>,<frameLen>,<txRate>,<txPower>,<destAddr>,<bssid>,<htEnable> \ 
//  576 					,<guardInterval>,<greenField>,<preambleType>,<qosEnable>,<ackPolicy>,<scrambler>,<aifsnVal>,<antenna>",
//  577 					"\n\rn Enable the frame transmissionwith the given configurations");
//  578 	AppS2wHelp_Print("AT+WTX99TEST=<Channel>,<bandWidth>,<numFrames>,<frameLen>,<txRate>,<txPower>,<destAddr>,<bssid>,<guardInterval> \ 
//  579 					  ,<greenField>,<antenna>,<cca>,<agc>,<contPreambleMode>,<spreader>,<scrambler>,<preamble>,<preambleType>,\ 
//  580 					  <phyTestTxtRate>,<modeSelect>", "Starts TX99 mode with the given configurations");
//  581 	AppS2wHelp_Print("AT+WTX100TEST=<Channel>,<bandWidth>,<txPower>,<antenna>,<cca>,<agc>,<contPreambleMode>,<spreader>,<scrambler>\ 
//  582 					  ,<preamble>,<preambleType>,<testPatternType>,<phyTestTxRate>,<modeSelect>",
//  583 					  "\n\rStarts TX100 mode with given configurations");
//  584 	AppS2wHelp_Print("AT+WCARWAVTEST=<Channel>,<bandWidth>,<txPower>,<antenna>,<customWavePeriod>","Starts Carrier Wave mode \ 
//  585 					  \n\rwith given configurations");
//  586 	AppS2wHelp_Print("AT+WRXTEST=<Channel>,<bandWidth>,<rxFrameTypeFilter>,<rxaddrFilter>,<antenna>", "Enables the frame reception");
//  587 	AppS2wHelp_Print("AT+WRXSTOP", "Stops the frame reception and displays the PER stats");
//  588 	AppS2wHelp_Print("AT+WCALIB","");
//  589 	AppS2wHelp_Print("AT+WTXSTOP","");
//  590 #endif
//  591 /****************Power Management********************************************************************************/
//  592     AppS2wHelp_Print("AT+PSDPSLEEP", "Enable deep sleep");
//  593     AppS2wHelp_Print("AT+PSSTBY=<n>[,<delay time>,<alarm1-pol>,<alarm2-pol>]",
//  594                      "Standby request for n milliseconds");
//  595 /********************************************************************************************************************/
//  596 /****************GSLINK**********************************************************************************************/
//  597 	AppS2wHelp_Print("AT+WEBSERVER=<start/stop>,<user name>,<passwd>,[<SSL enable>,<Idle timeout>,<Response Timeout>]",
//  598 						"start web server. username passwd are used for authentication\r\n");
//  599 	AppS2wHelp_Print("AT+XMLPARSE=<enable/disable>",
//  600 						  "Enable/Disable the XML parser. 1-Enable,0-Disable\r\n");
//  601     AppS2wHelp_Print("AT+XMLSEND=<cid>,<Method>,<TimeOut>,<URL>,<root tag>,[<No of Tags>]",
//  602 			"Send a Get or POST request for XML data.Method- GET Response/POST Response(6/7) \r\n\ 
//  603 			 Follow the escape sequence to send data-<ESC>G<cid><len>tag:value");
//  604 	AppS2wHelp_Print("AT+URIRECV=<URI>[,Content Type]","Modifies the default URI and content type \n\r\ 
//  605 					  Content Type:	0-application/xml \r\n1-application/json,2-application/html\ 
//  606 					  \r\n 3-img/gif,4-application/octet-stream");
//  607 /********************************************************************************************************************/
//  608 #ifdef  S2W_FS_SPI_ENABLE
//  609    AppS2wHelp_Print("AT+SPICONF=<CPOL(0/1)>,<CPH(0/1)>","Configure SPI clock polarity and clock phase");
//  610 #endif
//  611 
//  612 /****************EMU Commands**********************************************************************************************/
//  613 #ifdef S2W_ISOTX_SUPPORT
//  614 	AppS2wHelp_Print("AT+EMUVER=?", "prints the EMU software version");
//  615 	AppS2wHelp_Print("AT+EMUSUPMOD=?", "prints the supported module lists");
//  616 	AppS2wHelp_Print("AT+EMUSTART", "starts the EMU");
//  617 	AppS2wHelp_Print("AT+EMUSTOP", "stops the EMU");
//  618 	AppS2wHelp_Print("AT+EMUSETCONF=<Param>,<Value>", "configures the EMU parameters");
//  619 	AppS2wHelp_Print("AT+EMUSETCONF=<Channel>,<Enable\Disable>,[<GainValue>]" ,
//  620 					 "\n\rconfigures the channel to a given gain value");
//  621 	AppS2wHelp_Print("AT+EMUGETCONF=<Param>", "prints configuration value set for the EMU");
//  622 	AppS2wHelp_Print("AT+EMUGETVALUES", "prints the last read raw ADC values of voltage and current");
//  623 	AppS2wHelp_Print("AT+EMULOADCTRL= <1/0>", "switches ON(1)/)OFF(0) the load"); 
//  624 	AppS2wHelp_Print("AT+EMURESETENERGY", "resets the energy");
//  625 	AppS2wHelp_Print("AT+EMUGETSTATUS", "gets the status of the EMU");
//  626 	AppS2wHelp_Print("AT+EMULOADSTATUS", "gets the load status of the EMU");
//  627 #endif
//  628 /***************************************************************************************************************************/
//  629 /****************Persistent Timer Commands**********************************************************************************************/
//  630 #if S2W_PERSISTENT_TMR_SUPPORT 
//  631 	AppS2wHelp_Print("AT+PRSTMRSTART=<ID>,<TYPE>,<PERIOD>", "Create a persistent Timer");
//  632 	AppS2wHelp_Print("AT+PRSTMRSTOP=<ID>", "Stop Persistent timer");
//  633 	AppS2wHelp_Print"AT+PRSTMRDEL=<ID>", "Delete persistent timer");
//  634 	AppS2wHelp_Print"AT+PRSTMRRESTART=<ID>,< PERIOD >", "Restart persistent timer with new period");
//  635 #endif
//  636 
//  637 #ifdef S2W_IPv6_SUPPORT
//  638    AppS2wHelp_Print("AT+NSETv6=<IPv6 Linklocal/Global Address>", "Configure Interface static IPv6 address");
//  639    AppS2wHelp_Print("AT+NDHCPv6=<Enable/Disable>", "Configure Interface IPv6 address");
//  640    AppS2wHelp_Print("AT+NCUDPv6=<IPv6 Address>,<Port>", "Connect to a remote UDP server with IPv6 address");
//  641    AppS2wHelp_Print("AT+NSUDPv6=<Port>", "Open UDP server over IPv6");
//  642    AppS2wHelp_Print("AT+NCTCPv6=<IPv6 Adrress>,<Remote Port>", "Connect to a remote TCP server with IPv6 address");
//  643    AppS2wHelp_Print("AT+NSTCPv6=<Port>", "Open TCP server over IPv6");
//  644    AppS2wHelp_Print("AT+DHCPSERVERv6=<Enable/Disable>", "Start DHCPv6 server");
//  645    AppS2wHelp_Print("AT+PING=<IPv6 address>", "Ping to a IPv6 address");
//  646    AppS2wHelp_Print("AT+DNSLOOKUPv6=<IPv6 FQDN>", "Resolve host name to IPv6 address");
//  647    AppS2wHelp_Print("AT+DNSSET=<DNSv6 server address>", "Set static IPv6 DNS server");
//  648    AppS2wHelp_Print("AT+MDNSv6START", "Start MDNS service over IPv6");
//  649 #endif   
//  650 
//  651 
//  652     return S2W_SUCCESS;
//  653 }
//  654 
//  655 #endif
//  656 
//  657 /**
//  658  ******************************************************************
//  659  * @ingroup S2w-Application
//  660  * @brief Process the AT+PSPOLLINTRL Command.
//  661  *   This function set the keep alive timer interval .
//  662  * @param ptr Pointer to the user input string.
//  663  * @return S2W_SUCCESS - operation successful.
//  664  * @retval S2W_EINVAL  - operation failure-invalid command.
//  665  * @retval S2W_FAILURE - operation failure.
//  666  ******************************************************************/

        SECTION `.text`:CODE:NOROOT(1)
          CFI Block cfiBlock13 Using cfiCommon0
          CFI Function S2w_CmdPsPollIntervelset
        THUMB
//  667 PUBLIC UINT8
//  668 S2w_CmdPsPollIntervelset(UINT8 *ptr)
//  669 
//  670 {
S2w_CmdPsPollIntervelset:
        PUSH     {R0,LR}
          CFI R14 Frame(CFA, -4)
          CFI CFA R13+8
        SUB      SP,SP,#+8
          CFI CFA R13+16
//  671     UINT32 interval;
//  672     UINT8 *p;
//  673     UINT8 status = S2W_EINVAL;
//  674 
//  675     p = AppS2wParse_NextParamGet(&ptr);
        BL       ??Subroutine7_0
//  676     if (!p)
??CrossCallReturnLabel_73:
        CBZ.N    R0,??S2w_CmdPsPollIntervelset_0
//  677     {
//  678         return S2W_EINVAL;
//  679     }
//  680     status = AppS2wParse_Int(p, &interval);
        BL       ?Subroutine17
//  681     if (status != S2W_SUCCESS)
??CrossCallReturnLabel_218:
        CBNZ.N   R0,??S2w_CmdPsPollIntervelset_1
//  682     {
//  683         return status;
//  684     }
//  685     if(interval > 255)
        LDR      R0,[SP, #+0]
        CMP      R0,#+255
        BLS.N    ??S2w_CmdPsPollIntervelset_2
//  686     {
//  687         return S2W_EINVAL;
??S2w_CmdPsPollIntervelset_0:
        MOVS     R0,#+2
        POP      {R1-R3,PC}
//  688     }
//  689     /* bug id: 5823. Setting 0 will stop keep alive (to make it backward compatible with 1011) */
//  690 #if 0
//  691     if(interval == 0)
//  692     {
//  693         interval = 45;/*Default*/
//  694     }
//  695 #endif    
//  696     status = AppS2wHal_PsPollIntervelset(interval);
//  697     return status;
??S2w_CmdPsPollIntervelset_2:
          CFI FunCall AppS2wHal_PsPollIntervelset
        BL       AppS2wHal_PsPollIntervelset
??S2w_CmdPsPollIntervelset_1:
        POP      {R1-R3,PC}       ;; return
          CFI EndBlock cfiBlock13
//  698 }
//  699 
//  700 
//  701 #ifdef S2W_CODE_COVERAGE
//  702 /**
//  703  *******************************************************************************
//  704  * code coverage commands
//  705  *******************************************************************************/
//  706  /*       CODECOVG01=<adcMode><refVoltage><clockSelect><samplePeriod>
//  707  CODECOVG01=<GSN_ADC_PSMODE_OFF><GSN_ADC_REF_BANDGAP><GSN_ADC_CLK_SEL_1MHZ><20>
//  708     AT+CODECOVG01= 0, 0, 0,20
//  709  */
//  710 
//  711 PUBLIC UINT8
//  712 AppS2wCmd_codeCvg01(UINT8 *ptr)
//  713 {
//  714     UINT8 status;
//  715     UINT32 adcMode;
//  716     UINT32 refVoltage;
//  717     UINT32 clockSelect;
//  718     UINT32 samplePeriod;
//  719     UINT8 *p;
//  720 
//  721     p = AppS2wParse_NextParamGet(&ptr);
//  722     if (!p)
//  723     {
//  724         return S2W_EINVAL;
//  725     }
//  726     status = AppS2wParse_Int(p, &adcMode);
//  727     if(status != S2W_SUCCESS)
//  728     {
//  729         return status;
//  730     }
//  731 
//  732     p = AppS2wParse_NextParamGet(&ptr);
//  733     if (!p)
//  734     {
//  735       return S2W_EINVAL;
//  736     }
//  737     status = AppS2wParse_Int(p, &refVoltage);
//  738     if(status != S2W_SUCCESS)
//  739     {
//  740         return status;
//  741     }
//  742 
//  743      p = AppS2wParse_NextParamGet(&ptr);
//  744     if (!p)
//  745     {
//  746         return S2W_EINVAL;
//  747     }
//  748     status = AppS2wParse_Int(p, &clockSelect);
//  749     if(status != S2W_SUCCESS)
//  750     {
//  751         return status;
//  752     }
//  753 
//  754      p = AppS2wParse_NextParamGet(&ptr);
//  755     if (!p)
//  756     {
//  757         return S2W_EINVAL;
//  758     }
//  759     status = AppS2wParse_Int(p, &samplePeriod);
//  760     if(status != S2W_SUCCESS)
//  761     {
//  762         return status;
//  763     }
//  764     p = AppS2wParse_NextParamGet(&ptr);
//  765     if (p)
//  766     {
//  767         return S2W_EINVAL;
//  768     }
//  769     return AppS2wHal_codeCovg01(adcMode, refVoltage, clockSelect, samplePeriod);
//  770 
//  771 
//  772 }
//  773 
//  774 PUBLIC UINT8
//  775 AppS2wCmd_codeCvg02(UINT8 *ptr)
//  776 {
//  777     UINT8 *p;
//  778     UINT8 status;
//  779     UINT32 waitTime;
//  780 
//  781     p = AppS2wParse_NextParamGet(&ptr);
//  782     if (!p)
//  783     {
//  784       return S2W_EINVAL;
//  785     }
//  786     status = AppS2wParse_Int(p, &waitTime);
//  787     if(status != S2W_SUCCESS)
//  788     {
//  789         return status;
//  790     }
//  791 
//  792     p = AppS2wParse_NextParamGet(&ptr);
//  793     if (p)
//  794     {
//  795       return S2W_EINVAL;
//  796     }
//  797     return AppS2wHal_codeCovg02(waitTime);
//  798 }
//  799 
//  800 PUBLIC UINT8
//  801 AppS2wCmd_codeCvg03(UINT8 *ptr)
//  802 {
//  803     UINT8 *p;
//  804 
//  805     p = AppS2wParse_NextParamGet(&ptr);
//  806     if (p)
//  807     {
//  808       return S2W_EINVAL;
//  809     }
//  810     return AppS2wHal_codeCovg03();
//  811 }
//  812 
//  813 PUBLIC UINT8
//  814 AppS2wCmd_codeCvg04(UINT8 *ptr)
//  815 {
//  816     UINT8 *p;
//  817 
//  818     p = AppS2wParse_NextParamGet(&ptr);
//  819     if (p)
//  820     {
//  821       return S2W_EINVAL;
//  822     }
//  823     return AppS2wHal_codeCovg04();
//  824 
//  825 }
//  826 
//  827 PUBLIC UINT8
//  828 AppS2wCmd_codeCvg05(UINT8 *ptr)
//  829 {
//  830     UINT8 status;
//  831     UINT32 numElemnts;
//  832     UINT8 *p;
//  833 
//  834     p = AppS2wParse_NextParamGet(&ptr);
//  835     if (!p)
//  836     {
//  837       return S2W_EINVAL;
//  838     }
//  839     status = AppS2wParse_Int(p, &numElemnts);
//  840     if(status != S2W_SUCCESS)
//  841     {
//  842         return status;
//  843     }
//  844     return APPS2wHal_codeCovg05(numElemnts);
//  845 }
//  846 
//  847 PUBLIC UINT8
//  848 AppS2wCmd_codeCvg06(UINT8 *ptr)
//  849 {
//  850     UINT8 *p;
//  851 
//  852     p = AppS2wParse_NextParamGet(&ptr);
//  853     if (p)
//  854     {
//  855       return S2W_EINVAL;
//  856     }
//  857 
//  858     return APPS2wHal_codeCovg06();
//  859 
//  860 }
//  861 
//  862 PUBLIC UINT8
//  863 AppS2wCmd_codeCvg07(UINT8 *ptr)
//  864 {
//  865     UINT8 status;
//  866     UINT32 txPowLvl;
//  867     UINT8 *p;
//  868 
//  869     p = AppS2wParse_NextParamGet(&ptr);
//  870     if (!p)
//  871     {
//  872       return S2W_EINVAL;
//  873     }
//  874     status = AppS2wParse_Int(p, &txPowLvl);
//  875     if(status != S2W_SUCCESS)
//  876     {
//  877         return status;
//  878     }
//  879     return AppS2wHal_codeCovg07(txPowLvl);
//  880 }
//  881 
//  882 PUBLIC UINT8
//  883 AppS2wCmd_codeCvg08(UINT8 *ptr)
//  884 {
//  885     UINT8 *p;
//  886 
//  887     p = AppS2wParse_NextParamGet(&ptr);
//  888     if (p)
//  889     {
//  890       return S2W_EINVAL;
//  891     }
//  892 
//  893     return AppS2wHal_codeCovg08();
//  894 }
//  895 
//  896 PUBLIC UINT8
//  897 AppS2wCmd_codeCvg09(UINT8 *ptr)
//  898 {
//  899     UINT8 *p;
//  900 
//  901     p = AppS2wParse_NextParamGet(&ptr);
//  902     if (p)
//  903     {
//  904       return S2W_EINVAL;
//  905     }
//  906 
//  907     return AppS2wHal_codeCovg09();
//  908 }
//  909 #endif
//  910 
//  911 
//  912 
//  913 
//  914 /**
//  915  ******************************************************************
//  916  * @ingroup S2w-Application
//  917  * @brief Process the AT+WPSK command
//  918  * @param ptr Pointer to the user input string.
//  919  * @return status.
//  920  ******************************************************************/
//  921 #if 0 
//  922 UINT8
//  923 AppS2wCmd_Psk(UINT8 *ptr)
//  924 {
//  925     UINT8 status;
//  926     UINT8 psk[32];
//  927     status = AppS2wParse_Psk(ptr,psk);
//  928     if(status != S2W_SUCCESS)
//  929     {
//  930         return status;
//  931     }
//  932     return AppS2wHal_PskKeyStore(psk);
//  933 }
//  934 #endif
//  935 
//  936 
//  937 /**
//  938  ******************************************************************
//  939  * @ingroup S2w-Application
//  940  * @brief Process the AT+WSEC command. This function set the strict
//  941  * security feature.
//  942  * @param ptr Pointer to the user input string.
//  943  * @return S2W_SUCCESS - operation successful.
//  944  * @retval S2W_EINVAL  - operation failure-invalid command.
//  945  ******************************************************************/
//  946  #if 0
//  947 UINT8
//  948 AppS2wCmd_SecuritySet(UINT8 *ptr)
//  949 {
//  950     UINT8 status;
//  951     UINT32 SecMode;
//  952 
//  953     /* check the validity of parameter passed
//  954      */
//  955     status = AppS2wParse_Int(ptr, &SecMode);
//  956     if (status != S2W_SUCCESS)
//  957     {
//  958         return S2W_EINVAL;
//  959     }
//  960     /*  allowed values are upto 32(0x40) and or'd values also other than 0
//  961     0-->auto
//  962     1-->none
//  963     2-->wep
//  964     4-->wpapsk
//  965     8-->wpa2psk
//  966     16-->wpaE
//  967     32-->wpa2E
//  968     */
//  969     if(!((SecMode == SECTYPE_AUTO) || (SecMode == SECTYPE_NONE) ||(SecMode == SECTYPE_WEP)
//  970          ||(SecMode == SECTYPE_WPAPSK)||(SecMode == SECTYPE_WPA2PSK)||(SecMode == SECTYPE_WPA)
//  971          ||(SecMode == SECTYPE_WPA2)||(SecMode == SECTYPE_WPA2PSK_TKIP)))
//  972     {
//  973         return S2W_EINVAL;
//  974     }
//  975     /* update the active profile parameter
//  976      */
//  977 
//  978     {
//  979         s2wCurrent.securityType = SecMode;
//  980     }
//  981 
//  982     return S2W_SUCCESS;
//  983 }
//  984 
//  985 #endif
//  986 
//  987 /**
//  988  ******************************************************************
//  989  * @ingroup S2w-Application
//  990  * @brief Process the AT+WAPSM Command.
//  991      This function call the wdd ioctl function to set then association
//  992      ps poll conserve.
//  993  * @param ptr Pointer to the user string.
//  994  * @return S2W_SUCCESS - operation successful.
//  995  * @retval S2W_EINVAL  - operation failure-invalid command.
//  996  * @retval S2W_FAILURE - operation failure- disconnect failed.
//  997  ******************************************************************/
//  998 
//  999 #ifdef GSN_DHCP_SERVER_ENABLE
// 1000 extern GSN_DHCP_SRVR_T dhcpSrvr;
// 1001 extern GSN_MAC_ADDR_T* disconStaMac;
// 1002 PUBLIC VOID
// 1003 AppS2w_StaDisconnectSuccessProcess()
// 1004 {
// 1005     /* Remove the http entry */
// 1006     GsnDhcpSrvr_ClientDelete(&dhcpSrvr,disconStaMac );
// 1007 }
// 1008 #endif
// 1009 
// 1010 

        SECTION `.text`:CODE:NOROOT(1)
          CFI Block cfiBlock14 Using cfiCommon0
          CFI Function S2w_AsyncMsgGpioInit
        THUMB
// 1011 VOID S2w_AsyncMsgGpioInit()
// 1012 {
S2w_AsyncMsgGpioInit:
        PUSH     {R7,LR}
          CFI R14 Frame(CFA, -4)
          CFI CFA R13+8
// 1013     GsnIoMux_Sel(APP_S2W_ASYNC_GPIO, APP_S2W_ASYNC_GPIO_MUX);
        MOVS     R1,#+0
        MOVS     R0,#+19
          CFI FunCall GsnIoMux_Sel
        BL       GsnIoMux_Sel
// 1014     GsnIoMux_PullDownEnable (APP_S2W_ASYNC_GPIO);
          CFI FunCall GsnOsal_IntrDisable
        BL       GsnOsal_IntrDisable
        LDR.W    R1,??DataTable160  ;; 0x40160200
        LDR      R2,[R1, #+0]
        BIC      R2,R2,#0x80000
        STR      R2,[R1, #+0]
          CFI FunCall GsnOsal_IntrEnable
        BL       GsnOsal_IntrEnable
// 1015     /* Initialise as Output */
// 1016     GsnGpio_Init(APP_S2W_ASYNC_GPIO_BITMAP, ~APP_S2W_ASYNC_GPIO_BITMAP);
        MVN      R2,#+524288
        POP      {R12,LR}
          CFI R14 SameValue
          CFI CFA R13+0
        MOV      R3,#-1
        MOV      R0,#+524288
        MOVS     R1,#+0
          CFI FunCall GsnGpio_Init
        B.W      GsnGpio_Init
          CFI EndBlock cfiBlock14
// 1017 
// 1018 }
// 1019 

        SECTION `.text`:CODE:NOROOT(1)
          CFI Block cfiBlock15 Using cfiCommon0
          CFI Function S2w_AsyncMsgGpioOp
        THUMB
// 1020 VOID S2w_AsyncMsgGpioOp(UINT8 flag)
// 1021 {
// 1022     if(flag)
S2w_AsyncMsgGpioOp:
        CMP      R0,#+0
        MOV      R0,#+524288
        ITT      NE 
        MOVNE    R1,#+0
          CFI FunCall GsnGpio_OutIndvidualSet
        BNE.W    GsnGpio_OutIndvidualSet
// 1023     {
// 1024         GsnGpio_OutIndvidualSet(APP_S2W_ASYNC_GPIO_BITMAP);
// 1025     }
// 1026     else
// 1027     {
// 1028         GsnGpio_OutClear(APP_S2W_ASYNC_GPIO_BITMAP);
        MOVS     R1,#+0
          CFI FunCall GsnGpio_OutClear
        B.W      GsnGpio_OutClear
          CFI EndBlock cfiBlock15
// 1029     }
// 1030 }
// 1031 
// 1032 
// 1033 /**
// 1034  ******************************************************************
// 1035  * @ingroup S2w-Application
// 1036  * @brief Process the AT+ASYNCMSGFMT command
// 1037  *   This function check the input parameter and start/stop the
// 1038  *   enhanced asynchronous notification.
// 1039  * @param ptr Pointer to the user input string.
// 1040  * @return S2W_SUCCESS - operation successful.
// 1041  * @retval S2W_EINVAL  - operation failure-invalid command.
// 1042  * @retval S2W_FAILURE - operation failure.
// 1043  ******************************************************************/

        SECTION `.text`:CODE:NOROOT(1)
          CFI Block cfiBlock16 Using cfiCommon0
          CFI Function AppS2wCmd_AsyncMsgFmt
        THUMB
// 1044 PUBLIC UINT8
// 1045 AppS2wCmd_AsyncMsgFmt(UINT8 *ptr)
// 1046 {
AppS2wCmd_AsyncMsgFmt:
        PUSH     {R4,LR}
          CFI R14 Frame(CFA, -4)
          CFI R4 Frame(CFA, -8)
          CFI CFA R13+8
        SUB      SP,SP,#+8
          CFI CFA R13+16
// 1047     UINT8 val;
// 1048     UINT8 status = S2W_SUCCESS;
// 1049 
// 1050     status = AppS2wParse_Boolean(ptr, &val);
        ADD      R1,SP,#+0
          CFI FunCall AppS2wParse_Boolean
        BL       AppS2wParse_Boolean
        MOVS     R4,R0
// 1051     if (status != S2W_SUCCESS)
        BNE.N    ??AppS2wCmd_AsyncMsgFmt_0
// 1052     {
// 1053         return status;
// 1054     }
// 1055     s2wCurrent.asyncMsgFormat = val;
        LDR.W    R0,??DataTable160_1
        LDRB     R1,[SP, #+0]
        STRB     R1,[R0, #+472]
// 1056     if(s2wCurrent.asyncMsgFormat)
        MOVS     R0,R1
        BEQ.N    ??AppS2wCmd_AsyncMsgFmt_0
// 1057     {
// 1058        S2w_AsyncMsgGpioInit();
          CFI FunCall S2w_AsyncMsgGpioInit
        BL       S2w_AsyncMsgGpioInit
// 1059        S2w_AsyncMsgGpioOp(0);
        MOVS     R0,#+0
          CFI FunCall S2w_AsyncMsgGpioOp
        BL       S2w_AsyncMsgGpioOp
// 1060     }
// 1061     return status;
??AppS2wCmd_AsyncMsgFmt_0:
        MOV      R0,R4
        POP      {R1,R2,R4,PC}    ;; return
          CFI EndBlock cfiBlock16
// 1062 }
// 1063 
// 1064 
// 1065 
// 1066 #ifdef GSN_DHCP_SERVER_ENABLE
// 1067 extern GSN_DHCP_SRVR_T dhcpSrvr;
// 1068 #endif
// 1069 /**
// 1070  ******************************************************************
// 1071  * @ingroup S2w-Application
// 1072  * @brief Process the AT+VER command
// 1073  * @param ptr Pointer to the user input string.
// 1074  * @return status.
// 1075  ******************************************************************/
// 1076 
// 1077 
// 1078 #ifdef GS1500M
// 1079 /**
// 1080  ******************************************************************
// 1081  * @ingroup S2w-Application
// 1082  * @brief Process the AT+WSTAT Command.
// 1083  *
// 1084  * @param ptr Pointer to the user input string.
// 1085  *
// 1086  * @return S2W_SUCCESS - operation successful.
// 1087  ******************************************************************/
// 1088 
// 1089 
// 1090 /**
// 1091  ******************************************************************
// 1092  * @ingroup S2w-Application
// 1093  * @brief Process the AT+AGGR Command.
// 1094  *	 This function is used to enable or disable agrregation
// 1095  * @param ptr Pointer to the user input string.
// 1096  *
// 1097  * @return S2W_SUCCESS - operation successful.
// 1098  ******************************************************************/
// 1099 PUBLIC UINT8
// 1100 AppS2wCmd_AggregationSet(UINT8 *ptr)
// 1101 {
// 1102 	UINT8    status;
// 1103 	UINT32   txTidMask;
// 1104 	UINT32	 rxTidMask;
// 1105 	UINT32	 val;
// 1106     UINT8 *p;
// 1107 
// 1108 	p = AppS2wParse_NextParamGet(&ptr);
// 1109 
// 1110 	 if (!p)
// 1111     {
// 1112         return S2W_EINVAL;
// 1113     }
// 1114 
// 1115 	status = AppS2wParse_Hex(p, &txTidMask);  /* 16-bit mask allowing uplink ADDBA  negotiation; bit position indicates TID*/
// 1116 	if (status != S2W_SUCCESS)
// 1117 	{
// 1118 		return status;
// 1119 	}
// 1120 
// 1121 	p = AppS2wParse_NextParamGet(&ptr);
// 1122 	 if (!p)
// 1123     {
// 1124         return S2W_EINVAL;
// 1125     }
// 1126 
// 1127 	status = AppS2wParse_Hex(p, &rxTidMask); /* 16-bit mask to allow donwlink ADDBA negotiation; bit position indicates TID*/
// 1128 	if (status != S2W_SUCCESS)
// 1129 	{
// 1130 		return status;
// 1131 	}
// 1132 
// 1133 	val = (txTidMask <<16 ) |  rxTidMask;
// 1134 
// 1135 	GsnWdd_AggregationSet(&s2wappMainTaskCtxt->wdd, val);
// 1136 
// 1137 	return status;
// 1138 }
// 1139 
// 1140 
// 1141 /**
// 1142  ******************************************************************
// 1143  * @ingroup S2w-Application
// 1144  * @brief Process the AT+WKEEPALIVE  Command.
// 1145  *	 This function is used to configure keep alive interval
// 1146  * @param ptr Pointer to the user input string.
// 1147  *
// 1148  * @return S2W_SUCCESS - operation successful.
// 1149  ******************************************************************/
// 1150 PUBLIC UINT8
// 1151 AppS2wCmd_KeepAliveSet(UINT8 *ptr)
// 1152 {
// 1153 	UINT8    status;
// 1154 	UINT32    keepAliveInterval;
// 1155     UINT8 *p;
// 1156 
// 1157 
// 1158 	p = AppS2wParse_NextParamGet(&ptr);
// 1159 
// 1160 	 if (!p)
// 1161     {
// 1162         return S2W_EINVAL;
// 1163     }
// 1164 
// 1165 	   /* validate the parameter as enable/disable
// 1166      */
// 1167     status = AppS2wParse_Int(p, &keepAliveInterval);
// 1168     if (status != S2W_SUCCESS)
// 1169     {
// 1170         return status;
// 1171     }
// 1172 
// 1173 
// 1174 	GsnWdd_KeepAliveSet(&s2wappMainTaskCtxt->wdd, (UINT8)keepAliveInterval);
// 1175 	/* Update in RTC memory */
// 1176 	//appRtcMemData.wlanKeepAliveCount= (UINT8)keepAliveInterval;
// 1177 	//GsnWif_SysRtcMemWrite(&s2wappMainTaskCtxt->wifCtx, sizeof(appRtcMemData),
// 1178       //                    (UINT8 *)&appRtcMemData);
// 1179 
// 1180 	return status;
// 1181 }
// 1182 #endif
// 1183 
// 1184 #if 0
// 1185 #ifdef S2W_FILE_SYS
// 1186 #define S2W_WR_BUFF_SIZE	1024
// 1187 PUBLIC UINT8
// 1188 AppS2wHal_FileWriteDataGet(INT32 fd, UINT32 dataLen)
// 1189 {
// 1190     GSN_STATUS status = S2W_SUCCESS;
// 1191 	UINT8 *dataBuff;
// 1192 	UINT32 writeLen;
// 1193 
// 1194 	dataBuff = (UINT8 *)gsn_malloc(S2W_WR_BUFF_SIZE);
// 1195     if(NULL ==  dataBuff)
// 1196     {
// 1197         status = S2W_FAILURE;
// 1198         goto AppS2wHal_FileWriteDataGetExit;
// 1199     }
// 1200 	writeLen = 0;
// 1201     while(dataLen)
// 1202     {
// 1203         writeLen = dataLen >= S2W_WR_BUFF_SIZE? S2W_WR_BUFF_SIZE:dataLen;
// 1204 
// 1205         AppS2wHal_CharNGet(dataBuff,writeLen);
// 1206 		/* write in to file */
// 1207 		GsnFs_write(fd, dataBuff, writeLen);
// 1208 
// 1209 		dataLen -= writeLen;
// 1210         /*S2w_Printf("%d\r\n", dataLen);*/
// 1211     }
// 1212 	/* free the buffer */
// 1213 	gsn_free(dataBuff);
// 1214 AppS2wHal_FileWriteDataGetExit:
// 1215 	S2w_Printf("\r\nOK\r\n");
// 1216    return status;
// 1217 }
// 1218 #endif
// 1219 #endif
// 1220 
// 1221 
// 1222 
// 1223 
// 1224 
// 1225 INT32 s2wErrorCode=0;
// 1226 
// 1227 
// 1228 
// 1229 
// 1230 
// 1231 #ifdef S2W_GSLINK_RAW
// 1232 /**
// 1233 ******************************************************************
// 1234 * @ingroup S2w-Application
// 1235 * @brief Process the http data from the serial interface.
// 1236 *   This function reads the http data and sends to wifi.
// 1237 * @param dataLen the input data length.
// 1238 * @param hCid the cid of the http connection.
// 1239 * @return S2W_SUCCESS - operation successful.
// 1240 * @return S2W_FAILURE - operation Failed.
// 1241 ******************************************************************/

        SECTION `.text`:CODE:NOROOT(1)
          CFI Block cfiBlock17 Using cfiCommon0
          CFI Function AppS2wHal_RawhttpContentGet
        THUMB
// 1242 PUBLIC UINT8
// 1243 AppS2wHal_RawhttpContentGet(UINT32 dataLen, UINT8 hCid)
// 1244 {
AppS2wHal_RawhttpContentGet:
        PUSH     {R3-R9,LR}
          CFI R14 Frame(CFA, -4)
          CFI R9 Frame(CFA, -8)
          CFI R8 Frame(CFA, -12)
          CFI R7 Frame(CFA, -16)
          CFI R6 Frame(CFA, -20)
          CFI R5 Frame(CFA, -24)
          CFI R4 Frame(CFA, -28)
          CFI CFA R13+32
        MOV      R4,R0
        MOV      R8,R1
// 1245     GSN_STATUS status = S2W_SUCCESS;
// 1246     s2wCidList[hCid].httpdCtx.moreData=1;
        MOV      R0,#+296
        LDR.W    R1,??DataTable160_2
        LDR.W    R7,??DataTable160_3
        MLA      R9,R0,R8,R1
        ADD      R5,R9,#+148
        MOVS     R0,#+1
        MOVS     R6,#+0
        STRB     R0,[R5, #+12]
// 1247     while(dataLen)
??AppS2wHal_RawhttpContentGet_0:
        CBZ.N    R4,??AppS2wHal_RawhttpContentGet_1
// 1248     {
// 1249         s2wCidList[hCid].httpdCtx.httpdBufferLenUsed = dataLen >= 1000? 1000:dataLen;
        MOV      R0,#+1000
        CMP      R4,#+1000
        IT       LS 
        MOVLS    R0,R4
        STR      R0,[R9, #+148]
// 1250 #ifndef S2W_DUAL_INTERFACE_SUPPORT  
// 1251         AppS2wHal_CharNGet((UINT8*)s2wCidList[hCid].httpdCtx.httpdBuffer,s2wCidList[hCid].httpdCtx.httpdBufferLenUsed);
        MOV      R1,R0
        LDR      R0,[R5, #+8]
          CFI FunCall AppS2wHal_CharNGet
        BL       AppS2wHal_CharNGet
// 1252 #else
// 1253         AppS2wHal_CharNGet1((UINT8*)s2wCidList[hCid].httpdCtx.httpdBuffer,s2wCidList[hCid].httpdCtx.httpdBufferLenUsed);
// 1254 #endif
// 1255         dataLen = dataLen - s2wCidList[hCid].httpdCtx.httpdBufferLenUsed;
        LDR      R0,[R9, #+148]
        SUBS     R4,R4,R0
// 1256 	    if(0 == dataLen )
        IT       EQ 
        STRBEQ   R6,[R5, #+12]
// 1257 	    {
// 1258 	        s2wCidList[hCid].httpdCtx.moreData = 0;
// 1259 	    }
// 1260          AppS2w_HttpSemRelease(hCid);
        MOV      R0,R8
          CFI FunCall AppS2w_HttpSemRelease
        BL       AppS2w_HttpSemRelease
// 1261         GsnOsal_SemAcquire(&s2wCidList[hCid].httpdCtx.httpdSendSem,GSN_OSAL_WAIT_FOREVER);
        MOV      R1,#-1
        ADD      R0,R9,#+192
          CFI FunCall GsnOsal_SemAcquire
        BL       GsnOsal_SemAcquire
// 1262 		if(s2wappMainTaskCtxt->gsLinkSendStatus  == S2W_FAILURE)
        LDR      R1,[R7, #+0]
        MOVW     R0,#+27477
        LDRB     R0,[R0, R1]
        CMP      R0,#+1
        BNE.N    ??AppS2wHal_RawhttpContentGet_0
// 1263 		{
// 1264 			status = S2W_FAILURE;
        MOVS     R6,#+1
// 1265 			break;
// 1266 		}
// 1267 	}
// 1268     return status;
??AppS2wHal_RawhttpContentGet_1:
        MOV      R0,R6
        POP      {R1,R4-R9,PC}    ;; return
          CFI EndBlock cfiBlock17
// 1269 }
// 1270 #endif
// 1271 #ifdef S2W_HTTPC_SUPPORT
// 1272 #ifdef S2W_GSLINK
// 1273 

        SECTION `.text`:CODE:NOROOT(1)
          CFI Block cfiBlock18 Using cfiCommon0
          CFI Function AppS2wHal_GetStausCode
        THUMB
// 1274 UINT8
// 1275 AppS2wHal_GetStausCode(INT8 *httpRxBuf,UINT8 *statusCodeLen)
// 1276 {
AppS2wHal_GetStausCode:
        PUSH     {R2-R6,LR}
          CFI R14 Frame(CFA, -4)
          CFI R6 Frame(CFA, -8)
          CFI R5 Frame(CFA, -12)
          CFI R4 Frame(CFA, -16)
          CFI CFA R13+24
        MOV      R4,R0
        MOV      R5,R1
// 1277 	INT8 *current;
// 1278 	INT8 statusCode[5];
// 1279 	UINT8 status=S2W_SUCCESS;
        MOVS     R6,#+0
// 1280 	UINT32 len=0;
// 1281 	//current = strstr((const char *)httpRxBuf," ");
// 1282 	memcpy(statusCode,httpRxBuf,3);
        MOVS     R2,#+3
        MOV      R1,R4
        BL       ??Subroutine26_0
// 1283 	if(memcmp(statusCode,"200",3) != 0)
??CrossCallReturnLabel_257:
        MOVS     R2,#+3
        ADR.N    R1,??DataTable152  ;; "200"
        ADD      R0,SP,#+0
          CFI FunCall memcmp
        BL       memcmp
        CBZ.N    R0,??AppS2wHal_GetStausCode_0
// 1284 	{
// 1285 		status = S2W_FAILURE;	
        MOVS     R6,#+1
// 1286 	}
// 1287 	current = strstr((const char *)httpRxBuf,"\n");
??AppS2wHal_GetStausCode_0:
        ADR.N    R1,??DataTable153  ;; "\n"
        MOV      R0,R4
          CFI FunCall __iar_Strstr
        BL       __iar_Strstr
// 1288 	if(current == NULL)
        CBNZ.N   R0,??AppS2wHal_GetStausCode_1
// 1289 		status = S2W_FAILURE;	
        MOVS     R6,#+1
// 1290 	len = (current - httpRxBuf)+1;
// 1291 	*statusCodeLen = len;
??AppS2wHal_GetStausCode_1:
        SUBS     R0,R0,R4
        ADDS     R0,R0,#+1
        STRB     R0,[R5, #+0]
// 1292 	return status;
        MOV      R0,R6
        POP      {R1,R2,R4-R6,PC}  ;; return
          CFI EndBlock cfiBlock18
// 1293 }	
// 1294 
// 1295 #ifdef S2W_HTTP_CUSTOM_SUPPORT
// 1296 VOID
// 1297 AppS2w_HttpStatusLineSet(S2W_HTTPD_CONTEXT_T *httpdCtx,UINT8 statusline)
// 1298 {
// 1299     if(httpdCtx != NULL)
// 1300     {
// 1301         httpdCtx->statusline = statusline;
// 1302     }
// 1303 }
// 1304 
// 1305 VOID
// 1306 AppS2w_HttpHdrCountSet(S2W_HTTPD_CONTEXT_T *httpdCtx,UINT32 headercount)
// 1307 {
// 1308     if(httpdCtx != NULL)
// 1309     {
// 1310         httpdCtx->appheadercount = headercount;
// 1311     }
// 1312 }
// 1313 
// 1314 PUBLIC UINT8
// 1315 AppS2wCmd_RecvConf(UINT8 *ptr)
// 1316 {
// 1317     int cid, sendRespHdrs, sendStatus;
// 1318     UINT8 *p = NULL;
// 1319     UINT8 *hdr = NULL;
// 1320     UINT8 *status = NULL;
// 1321     UINT32 httpHddrBmap = 0;
// 1322 
// 1323     p = AppS2wParse_NextParamGet(&ptr);
// 1324     if (!p)
// 1325     {
// 1326         return S2W_EINVAL;
// 1327     }
// 1328     cid = AppS2w_CidValidate(*p);
// 1329     if( cid == INVALID_CID)
// 1330         return S2W_EBADCID;
// 1331 
// 1332 
// 1333     status = AppS2wParse_NextParamGet(&ptr);
// 1334     if (!status)
// 1335     {
// 1336        return S2W_EINVAL;
// 1337     }
// 1338     AppS2wParse_Int(status, &sendStatus);
// 1339     if(1 == sendStatus)
// 1340     {
// 1341         httpConfInfo.sendStatus = 1;
// 1342     }
// 1343     else
// 1344     {
// 1345     	httpConfInfo.sendStatus = 0;
// 1346     }
// 1347 
// 1348     /* Parse the Http header bitmap */
// 1349     hdr = AppS2wParse_NextParamGet(&ptr);
// 1350     if (!hdr)
// 1351     {
// 1352        return S2W_EINVAL;
// 1353     }
// 1354     AppS2wParse_HexString(hdr, &httpHddrBmap, HTTP_HDR_BITMAP_STR_SIZE);
// 1355     httpConfInfo.httpcHdrBmap = httpHddrBmap;
// 1356 
// 1357     return S2W_SUCCESS;
// 1358 }
// 1359 #endif
// 1360 
// 1361 
// 1362 /**
// 1363 ******************************************************************
// 1364 * @ingroup S2w-Application
// 1365 * @brief Process AT+XMLRECV command
// 1366 *	 This function adds the new URI.
// 1367 * @param ptr Pointer to the user input string.
// 1368 *
// 1369 * @return S2W_SUCCESS - operation successful.
// 1370 * @return S2W_FAILURE - operation Failed.
// 1371 * @return S2W_EINVAL - operation Failed-invalid input
// 1372 *************************************************************/
// 1373 
// 1374 
// 1375 
// 1376 
// 1377 #ifdef S2W_GSLINK_XML
// 1378 

        SECTION `.text`:CODE:NOROOT(1)
          CFI Block cfiBlock19 Using cfiCommon0
          CFI Function AppS2w_XmlRxBufferMgmtCb
        THUMB
// 1379 PUBLIC void
// 1380 AppS2w_XmlRxBufferMgmtCb(VOID *context,
// 1381                    GSN_HTTPC_CONN_HANDLE conHandle,
// 1382                      INT8 *httpRxDataBuf,
// 1383                      INT32 httpRxDataLen,
// 1384                      INT32* rxBufferOffset)
// 1385 {
AppS2w_XmlRxBufferMgmtCb:
        PUSH     {R4-R9,LR}
          CFI R14 Frame(CFA, -4)
          CFI R9 Frame(CFA, -8)
          CFI R8 Frame(CFA, -12)
          CFI R7 Frame(CFA, -16)
          CFI R6 Frame(CFA, -20)
          CFI R5 Frame(CFA, -24)
          CFI R4 Frame(CFA, -28)
          CFI CFA R13+28
        SUB      SP,SP,#+28
          CFI CFA R13+56
// 1386     UINT8 cid,status,headerLen,statusCodeLen=0;
        MOVS     R0,#+0
        STRB     R0,[SP, #+8]
        MOV      R4,R2
// 1387     INT8 startMark[10];
// 1388     ttHttpcConEntryPtr conEntryPtr = (ttHttpcConEntryPtr)conHandle;
// 1389 	GSN_STATUS decodeStatus = GSN_FAILURE;
// 1390 	headerLen=0;
// 1391     cid = AppS2wHal_CidFind(conEntryPtr->hconSd);
        LDR      R0,[R1, #+168]
        MOV      R8,R3
          CFI FunCall AppS2wHal_CidFind
        BL       AppS2wHal_CidFind
        MOV      R6,R0
// 1392 	if(s2wCidList[cid].httpdCtx.methodLineReceived==0)
        MOV      R0,#+296
        LDR.W    R1,??DataTable160_2
        LDR      R5,[SP, #+56]
        MLA      R9,R0,R6,R1
        LDRB     R0,[R9, #+161]
        CBNZ.N   R0,??AppS2w_XmlRxBufferMgmtCb_0
// 1393 	{
// 1394 		status = AppS2wHal_GetStausCode(httpRxDataBuf,&statusCodeLen);
        ADD      R1,SP,#+8
        MOV      R0,R4
          CFI FunCall AppS2wHal_GetStausCode
        BL       AppS2wHal_GetStausCode
        BL       ?Subroutine4
// 1395 		headerLen = sprintf(startMark,"%c%c%x%04d", S2W_ESC, 'H', cid,statusCodeLen);
??CrossCallReturnLabel_16:
        STR      R6,[SP, #+0]
        MOVS     R3,#+72
        MOVS     R2,#+27
        ADD      R0,SP,#+12
          CFI FunCall sprintf
        BL       sprintf
// 1396 #ifndef S2W_DUAL_INTERFACE_SUPPORT
// 1397 		AppS2wHal_CharNPut(startMark, headerLen);
        UXTB     R1,R0
        ADD      R0,SP,#+12
          CFI FunCall AppS2wHal_CharNPut
        BL       AppS2wHal_CharNPut
// 1398 		AppS2wHal_CharNPut(httpRxDataBuf,statusCodeLen);
        LDRB     R1,[SP, #+8]
        MOV      R0,R4
          CFI FunCall AppS2wHal_CharNPut
        BL       AppS2wHal_CharNPut
// 1399 #else
// 1400 		AppS2wHal_CharNPut1(startMark, headerLen);
// 1401 		AppS2wHal_CharNPut1(httpRxDataBuf,statusCodeLen);
// 1402 #endif
// 1403 #ifndef S2W_DUAL_INTERFACE_SUPPORT
// 1404 	    if(s2wappMainTaskCtxt->serialDeviceId == S2W_PORT_FS_SPI)
        LDR.W    R1,??DataTable160_3
        LDR      R1,[R1, #+0]
        MOVW     R0,#+27384
        LDRB     R0,[R0, R1]
        CMP      R0,#+2
        IT       EQ 
          CFI FunCall s2wSpiFs_Flush
        BLEQ     s2wSpiFs_Flush
// 1405 	    {
// 1406 	        s2wSpiFs_Flush();
// 1407 	    }
// 1408 #else
// 1409 	    if(s2wappMainTaskCtxt->serialDeviceId1 == S2W_PORT_FS_SPI)
// 1410 	    {
// 1411 	        s2wSpiFs_Flush1();
// 1412         }
// 1413 #endif
// 1414 		s2wCidList[cid].httpdCtx.methodLineReceived=1;		
        MOVS     R0,#+1
        STRB     R0,[R9, #+161]
// 1415 		if(status == S2W_SUCCESS)
        CBNZ.N   R7,??AppS2w_XmlRxBufferMgmtCb_1
// 1416 		{				
// 1417 			decodeStatus = GsnXMLStr_Decode(s2wCidList[cid].xmlParserCtx,(UINT8 *)httpRxDataBuf,httpRxDataLen,App_XmlParserCb,NULL);
// 1418 		}			
// 1419 	}
// 1420 	else				
// 1421 	{
// 1422 		decodeStatus= GsnXMLStr_Decode(s2wCidList[cid].xmlParserCtx,(UINT8 *)httpRxDataBuf,httpRxDataLen,App_XmlParserCb,NULL);
??AppS2w_XmlRxBufferMgmtCb_0:
        MOVS     R0,#+0
        STR      R0,[SP, #+0]
        MOV      R2,R8
        LDR      R0,[R9, #+228]
        LDR.W    R3,??DataTable161_2
        MOV      R1,R4
          CFI FunCall GsnXMLStr_Decode
        BL       GsnXMLStr_Decode
// 1423 	}
// 1424 	if(decodeStatus == GSN_XML_PARTIAL_ELEMENT)
        LDR.W    R1,??DataTable161_3  ;; 0x8000000c
        CMP      R0,R1
        BNE.N    ??AppS2w_XmlRxBufferMgmtCb_2
// 1425 	{
// 1426 		*rxBufferOffset = s2wCidList[cid].xmlParserCtx->bytesTodecode;// S2W_SUCCESS;
        LDR      R0,[R9, #+228]
        LDR      R0,[R0, #+40]
        B.N      ??AppS2w_XmlRxBufferMgmtCb_3
// 1427 	}
// 1428 	else if((decodeStatus == GSN_INVALID_PARAM) || (decodeStatus == GSN_FAILURE))
??AppS2w_XmlRxBufferMgmtCb_2:
        LDR.W    R1,??DataTable162  ;; 0x80000004
        CMP      R0,R1
        IT       NE 
        CMNNE    R0,#-2147483648
        BNE.N    ??AppS2w_XmlRxBufferMgmtCb_4
// 1429 		*rxBufferOffset = -1;
??AppS2w_XmlRxBufferMgmtCb_1:
        MOV      R0,#-1
??AppS2w_XmlRxBufferMgmtCb_3:
        STR      R0,[R5, #+0]
// 1430 }
??AppS2w_XmlRxBufferMgmtCb_4:
        ADD      SP,SP,#+28
          CFI CFA R13+28
        POP      {R4-R9,PC}       ;; return
          CFI EndBlock cfiBlock19

        SECTION `.text`:CODE:NOROOT(2)
        SECTION_TYPE SHT_PROGBITS, 0
        DATA
??DataTable147:
        DC8      0x0D, 0x0A, 0x00, 0x00
// 1431 /**
// 1432  ******************************************************************
// 1433  * @ingroup S2w-Application
// 1434  * @brief Http client send function.
// 1435  * @param cid                - IN the cid needs to be closed
// 1436  * @retval S2W_SUCCESS     - operation successfull.
// 1437  * @retval S2W_EBADCID     - cid is not valid.
// 1438  * @retval S2W_FAILURE     - operation failed.
// 1439  ******************************************************************/

        SECTION `.text`:CODE:NOROOT(1)
          CFI Block cfiBlock20 Using cfiCommon0
          CFI Function S2wHttp_XmlSend
        THUMB
// 1440 PUBLIC GSN_STATUS S2wHttp_XmlSend(UINT8 cid)
// 1441 {
S2wHttp_XmlSend:
        PUSH     {R4-R8,LR}
          CFI R14 Frame(CFA, -4)
          CFI R8 Frame(CFA, -8)
          CFI R7 Frame(CFA, -12)
          CFI R6 Frame(CFA, -16)
          CFI R5 Frame(CFA, -20)
          CFI R4 Frame(CFA, -24)
          CFI CFA R13+24
        SUB      SP,SP,#+32
          CFI CFA R13+56
// 1442     UINT8 *httpRxDataBuf = NULL;
        MOVS     R5,#+0
        MOV      R4,R0
// 1443     UINT32 httpRxDataLen = 0;
        STR      R5,[SP, #+12]
// 1444     UINT32 ret = S2W_SUCCESS;
// 1445     INT8 startMark[10];
// 1446 	UINT8 statusCodeLen=0,headerLen=0;
        STRB     R5,[SP, #+8]
// 1447 #ifdef S2W_HTTPC_SUPPORT
// 1448     S2W_HTTP_DATA_T *pHttpData;
// 1449 #endif
// 1450     pHttpData = (S2W_HTTP_DATA_T *)AppS2wHal_HttpHandleGet(cid);
          CFI FunCall AppS2wHal_HttpHandleGet
        BL       AppS2wHal_HttpHandleGet
        MOVS     R8,R0
// 1451     if(pHttpData == NULL)
        IT       EQ 
        MOVEQ    R0,#+1
// 1452     {
// 1453          return S2W_FAILURE;
        BEQ.N    ??S2wHttp_XmlSend_0
// 1454     }
// 1455     if(0 == httpConfInfo.moredata)
        LDR.W    R6,??DataTable162_1
        LDRB     R0,[R6, #+72]
        ADDS     R7,R6,#+4
        CBNZ.N   R0,??S2wHttp_XmlSend_1
// 1456     {/* prepare to receive response */
// 1457         httpRxDataLen = 1024 ;
        MOV      R0,#+1024
        STR      R0,[SP, #+12]
// 1458         httpRxDataBuf = gsn_malloc(1024);
        MOVS     R2,#+0
        MOVW     R1,#+1458
          CFI FunCall GsnDynMemMgmt_Alloc
        BL       GsnDynMemMgmt_Alloc
        MOVS     R5,R0
// 1459         if(NULL == httpRxDataBuf)
        BNE.N    ??S2wHttp_XmlSend_2
// 1460         {
// 1461             ret = S2W_FAILURE;
// 1462 			goto S2wHttp_XmlSendExit;
// 1463         }
// 1464         httpConfInfo.rxBufferMgmtCb = AppS2w_XmlRxBufferMgmtCb;
// 1465       httpConfInfo.rxBufferMgmtCbCtx = NULL;
// 1466     }
// 1467 	/*Make all the custom headers types as 255 - This is done to coply withi the ROM code which is
// 1468 	compiled with header type array being defined as array of UINT8 */
// 1469 	{
// 1470 		UINT8 i;
// 1471 		for( i = 0; i < S2W_HTTPC_MAX_HDR_SUPPORTED; i++)
// 1472         {
// 1473         	if(headerTypes[i] >= (GSN_HTTP_USER_HEADER_TYPE_T)TM_HTTP_HEADER_CUSTOM)
// 1474 			{
// 1475 				headerTypesModified[i] = (GSN_HTTP_USER_HEADER_TYPE_T) TM_HTTP_HEADER_CUSTOM;
// 1476 			}
// 1477 			else
// 1478 			{
// 1479         		headerTypesModified[i] = headerTypes[i];
// 1480 			}
// 1481         }
// 1482 	}
// 1483     ret = GsnHttp_Send(pHttpData->pHttpHandle, (INT8 *)httpRxDataBuf,
// 1484                        &httpRxDataLen, httpConfInfo.httpTimeOut, &httpConfInfo);
// 1485     if(GSN_SUCCESS == ret)
// 1486     {
// 1487         if(0 == httpConfInfo.moredata)
// 1488         {
// 1489 			if(s2wCidList[cid].httpdCtx.methodLineReceived==0)
// 1490         	{
// 1491 				ret = AppS2wHal_GetStausCode((INT8 *)httpRxDataBuf,&statusCodeLen);
// 1492     			headerLen = sprintf(startMark,"%c%c%x%04d", S2W_ESC, 'H', cid,statusCodeLen);
// 1493 #ifndef S2W_DUAL_INTERFACE_SUPPORT
// 1494 				AppS2wHal_CharNPut(startMark, headerLen);
// 1495 				AppS2wHal_CharNPut(httpRxDataBuf,statusCodeLen);
// 1496 #else
// 1497 				AppS2wHal_CharNPut1(startMark, headerLen);
// 1498 				AppS2wHal_CharNPut1(httpRxDataBuf,statusCodeLen);
// 1499 #endif
// 1500 #ifndef S2W_DUAL_INTERFACE_SUPPORT
// 1501 			    if(s2wappMainTaskCtxt->serialDeviceId == S2W_PORT_FS_SPI)
// 1502 			    {
// 1503 			        s2wSpiFs_Flush();
// 1504 			    }
// 1505 #else
// 1506 			    if(s2wappMainTaskCtxt->serialDeviceId1 == S2W_PORT_FS_SPI)
// 1507 			    {
// 1508 			        s2wSpiFs_Flush1();
// 1509                 }
// 1510 #endif
// 1511 				s2wCidList[cid].httpdCtx.methodLineReceived=0;
// 1512 				if(ret == S2W_SUCCESS)
// 1513 				{				
// 1514 					 GsnXMLStr_Decode(s2wCidList[cid].xmlParserCtx,(UINT8 *)httpRxDataBuf,httpRxDataLen,App_XmlParserCb,NULL);
// 1515 				}			
// 1516 			}
// 1517 			else				
// 1518 			{
// 1519 				 GsnXMLStr_Decode(s2wCidList[cid].xmlParserCtx,(UINT8 *)httpRxDataBuf,httpRxDataLen,App_XmlParserCb,NULL);
// 1520 			}						
// 1521         }
// 1522         ret = S2W_SUCCESS;
// 1523     }
// 1524     else /* ERROR or TimeOut */
// 1525     {
// 1526         ret = S2W_FAILURE;
// 1527     }
// 1528     if(NULL != httpRxDataBuf)
// 1529     {
// 1530         gsn_free(httpRxDataBuf);
// 1531         httpRxDataBuf = NULL;
// 1532     }
// 1533 		if(NULL != httpConfInfo.reqPathPtr)
// 1534 		   {
// 1535 			   gsn_free(httpConfInfo.reqPathPtr);
// 1536 			   httpConfInfo.reqPathPtr = NULL;
// 1537 		   }
// 1538 S2wHttp_XmlSendExit:
// 1539 		if(NULL != httpConfInfo.reqPathPtr)
        LDR      R0,[R6, #+4]
        MOVS     R4,#+1
        CMP      R0,#+0
        BEQ.N    ??S2wHttp_XmlSend_3
        B.N      ??S2wHttp_XmlSend_4
??S2wHttp_XmlSend_2:
        LDR.W    R0,??DataTable162_2
        STR      R0,[R7, #+56]
        MOVS     R0,#+0
        STR      R0,[R7, #+60]
??S2wHttp_XmlSend_1:
        MOVS     R0,#+0
        LDR.W    R1,??DataTable162_3
        LDR.W    R2,??DataTable162_4
??S2wHttp_XmlSend_5:
        LDR      R3,[R2, R0, LSL #+2]
        CMP      R3,#+255
        IT       CS 
        MOVCS    R3,#+255
        STR      R3,[R1, R0, LSL #+2]
        ADDS     R0,R0,#+1
        CMP      R0,#+25
        BCC.N    ??S2wHttp_XmlSend_5
        STR      R6,[SP, #+0]
        LDR      R3,[R7, #+64]
        LDR      R0,[R8, #+0]
        ADD      R2,SP,#+12
        MOV      R1,R5
          CFI FunCall GsnHttp_Send
        BL       GsnHttp_Send
        CMP      R0,#+0
        BNE.N    ??S2wHttp_XmlSend_6
        LDRB     R0,[R6, #+72]
        CMP      R0,#+0
        BNE.N    ??S2wHttp_XmlSend_7
        MOV      R0,#+296
        LDR.W    R1,??DataTable160_2
        MLA      R8,R0,R4,R1
        LDRB     R0,[R8, #+161]
        CBNZ.N   R0,??S2wHttp_XmlSend_8
        ADD      R1,SP,#+8
        MOV      R0,R5
          CFI FunCall AppS2wHal_GetStausCode
        BL       AppS2wHal_GetStausCode
        BL       ?Subroutine4
??CrossCallReturnLabel_17:
        STR      R4,[SP, #+0]
        MOVS     R3,#+72
        MOVS     R2,#+27
        ADD      R0,SP,#+16
          CFI FunCall sprintf
        BL       sprintf
        UXTB     R1,R0
        ADD      R0,SP,#+16
          CFI FunCall AppS2wHal_CharNPut
        BL       AppS2wHal_CharNPut
        LDRB     R1,[SP, #+8]
        BL       ??Subroutine5_0
??CrossCallReturnLabel_18:
        LDR.W    R1,??DataTable160_3
        LDR      R1,[R1, #+0]
        MOVW     R0,#+27384
        LDRB     R0,[R0, R1]
        CMP      R0,#+2
        IT       EQ 
          CFI FunCall s2wSpiFs_Flush
        BLEQ     s2wSpiFs_Flush
        MOVS     R0,#+0
        STRB     R0,[R8, #+161]
        CBNZ.N   R7,??S2wHttp_XmlSend_7
??S2wHttp_XmlSend_8:
        MOVS     R0,#+0
        STR      R0,[SP, #+0]
        MOV      R1,R5
        LDR      R2,[SP, #+12]
        LDR      R0,[R8, #+228]
        LDR.W    R3,??DataTable161_2
          CFI FunCall GsnXMLStr_Decode
        BL       GsnXMLStr_Decode
??S2wHttp_XmlSend_7:
        MOVS     R4,#+0
        B.N      ??S2wHttp_XmlSend_9
??S2wHttp_XmlSend_6:
        MOVS     R4,#+1
??S2wHttp_XmlSend_9:
        CBZ.N    R5,??S2wHttp_XmlSend_10
        MOV      R0,R5
          CFI FunCall GsnDynMemMgmt_Free
        BL       GsnDynMemMgmt_Free
??S2wHttp_XmlSend_10:
        LDR      R0,[R6, #+4]
        CBZ.N    R0,??S2wHttp_XmlSend_3
// 1540 		   {
// 1541 			   gsn_free(httpConfInfo.reqPathPtr);
??S2wHttp_XmlSend_4:
        LDR      R0,[R6, #+4]
          CFI FunCall GsnDynMemMgmt_Free
        BL       GsnDynMemMgmt_Free
// 1542 			   httpConfInfo.reqPathPtr = NULL;
        MOVS     R0,#+0
        STR      R0,[R6, #+4]
// 1543 		   }
// 1544     return ret;
??S2wHttp_XmlSend_3:
        MOV      R0,R4
??S2wHttp_XmlSend_0:
        ADD      SP,SP,#+32
          CFI CFA R13+24
        POP      {R4-R8,PC}       ;; return
          CFI EndBlock cfiBlock20
// 1545 }

        SECTION `.text`:CODE:NOROOT(1)
          CFI Block cfiCond21 Using cfiCommon0
          CFI Function AppS2w_XmlRxBufferMgmtCb
          CFI NoCalls
          CFI NoCalls
          CFI Conditional ??CrossCallReturnLabel_16
          CFI R4 Frame(CFA, -28)
          CFI R5 Frame(CFA, -24)
          CFI R6 Frame(CFA, -20)
          CFI R7 Frame(CFA, -16)
          CFI R8 Frame(CFA, -12)
          CFI R9 Frame(CFA, -8)
          CFI R14 Frame(CFA, -4)
          CFI CFA R13+56
          CFI Block cfiCond22 Using cfiCommon0
          CFI (cfiCond22) Function S2wHttp_XmlSend
          CFI (cfiCond22) NoCalls AppS2w_XmlRxBufferMgmtCb
          CFI (cfiCond22) NoCalls S2wHttp_XmlSend
          CFI (cfiCond22) Conditional ??CrossCallReturnLabel_17
          CFI (cfiCond22) R4 Frame(CFA, -24)
          CFI (cfiCond22) R5 Frame(CFA, -20)
          CFI (cfiCond22) R6 Frame(CFA, -16)
          CFI (cfiCond22) R7 Frame(CFA, -12)
          CFI (cfiCond22) R8 Frame(CFA, -8)
          CFI (cfiCond22) R14 Frame(CFA, -4)
          CFI (cfiCond22) CFA R13+56
          CFI Block cfiPicker23 Using cfiCommon1
          CFI (cfiPicker23) NoFunction
          CFI (cfiPicker23) NoCalls AppS2w_XmlRxBufferMgmtCb
          CFI (cfiPicker23) NoCalls S2wHttp_XmlSend
          CFI (cfiPicker23) Picker
        THUMB
?Subroutine4:
        MOV      R7,R0
        LDRB     R0,[SP, #+8]
        LDR.W    R1,??DataTable162_5
        STR      R0,[SP, #+4]
        BX       LR
          CFI EndBlock cfiCond21
          CFI EndBlock cfiCond22
          CFI EndBlock cfiPicker23

        SECTION `.text`:CODE:NOROOT(2)
        SECTION_TYPE SHT_PROGBITS, 0
        DATA
??DataTable149:
        DC8      " ",0x0,0x0
// 1546 
// 1547 
// 1548 
// 1549 /**
// 1550  ******************************************************************
// 1551  * @ingroup S2w-Application
// 1552  * @brief Process the http data from the serial interface.
// 1553  *   This function reads the http data and sends to wifi.
// 1554  * @param hCid the cid of the http connection.
// 1555  * @return S2W_SUCCESS - operation successful.
// 1556  * @return S2W_FAILURE - operation Failed.
// 1557  ******************************************************************/

        SECTION `.text`:CODE:NOROOT(1)
          CFI Block cfiBlock24 Using cfiCommon0
          CFI Function AppS2wHal_XmlPost
        THUMB
// 1558 PUBLIC UINT8
// 1559 AppS2wHal_XmlPost( UINT8 hCid)
// 1560 {
AppS2wHal_XmlPost:
        PUSH     {R3-R5,LR}
          CFI R14 Frame(CFA, -4)
          CFI R5 Frame(CFA, -8)
          CFI R4 Frame(CFA, -12)
          CFI CFA R13+16
// 1561 	GSN_STATUS status = S2W_SUCCESS;
// 1562     //S2W_HTTP_DATA_T *pHttpData;
// 1563 	INT8 *buffer;
// 1564 	UINT32 	dataLen=0/*,sendDataCount=0*/;
// 1565 
// 1566 	buffer = s2wCidList[hCid].httpdCtx.httpdBuffer;
// 1567 	//buffer = buffer - s2wCidList[hCid].httpdCtx.httpdBufferLenUsed;
// 1568 	dataLen = s2wCidList[hCid].httpdCtx.httpdBufferLenUsed;
// 1569     httpConfInfo.moredata = 1;
// 1570 	httpConfInfo.reqBodyPtr = buffer;
        MOV      R2,#+296
        LDR.W    R3,??DataTable160_2
        LDR.W    R4,??DataTable162_1
        MLA      R2,R2,R0,R3
        ADD      R3,R2,#+148
        MOVS     R1,#+1
        LDR      R5,[R3, #+8]
        STR      R5,[R4, #+20]
// 1571     httpConfInfo.reqBodyLen = dataLen;
        ADD      R5,R4,#+20
        LDR      R2,[R2, #+148]
        STR      R2,[R5, #+4]
// 1572 
// 1573     if(0 == s2wCidList[hCid].xmlParserCtx->moreData )
        LDR      R2,[R3, #+80]
        LDR      R2,[R2, #+24]
        CBNZ.N   R2,??AppS2wHal_XmlPost_0
// 1574     {
// 1575         httpConfInfo.moredata = 0;
        MOVS     R1,#+0
??AppS2wHal_XmlPost_0:
        STRB     R1,[R4, #+72]
// 1576     }
// 1577     status = S2wHttp_XmlSend(hCid);
          CFI FunCall S2wHttp_XmlSend
        BL       S2wHttp_XmlSend
// 1578 
// 1579 	httpConfInfo.reqBodyLen = 0;
        MOVS     R1,#+0
        STR      R1,[R5, #+4]
// 1580     if(status != S2W_SUCCESS)
        CBZ.N    R0,??AppS2wHal_XmlPost_1
// 1581     {
// 1582     	httpConfInfo.moredata = 0;
        STRB     R1,[R4, #+72]
// 1583         return S2W_FAILURE;
        MOVS     R0,#+1
// 1584     }
// 1585 return status;
??AppS2wHal_XmlPost_1:
        POP      {R1,R4,R5,PC}    ;; return
          CFI EndBlock cfiBlock24
// 1586 }
// 1587 
// 1588 
// 1589 #ifdef S2W_HTTP_CUSTOM_SUPPORT
// 1590 extern ttConstCharPtr const TM_CONST_QLF
// 1591 tlHttpdContentTypes[TM_HTTPD_CONTENT_TYPES_MAX] ;
// 1592 
// 1593 extern const char  TM_CONST_QLF tlHttpdChunked[];
// 1594 UINT8
// 1595 AppS2w_HttpAddHdr(S2W_HTTPD_CONTEXT_T *httpdCtx, ttHttpUserHeaderType httphdrtype, UINT8  *httphdrvalptr)
// 1596 {
// 1597     UINT32   i;
// 1598     UINT32 totalhdrcount;
// 1599 
// 1600     if((NULL == httpdCtx) || (NULL == httpdCtx->httphdrvalptrptr) ||
// 1601        (NULL == httpdCtx->httphdrnameptrptr) || (NULL == httpdCtx->httphdrtypeptr) || (NULL == httphdrvalptr))
// 1602     {
// 1603         return S2W_FAILURE;
// 1604     }
// 1605 
// 1606     totalhdrcount = httpdCtx->appheadercount + HTTP_STATIC_HDR_COUNT;
// 1607     /* search for an empty slot */
// 1608     for(i = 0; i < totalhdrcount; i++)
// 1609     {
// 1610         if(NULL == httpdCtx->httphdrvalptrptr[i])
// 1611         {
// 1612             //httpdCtx->httphdrnameptrptr[i] = gsn_malloc(hdrnamelen + 1);
// 1613             *(httpdCtx->httphdrvalptrptr + i) = gsn_malloc(strlen(httphdrvalptr) + 1);
// 1614             memset((*(httpdCtx->httphdrvalptrptr + i)), 0, (strlen(httphdrvalptr) + 1));
// 1615             break;
// 1616         }
// 1617     }
// 1618 
// 1619     if(i < totalhdrcount)
// 1620     {
// 1621 //        strncpy(httpdCtx->httphdrnameptrptr, dataBuffer, hdrnamelen);
// 1622         strncpy(httpdCtx->httphdrvalptrptr[i], httphdrvalptr, strlen(httphdrvalptr));
// 1623         httpdCtx->httphdrtypeptr[i] = httphdrtype;
// 1624         httpdCtx->headercount++;
// 1625     }
// 1626     return S2W_SUCCESS;
// 1627 }
// 1628 
// 1629 UINT8 AppS2w_HttpAddStaticHdr(S2W_HTTPD_CONTEXT_T *httpdCtx, UINT32 totalhdrcount)
// 1630 {
// 1631     UINT8        headerValue[32];
// 1632     UINT8       *tmpPtr;
// 1633     if(NULL == httpdCtx)
// 1634     {
// 1635         return S2W_FAILURE;
// 1636     }
// 1637 
// 1638     /* Get the HTTP format string of the current time */
// 1639     memset(headerValue, 0, 32);
// 1640     tmpPtr = tfHttpGetCurrentTime(headerValue, 32);
// 1641     if (tmpPtr == headerValue)
// 1642     /* no converstion, because the buffer was too small */
// 1643     {
// 1644         return S2W_FAILURE;
// 1645     }
// 1646 
// 1647     AppS2w_HttpAddHdr(httpdCtx, TM_HTTP_HEADER_DATE, headerValue);
// 1648     AppS2w_HttpAddHdr(httpdCtx, TM_HTTP_HEADER_CONTENT_TYPE, (unsigned char *)tlHttpdContentTypes[TM_HTTPD_CONTENT_TEXT_XML]);
// 1649     AppS2w_HttpAddHdr(httpdCtx, TM_HTTP_HEADER_TRANSFER_ENCODING, (unsigned char *)tlHttpdChunked);
// 1650 }
// 1651 
// 1652 UINT8
// 1653 AppS2w_HttpDataProcess(UINT8 cid,UINT8 *dataBuffer,UINT32 inBuflen, UINT32 elementType)
// 1654 {
// 1655     UINT32 bufSpaceLeft;
// 1656     UINT8 status = S2W_SUCCESS;
// 1657     UINT32  statuscode;
// 1658     UINT8   *databuf;
// 1659     UINT32   count = 0;
// 1660     UINT32   i, hdrnamelen, hdrvallen, totalhdrcount;
// 1661     UINT8   statuscodestr[4];
// 1662     //s2wCidList[cid].httpdCtx.
// 1663 
// 1664     if (httpConfInfo.reqMethod == GSN_HTTP_METHOD_GETRESP || httpConfInfo.reqMethod == GSN_HTTP_METHOD_POSTRESP)
// 1665     {
// 1666         if(S2W_HTTP_RESPONSE_LINE == elementType)
// 1667         {
// 1668             /* Get status code from incoming buffer */
// 1669             strncpy(statuscodestr, dataBuffer, 3);
// 1670             AppS2wParse_Int(statuscodestr, &statuscode);
// 1671             if(0 != statuscode)
// 1672             {
// 1673                 s2wCidList[cid].httpdCtx.statuscode = statuscode;
// 1674             }
// 1675             /* Copy response phrase from incoming buffer */
// 1676             databuf = dataBuffer;
// 1677             while((*databuf != ':') && (count < inBuflen))
// 1678             {
// 1679                 databuf++;
// 1680                 count++;
// 1681             }
// 1682             if(count < inBuflen)
// 1683             {
// 1684                 s2wCidList[cid].httpdCtx.respphrase = gsn_malloc(inBuflen - count + 1);
// 1685                 if(NULL != s2wCidList[cid].httpdCtx.respphrase)
// 1686                 {
// 1687                     strncpy(s2wCidList[cid].httpdCtx.respphrase, (databuf + 1), (inBuflen - count - 1));
// 1688                     *(s2wCidList[cid].httpdCtx.respphrase + (inBuflen - count - 1)) = '\0';
// 1689                 }
// 1690             }
// 1691         }
// 1692         if(S2W_HTTP_HEADER == elementType)
// 1693         {
// 1694             if(0 != s2wCidList[cid].httpdCtx.appheadercount)
// 1695             {
// 1696                /* calculate the length of the header name and header value */
// 1697                databuf = dataBuffer;
// 1698                while((*databuf != '=') && (count < inBuflen))
// 1699                {
// 1700                    databuf++;
// 1701                    count++;
// 1702                }
// 1703                if(count < inBuflen)
// 1704                {
// 1705                    hdrnamelen = count;
// 1706                    hdrvallen = inBuflen - count - 1;
// 1707                    totalhdrcount = s2wCidList[cid].httpdCtx.appheadercount + HTTP_STATIC_HDR_COUNT;
// 1708                    /* If it is the first header coming in, allocate buffer to accommodate all the header ptrs */
// 1709                    if((NULL == s2wCidList[cid].httpdCtx.httphdrvalptrptr) && (NULL == s2wCidList[cid].httpdCtx.httphdrnameptrptr) &&
// 1710                        (NULL == s2wCidList[cid].httpdCtx.httphdrtypeptr))
// 1711                    {
// 1712                        s2wCidList[cid].httpdCtx.httphdrvalptrptr = gsn_malloc(totalhdrcount * sizeof(s2wCidList[cid].httpdCtx.httphdrvalptrptr));
// 1713                        s2wCidList[cid].httpdCtx.httphdrnameptrptr = gsn_malloc(totalhdrcount * sizeof(s2wCidList[cid].httpdCtx.httphdrnameptrptr));
// 1714                        s2wCidList[cid].httpdCtx.httphdrtypeptr = gsn_malloc(totalhdrcount * sizeof(s2wCidList[cid].httpdCtx.httphdrtypeptr));
// 1715                        /* Add static headers here */
// 1716                        if((NULL != s2wCidList[cid].httpdCtx.httphdrvalptrptr) && (NULL != s2wCidList[cid].httpdCtx.httphdrnameptrptr) &&
// 1717                           (NULL != s2wCidList[cid].httpdCtx.httphdrtypeptr))
// 1718                        {
// 1719                            memset(s2wCidList[cid].httpdCtx.httphdrtypeptr, 0, (totalhdrcount * sizeof(s2wCidList[cid].httpdCtx.httphdrtypeptr)));
// 1720                            memset(s2wCidList[cid].httpdCtx.httphdrnameptrptr, 0, (totalhdrcount * sizeof(s2wCidList[cid].httpdCtx.httphdrnameptrptr)));
// 1721                            memset(s2wCidList[cid].httpdCtx.httphdrvalptrptr, 0, (totalhdrcount * sizeof(s2wCidList[cid].httpdCtx.httphdrvalptrptr)));
// 1722                            AppS2w_HttpAddStaticHdr(&s2wCidList[cid].httpdCtx, totalhdrcount);
// 1723                        }
// 1724                    }
// 1725                    /* start filling the headers */
// 1726                    if((NULL != s2wCidList[cid].httpdCtx.httphdrvalptrptr) && (NULL != s2wCidList[cid].httpdCtx.httphdrnameptrptr) &&
// 1727                       (NULL != s2wCidList[cid].httpdCtx.httphdrtypeptr))
// 1728                    {
// 1729                        /* search for an empty slot */
// 1730                        for(i = 0; i < totalhdrcount; i++)
// 1731                        {
// 1732                            if(NULL == s2wCidList[cid].httpdCtx.httphdrvalptrptr[i])
// 1733                            {
// 1734                                s2wCidList[cid].httpdCtx.httphdrvalptrptr[i] = gsn_malloc(hdrvallen + 1);
// 1735                                s2wCidList[cid].httpdCtx.httphdrnameptrptr[i] = gsn_malloc(hdrnamelen + 1);
// 1736                                s2wCidList[cid].httpdCtx.httphdrtypeptr[i] = TM_HTTP_HEADER_CUSTOM;
// 1737                                break;
// 1738                            }
// 1739                        }
// 1740 
// 1741                        if(i < totalhdrcount)
// 1742                        {
// 1743                            memcpy(s2wCidList[cid].httpdCtx.httphdrnameptrptr[i], dataBuffer, hdrnamelen);
// 1744                            *(s2wCidList[cid].httpdCtx.httphdrnameptrptr[i] + hdrnamelen) = '\0';
// 1745                            memcpy(s2wCidList[cid].httpdCtx.httphdrvalptrptr[i], databuf+1, hdrvallen);
// 1746                            *(s2wCidList[cid].httpdCtx.httphdrvalptrptr[i] + hdrvallen) = '\0';
// 1747                            s2wCidList[cid].httpdCtx.headercount++;
// 1748                        }
// 1749                    }
// 1750 
// 1751                }
// 1752             }
// 1753         }
// 1754     }
// 1755     return status;
// 1756 }
// 1757 #endif
// 1758 
// 1759 #endif
// 1760 
// 1761 #endif
// 1762 #endif
// 1763 
// 1764 #ifdef S2W_RF_TEST
// 1765 //PRIVATE UINT8 AppS2sw_RfTestTx99(UINT8 *ptr,GSN_WIF_API_WLAN_RF_TEST_TX99_START_PARAM_T *param);
// 1766 
// 1767 //PRIVATE UINT8 AppS2sw_RfTestTx100(UINT8 *ptr,GSN_WIF_API_WLAN_RF_TEST_TX100_START_PARAM_T *param);
// 1768 

        SECTION `.text`:CODE:NOROOT(1)
          CFI Block cfiBlock25 Using cfiCommon0
          CFI Function AppS2wCmd_RfTestStop
        THUMB
// 1769 PUBLIC UINT8 
// 1770 AppS2wCmd_RfTestStop (UINT8 *ptr)
// 1771 {
AppS2wCmd_RfTestStop:
        PUSH     {R7,LR}
          CFI R14 Frame(CFA, -4)
          CFI CFA R13+8
// 1772 	UINT8 status;
// 1773 	GSN_WDD_CTX_T *pWddRfTest;
// 1774 	pWddRfTest = &appCtx.if0.wddCtx;
// 1775 	status = GsnWdd_RfTestModeStop(pWddRfTest);
// 1776 	return status;
        LDR.W    R0,??DataTable162_6
          CFI FunCall GsnWdd_RfTestModeStop
        BL       GsnWdd_RfTestModeStop
        UXTB     R0,R0
        POP      {R1,PC}          ;; return
          CFI EndBlock cfiBlock25
// 1777 }
// 1778 
// 1779 

        SECTION `.text`:CODE:NOROOT(1)
          CFI Block cfiBlock26 Using cfiCommon0
          CFI Function AppS2wCmd_RfTestStart
        THUMB
// 1780 PUBLIC UINT8
// 1781 AppS2wCmd_RfTestStart (UINT8 *ptr)
// 1782 {
AppS2wCmd_RfTestStart:
        PUSH     {R4,LR}
          CFI R14 Frame(CFA, -4)
          CFI R4 Frame(CFA, -8)
          CFI CFA R13+8
// 1783 	UINT8 status;
// 1784 	GSN_WDD_CTX_T *pWddRfTest;
// 1785 	pWddRfTest = &appCtx.if0.wddCtx;
// 1786 	GsnSysCtl_AppTempSend(&appCtx.sysCtlCtx);
        LDR.W    R4,??DataTable162_7
        BL       ?Subroutine34
// 1787 	status = GsnWdd_RfTestModeStart(pWddRfTest);
// 1788 	return status;
??CrossCallReturnLabel_277:
        ADD      R0,R4,#+3808
          CFI FunCall GsnWdd_RfTestModeStart
        BL       GsnWdd_RfTestModeStart
        UXTB     R0,R0
        POP      {R4,PC}          ;; return
          CFI EndBlock cfiBlock26
// 1789 }

        SECTION `.text`:CODE:NOROOT(2)
        SECTION_TYPE SHT_PROGBITS, 0
        DATA
??DataTable152:
        DC8      "200"
// 1790 

        SECTION `.text`:CODE:NOROOT(1)
          CFI Block cfiBlock27 Using cfiCommon0
          CFI Function AppS2wCmd_RfTestTxStart
        THUMB
// 1791 PUBLIC UINT8
// 1792 AppS2wCmd_RfTestTxStart(UINT8 *ptr)
// 1793 {
AppS2wCmd_RfTestTxStart:
        PUSH     {R0,R4-R6,LR}
          CFI R14 Frame(CFA, -4)
          CFI R6 Frame(CFA, -8)
          CFI R5 Frame(CFA, -12)
          CFI R4 Frame(CFA, -16)
          CFI CFA R13+20
        SUB      SP,SP,#+132
          CFI CFA R13+152
// 1794 	GSN_WDD_RFTEST_TX_START_PARAM_T param;
// 1795 	GSN_STATUS retVal;
// 1796 	UINT8 status = S2W_SUCCESS;
// 1797 	UINT8 index=0;
        MOVS     R6,#+0
// 1798 	UINT32 temp;
// 1799 	UINT8 *p;
// 1800 	UINT32 IntArray[TX_BUF_ELEMENTS] = {0};
        ADD      R0,SP,#+20
        MOVS     R1,#+76
          CFI FunCall __aeabi_memclr4
        BL       __aeabi_memclr4
// 1801 	UINT8 MacAddr[S2W_MAC_ADDR_SIZE];
// 1802 	UINT8 Bssid[S2W_MAC_ADDR_SIZE];
// 1803         //GSN_WIF_WLAN_TX_STATS_T txStats;
// 1804 	GSN_WDD_CTX_T *pWdd = &appCtx.if0.wddCtx;
// 1805 	p=(UINT8*)AppS2wParse_NextParamGet(&ptr);
        ADD      R0,SP,#+132
          CFI FunCall AppS2wParse_NextParamGet
        BL       AppS2wParse_NextParamGet
// 1806 	if(!p)
        CMP      R0,#+0
        ADD      R5,SP,#+20
        BNE.N    ??AppS2wCmd_RfTestTxStart_0
// 1807 	{
// 1808 		return S2W_EINVAL;
        MOVS     R0,#+2
        B.N      ??AppS2wCmd_RfTestTxStart_1
// 1809 	}
// 1810 	do
// 1811 	{
// 1812 		if(!((index == TX_MAC_INDEX) || (index == TX_BSSID_INDEX)))
??AppS2wCmd_RfTestTxStart_2:
        CMP      R6,#+6
        IT       EQ 
        ADDEQ    R1,SP,#+12
// 1813 		{
// 1814 			status = AppS2wParse_Int(p, &temp);
// 1815 			if (status != S2W_SUCCESS)
// 1816 			{
// 1817 			return status;
// 1818 			}
// 1819 			IntArray[index] = temp;
// 1820 		}
// 1821 		else if (index == TX_MAC_INDEX)
// 1822 		{
// 1823 			status = AppS2wParse_Mac(p, MacAddr);
        BEQ.N    ??AppS2wCmd_RfTestTxStart_3
        CMP      R6,#+7
        BNE.N    ??AppS2wCmd_RfTestTxStart_0
// 1824 			if (status != S2W_SUCCESS)
// 1825 			{
// 1826 			return status;
// 1827 			}
// 1828 		}
// 1829 		else if (index == TX_BSSID_INDEX)
// 1830 		{
// 1831 			status = AppS2wParse_Mac(p, Bssid);
        ADD      R1,SP,#+4
??AppS2wCmd_RfTestTxStart_3:
          CFI FunCall AppS2wParse_Mac
        BL       AppS2wParse_Mac
        MOVS     R4,R0
// 1832 			if (status != S2W_SUCCESS)
        BEQ.N    ??AppS2wCmd_RfTestTxStart_4
        B.N      ??AppS2wCmd_RfTestTxStart_5
// 1833 			{
// 1834 				return status;
// 1835 			}
// 1836 		}
??AppS2wCmd_RfTestTxStart_0:
        BL       ?Subroutine17
??CrossCallReturnLabel_217:
        MOVS     R4,R0
        BNE.N    ??AppS2wCmd_RfTestTxStart_5
        LDR      R0,[SP, #+0]
        STR      R0,[R5, R6, LSL #+2]
// 1837 		index++;
??AppS2wCmd_RfTestTxStart_4:
        ADDS     R6,R6,#+1
        UXTB     R6,R6
// 1838 	}while((p=(UINT8*)AppS2wParse_NextParamGet(&ptr)) != NULL);
        ADD      R0,SP,#+132
          CFI FunCall AppS2wParse_NextParamGet
        BL       AppS2wParse_NextParamGet
        CMP      R0,#+0
        BNE.N    ??AppS2wCmd_RfTestTxStart_2
// 1839 
// 1840 	param.generalOptions.userPrefChannel = IntArray[0];
        LDR      R0,[SP, #+20]
        STRH     R0,[SP, #+96]
// 1841 	param.generalOptions.bandWidth = IntArray[1];
// 1842 	param.numFrames = IntArray[2];
// 1843 	param.frameLen  = IntArray[3];
        ADD      R6,SP,#+100
        LDR      R0,[R5, #+4]
        STRB     R0,[SP, #+98]
// 1844 	param.txRate    = IntArray[4];
// 1845 	param.txPower   = IntArray[5];
// 1846 	memcpy((INT8 *)param.destAddr, (const INT8 *)MacAddr, 6);
        MOVS     R2,#+6
        LDR      R0,[SP, #+28]
        STR      R0,[SP, #+100]
        ADD      R1,SP,#+12
        LDR      R0,[R5, #+12]
        STRH     R0,[R6, #+4]
        LDR      R0,[SP, #+36]
        STRB     R0,[R6, #+6]
        LDR      R0,[SP, #+40]
        STRB     R0,[R6, #+7]
        ADD      R0,SP,#+108
          CFI FunCall memcpy
        BL       memcpy
// 1847 	memcpy((INT8 *)param.bssid, (const INT8 *)Bssid, 6);
        MOVS     R2,#+6
        ADD      R1,SP,#+4
        ADD      R0,SP,#+114
          CFI FunCall memcpy
        BL       memcpy
// 1848 	param.htEnable = IntArray[8];
        LDR      R0,[SP, #+52]
// 1849 	param.guardInterval = IntArray[9];    
// 1850 	param.greenField = IntArray[10];
// 1851 	param.preambleType = IntArray[11];
// 1852 
// 1853 	param.qosEnable = IntArray[12];
// 1854 	param.ackPolicy = IntArray[13];
// 1855 	param.scrambler = IntArray[14];
// 1856 	param.aifsnVal  = IntArray[15];
// 1857 	param.antenna   = IntArray[16];
// 1858 	param.ccaBypass = IntArray[17];
// 1859 #if 0
// 1860 	S2w_Printf("\r\nuserPrefChannel:%d\r\n",param.generalOptions.userPrefChannel);
// 1861 	S2w_Printf("\r\nbandWidth: %d\r\n",param.generalOptions.bandWidth);
// 1862 	S2w_Printf("\r\nnumFrames: %d\r\n",param.numFrames);
// 1863 	S2w_Printf("\r\nframeLen: %d\r\n",param.frameLen);
// 1864 	S2w_Printf("\r\ntxRate: %d\r\n",param.txRate);
// 1865 	S2w_Printf("\r\ntxPower: %d\r\n",param.txPower);
// 1866 	S2w_Printf("\r\nhtEnable: %d\r\n",param.htEnable);
// 1867 	S2w_Printf("\r\ngreenField: %d\r\n",param.greenField);
// 1868 	S2w_Printf("\r\nguardInterval: %d\r\n",param.guardInterval);
// 1869 	S2w_Printf("\r\npreambleType: %d\r\n",param.preambleType);
// 1870 	S2w_Printf("\r\nqosEnable: %d\r\n",param.qosEnable);
// 1871 	S2w_Printf("\r\nackPolicy: %d\r\n",param.ackPolicy);
// 1872 	S2w_Printf("\r\nscrambler: %d\r\n",param.scrambler);
// 1873 	S2w_Printf("\r\naifsnVal: %d\r\n",param.aifsnVal);
// 1874 	S2w_Printf("\r\nantenna: %d\r\n",param.antenna);    
// 1875 #endif        
// 1876 	GsnSysCtl_AppTempSend(&appCtx.sysCtlCtx);
        LDR.W    R5,??DataTable162_7
        STRB     R0,[R6, #+20]
        LDR      R0,[SP, #+56]
        STRB     R0,[R6, #+21]
        LDR      R0,[SP, #+60]
        STRB     R0,[R6, #+22]
        LDR      R0,[SP, #+64]
        STRB     R0,[R6, #+23]
        LDR      R0,[SP, #+68]
        STRB     R0,[R6, #+24]
        LDR      R0,[SP, #+72]
        STRB     R0,[R6, #+25]
        LDR      R0,[SP, #+76]
        STRB     R0,[R6, #+26]
        LDR      R0,[SP, #+80]
        STRB     R0,[R6, #+27]
        LDR      R0,[SP, #+84]
        STRB     R0,[R6, #+28]
        LDR      R0,[SP, #+88]
        STRB     R0,[R6, #+29]
        BL       ?Subroutine35
// 1877 	retVal = GsnWdd_RfTestTxStart(pWdd, &param);
// 1878 	if(GSN_SUCCESS != retVal)
??CrossCallReturnLabel_281:
        ADD      R1,SP,#+96
        ADD      R0,R5,#+3808
          CFI FunCall GsnWdd_RfTestTxStart
        BL       GsnWdd_RfTestTxStart
        CBZ.N    R0,??AppS2wCmd_RfTestTxStart_5
// 1879 	{
// 1880 		status = S2W_FAILURE;
        MOVS     R4,#+1
// 1881 	}
// 1882 
// 1883 	return status;
??AppS2wCmd_RfTestTxStart_5:
        MOV      R0,R4
??AppS2wCmd_RfTestTxStart_1:
        ADD      SP,SP,#+136
          CFI CFA R13+16
        POP      {R4-R6,PC}       ;; return
          CFI EndBlock cfiBlock27
// 1884 }

        SECTION `.text`:CODE:NOROOT(2)
        SECTION_TYPE SHT_PROGBITS, 0
        DATA
??DataTable153:
        DC8      "\n",0x0,0x0
// 1885 

        SECTION `.text`:CODE:NOROOT(1)
          CFI Block cfiBlock28 Using cfiCommon0
          CFI Function AppS2wCmd_RfTestTx99Start
        THUMB
// 1886 PUBLIC UINT8
// 1887 AppS2wCmd_RfTestTx99Start(UINT8 *ptr)
// 1888 {
AppS2wCmd_RfTestTx99Start:
        PUSH     {R0,R4,R5,LR}
          CFI R14 Frame(CFA, -4)
          CFI R5 Frame(CFA, -8)
          CFI R4 Frame(CFA, -12)
          CFI CFA R13+16
        SUB      SP,SP,#+144
          CFI CFA R13+160
// 1889 	UINT8 status;
// 1890 	UINT8 index=0;
        MOVS     R5,#+0
// 1891 	UINT32 temp;
// 1892 	UINT8 *p;
// 1893 	UINT32 IntArray[TX99_BUF_ELEMENTS];
// 1894 	UINT8 MacAddrBssid[S2W_MAC_ADDR_SIZE];
// 1895     
// 1896     UINT8 MacAddrDest[S2W_MAC_ADDR_SIZE];    
// 1897 	GSN_WIF_API_WLAN_RF_TEST_TX99_START_PARAM_T param;
// 1898 
// 1899     
// 1900     GSN_WDD_CTX_T *pWdd = &appCtx.if0.wddCtx;
// 1901     p=(UINT8*)AppS2wParse_NextParamGet(&ptr);
        ADD      R0,SP,#+144
          CFI FunCall AppS2wParse_NextParamGet
        BL       AppS2wParse_NextParamGet
// 1902     if(!p)
        CMP      R0,#+0
        ADD      R4,SP,#+60
        BNE.N    ??AppS2wCmd_RfTestTx99Start_0
// 1903 	{
// 1904 		return S2W_EINVAL;
        MOVS     R0,#+2
        B.N      ??AppS2wCmd_RfTestTx99Start_1
// 1905 	}
// 1906     do
// 1907     {
// 1908         if((index != TX99_MAC_BSSID_INDEX) && (index != TX99_MAC_DESTADDR_INDEX) )
??AppS2wCmd_RfTestTx99Start_2:
        CMP      R5,#+7
        BEQ.N    ??AppS2wCmd_RfTestTx99Start_3
        CMP      R5,#+6
        BEQ.N    ??AppS2wCmd_RfTestTx99Start_4
// 1909         {
// 1910             status = AppS2wParse_Int(p, &temp);
??AppS2wCmd_RfTestTx99Start_0:
        BL       ?Subroutine17
// 1911             if (status != S2W_SUCCESS)
??CrossCallReturnLabel_216:
        CMP      R0,#+0
        BNE.N    ??AppS2wCmd_RfTestTx99Start_1
// 1912             {
// 1913                 return status;
// 1914             }
// 1915             IntArray[index] = temp;
        LDR      R0,[SP, #+0]
        STR      R0,[R4, R5, LSL #+2]
// 1916         }
// 1917         else if (index == TX99_MAC_BSSID_INDEX)
// 1918         {
// 1919             status = AppS2wParse_Mac(p, MacAddrBssid);
// 1920             if (status != S2W_SUCCESS)
// 1921             {
// 1922                 return status;
// 1923             }
// 1924         }
// 1925         else if (index == TX99_MAC_DESTADDR_INDEX)
// 1926         {
// 1927             status = AppS2wParse_Mac(p, MacAddrDest);
// 1928             if (status != S2W_SUCCESS)
// 1929             {
// 1930                 return status;
// 1931             }
// 1932         }
// 1933         index++;
??AppS2wCmd_RfTestTx99Start_5:
        ADDS     R5,R5,#+1
        UXTB     R5,R5
// 1934     }while((p=(UINT8*)AppS2wParse_NextParamGet(&ptr)) != NULL);
        ADD      R0,SP,#+144
          CFI FunCall AppS2wParse_NextParamGet
        BL       AppS2wParse_NextParamGet
        CMP      R0,#+0
        BNE.N    ??AppS2wCmd_RfTestTx99Start_2
// 1935 
// 1936     param.generalOptions.userPrefChannel = IntArray[0];
        LDR      R0,[SP, #+60]
        STRH     R0,[SP, #+20]
// 1937     param.generalOptions.bandWidth = IntArray[1];
// 1938     param.numFrames = IntArray[2];
// 1939     param.frameLen = IntArray[3];
        ADD      R5,SP,#+24
        LDR      R0,[R4, #+4]
        STRB     R0,[SP, #+22]
// 1940     param.txRate = IntArray[4];
// 1941     param.txPower= IntArray[5];
// 1942     memcpy((INT8 *)param.destAddr, (const INT8*)MacAddrDest, 6);
        MOVS     R2,#+6
        LDR      R0,[SP, #+68]
        STR      R0,[SP, #+24]
        ADD      R1,SP,#+4
        LDR      R0,[R4, #+12]
        STRH     R0,[R5, #+4]
        LDR      R0,[SP, #+76]
        STRB     R0,[R5, #+6]
        LDR      R0,[SP, #+80]
        STRB     R0,[R5, #+7]
        ADD      R0,SP,#+32
          CFI FunCall memcpy
        BL       memcpy
// 1943     memcpy((INT8 *)param.bssid, (const INT8*)MacAddrBssid, 6);    
        MOVS     R2,#+6
        ADD      R1,SP,#+12
        ADD      R0,SP,#+38
          CFI FunCall memcpy
        BL       memcpy
// 1944     param.guardInterval = IntArray[8];    
        LDR      R0,[SP, #+92]
        STRB     R0,[R5, #+20]
// 1945     param.greenField = IntArray[9];
        LDR      R0,[R4, #+36]
// 1946     param.antenna= IntArray[10];    
// 1947     param.cca = IntArray[11];
// 1948     param.agc = IntArray[12];
// 1949     param.contPreambleMode = IntArray[13];
// 1950     param.spreader = IntArray[14];
// 1951     param.scrambler = IntArray[15];
// 1952     param.preamble = IntArray[16];
// 1953     param.preambleType = IntArray[17];
// 1954     param.testPatternType = IntArray[18];
// 1955     param.phyTestTxRate = IntArray[19];
// 1956     param.modeSelect = IntArray[20];
// 1957 #if 0
// 1958     S2w_Printf("\r\nuserPrefChannel: %d\r\n",param.generalOptions.userPrefChannel);
// 1959     S2w_Printf("\r\nbandWidth: %d\r\n",param.generalOptions.bandWidth);
// 1960     S2w_Printf("\r\nnumFrames: %d\r\n",param.numFrames);
// 1961     S2w_Printf("\r\nframeLen: %d\r\n",param.frameLen);
// 1962     S2w_Printf("\r\ntxRate: %d\r\n",param.txRate);
// 1963     S2w_Printf("\r\ntxPower: %d\r\n",param.txPower);
// 1964     S2w_Printf("\r\nguardInterval: %d\r\n",param.guardInterval);
// 1965     S2w_Printf("\r\ngreenField: %d\r\n",param.greenField);
// 1966     S2w_Printf("\r\nantenna: %d\r\n",param.antenna);
// 1967     S2w_Printf("\r\ncca: %d\r\n",param.cca);
// 1968     S2w_Printf("\r\nagc: %d\r\n",param.agc);
// 1969     S2w_Printf("\r\ncontPreambleMode: %d\r\n",param.contPreambleMode);
// 1970     S2w_Printf("\r\nspreader: %d\r\n",param.spreader);
// 1971     S2w_Printf("\r\nscrambler: %d\r\n",param.scrambler);
// 1972     S2w_Printf("\r\npreamble: %d\r\n",param.preamble);
// 1973     S2w_Printf("\r\npreambleType: %d\r\n",param.preambleType);
// 1974     S2w_Printf("\r\ntestPatternType: %d\r\n",param.testPatternType);
// 1975     S2w_Printf("\r\nphyTestTxRate: %d\r\n",param.phyTestTxRate);
// 1976     S2w_Printf("\r\nmodeSelect: %d\r\n",param.modeSelect);
// 1977 #endif
// 1978     GsnSysCtl_AppTempSend(&appCtx.sysCtlCtx);
        LDR.W    R4,??DataTable164
        STRB     R0,[R5, #+21]
        LDR      R0,[SP, #+100]
        STRB     R0,[R5, #+22]
        LDR      R0,[SP, #+104]
        STRB     R0,[R5, #+23]
        LDR      R0,[SP, #+108]
        STRB     R0,[R5, #+24]
        LDR      R0,[SP, #+112]
        STRB     R0,[R5, #+25]
        LDR      R0,[SP, #+116]
        STRB     R0,[R5, #+26]
        LDR      R0,[SP, #+120]
        STRB     R0,[R5, #+27]
        LDR      R0,[SP, #+124]
        STRB     R0,[R5, #+28]
        LDR      R0,[SP, #+128]
        STRB     R0,[R5, #+29]
        LDR      R0,[SP, #+132]
        STRB     R0,[R5, #+30]
        LDR      R0,[SP, #+136]
        STRB     R0,[R5, #+31]
        LDR      R0,[SP, #+140]
        STRB     R0,[SP, #+56]
        BL       ?Subroutine34
// 1979       status = GsnWdd_RfTestTx99Start(pWdd, &param);
// 1980 
// 1981     return status;
??CrossCallReturnLabel_276:
        ADD      R1,SP,#+20
        ADD      R0,R4,#+3808
          CFI FunCall GsnWdd_RfTestTx99Start
        BL       GsnWdd_RfTestTx99Start
        UXTB     R0,R0
??AppS2wCmd_RfTestTx99Start_1:
        ADD      SP,SP,#+148
          CFI CFA R13+12
        POP      {R4,R5,PC}       ;; return
          CFI CFA R13+160
??AppS2wCmd_RfTestTx99Start_3:
        ADD      R1,SP,#+12
??AppS2wCmd_RfTestTx99Start_6:
          CFI FunCall AppS2wParse_Mac
        BL       AppS2wParse_Mac
        CMP      R0,#+0
        BEQ.N    ??AppS2wCmd_RfTestTx99Start_5
        B.N      ??AppS2wCmd_RfTestTx99Start_1
??AppS2wCmd_RfTestTx99Start_4:
        ADD      R1,SP,#+4
        B.N      ??AppS2wCmd_RfTestTx99Start_6
          CFI EndBlock cfiBlock28
// 1982 
// 1983 }

        SECTION `.text`:CODE:NOROOT(1)
          CFI Block cfiCond29 Using cfiCommon0
          CFI Function AppS2wCmd_RfTestStart
          CFI Conditional ??CrossCallReturnLabel_277
          CFI R4 Frame(CFA, -8)
          CFI R14 Frame(CFA, -4)
          CFI CFA R13+8
          CFI Block cfiCond30 Using cfiCommon0
          CFI (cfiCond30) Function AppS2wCmd_RfTestTx99Start
          CFI (cfiCond30) Conditional ??CrossCallReturnLabel_276
          CFI (cfiCond30) R4 Frame(CFA, -12)
          CFI (cfiCond30) R5 Frame(CFA, -8)
          CFI (cfiCond30) R14 Frame(CFA, -4)
          CFI (cfiCond30) CFA R13+160
          CFI Block cfiCond31 Using cfiCommon0
          CFI (cfiCond31) Function AppS2wCmd_RfTestRxStop
          CFI (cfiCond31) Conditional ??CrossCallReturnLabel_275
          CFI (cfiCond31) R4 Frame(CFA, -20)
          CFI (cfiCond31) R5 Frame(CFA, -16)
          CFI (cfiCond31) R6 Frame(CFA, -12)
          CFI (cfiCond31) R7 Frame(CFA, -8)
          CFI (cfiCond31) R14 Frame(CFA, -4)
          CFI (cfiCond31) CFA R13+176
          CFI Block cfiPicker32 Using cfiCommon1
          CFI (cfiPicker32) NoFunction
          CFI (cfiPicker32) Picker
        THUMB
?Subroutine34:
        ADD      R0,R4,#+1352
          CFI FunCall AppS2wCmd_RfTestStart GsnSysCtl_AppTempSend
          CFI FunCall AppS2wCmd_RfTestTx99Start GsnSysCtl_AppTempSend
          CFI FunCall AppS2wCmd_RfTestRxStop GsnSysCtl_AppTempSend
        B.W      GsnSysCtl_AppTempSend
          CFI EndBlock cfiCond29
          CFI EndBlock cfiCond30
          CFI EndBlock cfiCond31
          CFI EndBlock cfiPicker32
// 1984 

        SECTION `.text`:CODE:NOROOT(1)
          CFI Block cfiBlock33 Using cfiCommon0
          CFI Function AppS2wCmd_RfTestTx100Start
        THUMB
// 1985 PUBLIC UINT8
// 1986 AppS2wCmd_RfTestTx100Start(UINT8 *ptr)
// 1987 {
AppS2wCmd_RfTestTx100Start:
        PUSH     {R0,R4-R6,LR}
          CFI R14 Frame(CFA, -4)
          CFI R6 Frame(CFA, -8)
          CFI R5 Frame(CFA, -12)
          CFI R4 Frame(CFA, -16)
          CFI CFA R13+20
        SUB      SP,SP,#+76
          CFI CFA R13+96
// 1988     UINT8 status;
// 1989     UINT8 index=0;
        MOVS     R6,#+0
// 1990     UINT32 temp;
// 1991     UINT8 *p;
// 1992     UINT32 IntArray[TX100_BUF_ELEMENTS];
// 1993 
// 1994 	GSN_WIF_API_WLAN_RF_TEST_TX100_START_PARAM_T param;
// 1995 
// 1996     GSN_WDD_CTX_T *pWdd = &appCtx.if0.wddCtx;
        ADD      R5,SP,#+20
        B.N      ??AppS2wCmd_RfTestTx100Start_0
// 1997 
// 1998     while((p=(UINT8*)AppS2wParse_NextParamGet(&ptr)) != NULL)
// 1999      {
// 2000          status = AppS2wParse_Int(p, &temp);
// 2001          if (status != S2W_SUCCESS)
// 2002          {
// 2003              return status;
// 2004          }
// 2005          IntArray[index] = temp;
??AppS2wCmd_RfTestTx100Start_1:
        LDR      R0,[SP, #+16]
        UXTB     R6,R6
        STR      R0,[R5, R6, LSL #+2]
// 2006          index++;
        ADDS     R6,R6,#+1
??AppS2wCmd_RfTestTx100Start_0:
        ADD      R0,SP,#+76
          CFI FunCall AppS2wParse_NextParamGet
        BL       AppS2wParse_NextParamGet
        CBZ.N    R0,??AppS2wCmd_RfTestTx100Start_2
        ADD      R1,SP,#+16
          CFI FunCall AppS2wParse_Int
        BL       AppS2wParse_Int
        MOVS     R4,R0
        BEQ.N    ??AppS2wCmd_RfTestTx100Start_1
        B.N      ??AppS2wCmd_RfTestTx100Start_3
// 2007      }
// 2008 
// 2009     param.generalOptions.userPrefChannel = IntArray[0];
??AppS2wCmd_RfTestTx100Start_2:
        LDR      R0,[SP, #+20]
        STRH     R0,[SP, #+0]
// 2010     param.generalOptions.bandWidth = IntArray[1];
        LDR      R0,[R5, #+4]
        STRB     R0,[SP, #+2]
// 2011     param.txPower  = IntArray[2];
        LDR      R0,[R5, #+8]
        STRB     R0,[SP, #+4]
// 2012     param.antenna  = IntArray[3];    
        LDR      R0,[R5, #+12]
// 2013     param.cca = IntArray[4];
// 2014     param.agc = IntArray[5];
// 2015     param.contPreambleMode = IntArray[6];
// 2016     param.spreader = IntArray[7];
// 2017     param.scrambler = IntArray[8];
// 2018     param.preamble = IntArray[9];
// 2019     param.preambleType = IntArray[10];
// 2020     param.testPatternType = IntArray[11];
// 2021     param.phyTestTxRate = IntArray[12];
// 2022     param.modeSelect = IntArray[13];
// 2023 #if 0
// 2024     S2w_Printf("\r\nuserPrefChannel: %d\r\n",param.generalOptions.userPrefChannel);
// 2025     S2w_Printf("\r\nbandWidth: %d\r\n",param.generalOptions.bandWidth);
// 2026     S2w_Printf("\r\ntxPower: %d\r\n",param.txPower);
// 2027     S2w_Printf("\r\nantenna: %d\r\n",param.antenna);
// 2028     S2w_Printf("\r\ncca: %d\r\n",param.cca);
// 2029     S2w_Printf("\r\nagc: %d\r\n",param.agc);
// 2030     S2w_Printf("\r\ncontPreambleMode: %d\r\n",param.contPreambleMode);
// 2031     S2w_Printf("\r\nspreader: %d\r\n",param.spreader);
// 2032     S2w_Printf("\r\nscrambler: %d\r\n",param.scrambler);
// 2033     S2w_Printf("\r\npreamble: %d\r\n",param.preamble);
// 2034     S2w_Printf("\r\npreambleType: %d\r\n",param.preambleType);
// 2035     S2w_Printf("\r\ntestPatternType: %d\r\n",param.testPatternType);
// 2036     S2w_Printf("\r\nphyTestTxRate: %d\r\n",param.phyTestTxRate);
// 2037     S2w_Printf("\r\nmodeSelect: %d\r\n",param.modeSelect);
// 2038 #endif
// 2039     GsnSysCtl_AppTempSend(&appCtx.sysCtlCtx);
        LDR.W    R5,??DataTable164
        STRB     R0,[SP, #+5]
        LDR      R0,[SP, #+36]
        STRB     R0,[SP, #+6]
        LDR      R0,[SP, #+40]
        STRB     R0,[SP, #+7]
        LDR      R0,[SP, #+44]
        STRB     R0,[SP, #+8]
        LDR      R0,[SP, #+48]
        STRB     R0,[SP, #+9]
        LDR      R0,[SP, #+52]
        STRB     R0,[SP, #+10]
        LDR      R0,[SP, #+56]
        STRB     R0,[SP, #+11]
        LDR      R0,[SP, #+60]
        STRB     R0,[SP, #+12]
        LDR      R0,[SP, #+64]
        STRB     R0,[SP, #+13]
        LDR      R0,[SP, #+68]
        STRB     R0,[SP, #+14]
        LDR      R0,[SP, #+72]
        STRB     R0,[SP, #+15]
        BL       ?Subroutine35
// 2040         GsnWdd_RfTestTx100Start(pWdd, &param);
??CrossCallReturnLabel_280:
        ADD      R1,SP,#+0
        ADD      R0,R5,#+3808
          CFI FunCall GsnWdd_RfTestTx100Start
        BL       GsnWdd_RfTestTx100Start
// 2041 
// 2042     return status;
        UXTB     R0,R4
??AppS2wCmd_RfTestTx100Start_3:
        ADD      SP,SP,#+80
          CFI CFA R13+16
        POP      {R4-R6,PC}       ;; return
          CFI EndBlock cfiBlock33
// 2043 
// 2044 }
// 2045 

        SECTION `.text`:CODE:NOROOT(1)
          CFI Block cfiBlock34 Using cfiCommon0
          CFI Function AppS2wCmd_RfTestCarrierWaveStart
        THUMB
// 2046 PUBLIC UINT8
// 2047 AppS2wCmd_RfTestCarrierWaveStart(UINT8 *ptr)
// 2048 {
AppS2wCmd_RfTestCarrierWaveStart:
        PUSH     {R0,R4-R6,LR}
          CFI R14 Frame(CFA, -4)
          CFI R6 Frame(CFA, -8)
          CFI R5 Frame(CFA, -12)
          CFI R4 Frame(CFA, -16)
          CFI CFA R13+20
        SUB      SP,SP,#+36
          CFI CFA R13+56
// 2049 	UINT8 status;
// 2050 	UINT8 index=0;
        MOVS     R5,#+0
// 2051 	UINT32 temp;
// 2052 	UINT8 *p;
// 2053 	UINT32 IntArray[CR_WAVE_BUF_ELEMENTS];
// 2054 	GSN_WIF_API_WLAN_RF_TEST_CARRIER_WAVE_START_PARAM_T param;
// 2055 
// 2056 	GSN_WDD_CTX_T *pWdd = &appCtx.if0.wddCtx;
        ADD      R6,SP,#+12
        B.N      ??AppS2wCmd_RfTestCarrierWaveStart_0
// 2057 
// 2058 	while((p=(UINT8*)AppS2wParse_NextParamGet(&ptr)) != NULL)
// 2059 	{
// 2060 		status = AppS2wParse_Int(p, &temp);
// 2061 		if (status != S2W_SUCCESS)
// 2062 		{
// 2063 			return status;
// 2064 		}
// 2065 		IntArray[index] = temp;
??AppS2wCmd_RfTestCarrierWaveStart_1:
        LDR      R0,[SP, #+8]
        UXTB     R5,R5
        STR      R0,[R6, R5, LSL #+2]
// 2066 		index++;
        ADDS     R5,R5,#+1
??AppS2wCmd_RfTestCarrierWaveStart_0:
        ADD      R0,SP,#+36
          CFI FunCall AppS2wParse_NextParamGet
        BL       AppS2wParse_NextParamGet
        CBZ.N    R0,??AppS2wCmd_RfTestCarrierWaveStart_2
        ADD      R1,SP,#+8
          CFI FunCall AppS2wParse_Int
        BL       AppS2wParse_Int
        MOVS     R4,R0
        BEQ.N    ??AppS2wCmd_RfTestCarrierWaveStart_1
        B.N      ??AppS2wCmd_RfTestCarrierWaveStart_3
// 2067 	}
// 2068 	param.generalOptions.userPrefChannel = IntArray[0];
??AppS2wCmd_RfTestCarrierWaveStart_2:
        LDR      R0,[SP, #+12]
// 2069 	param.generalOptions.bandWidth = IntArray[1];
// 2070     param.txPower= IntArray[2];
// 2071     param.antenna= IntArray[3];
// 2072 	param.customWavePeriod = IntArray[4];
// 2073 #if 0
// 2074 	S2w_Printf("\r\nuserPrefChannel: %d\r\n",param.generalOptions.userPrefChannel);
// 2075 	S2w_Printf("\r\nbandWidth: %d\r\n",param.generalOptions.bandWidth);
// 2076     S2w_Printf("\r\ntxPower: %d\r\n",param.txPower);
// 2077     S2w_Printf("\r\nantenna: %d\r\n",param.antenna);
// 2078 	S2w_Printf("\r\ncustomWavePeriod: %d\r\n",param.customWavePeriod);
// 2079 #endif
// 2080 	GsnSysCtl_AppTempSend(&appCtx.sysCtlCtx);
        LDR.W    R5,??DataTable164
        STRH     R0,[SP, #+0]
        LDR      R0,[R6, #+4]
        STRB     R0,[SP, #+2]
        LDR      R0,[SP, #+20]
        STRB     R0,[SP, #+4]
        LDR      R0,[SP, #+24]
        STRB     R0,[SP, #+5]
        LDR      R0,[SP, #+28]
        STRB     R0,[SP, #+6]
        BL       ?Subroutine35
// 2081 	GsnWdd_RfTestCarrierWaveStart(pWdd, &param);
??CrossCallReturnLabel_279:
        ADD      R1,SP,#+0
        ADD      R0,R5,#+3808
          CFI FunCall GsnWdd_RfTestCarrierWaveStart
        BL       GsnWdd_RfTestCarrierWaveStart
// 2082 	return status;
        UXTB     R0,R4
??AppS2wCmd_RfTestCarrierWaveStart_3:
        ADD      SP,SP,#+40
          CFI CFA R13+16
        POP      {R4-R6,PC}       ;; return
          CFI EndBlock cfiBlock34
// 2083 }

        SECTION `.text`:CODE:NOROOT(1)
          CFI Block cfiCond35 Using cfiCommon0
          CFI Function AppS2wCmd_RfTestTxStart
          CFI Conditional ??CrossCallReturnLabel_281
          CFI R4 Frame(CFA, -16)
          CFI R5 Frame(CFA, -12)
          CFI R6 Frame(CFA, -8)
          CFI R14 Frame(CFA, -4)
          CFI CFA R13+152
          CFI Block cfiCond36 Using cfiCommon0
          CFI (cfiCond36) Function AppS2wCmd_RfTestTx100Start
          CFI (cfiCond36) Conditional ??CrossCallReturnLabel_280
          CFI (cfiCond36) R4 Frame(CFA, -16)
          CFI (cfiCond36) R5 Frame(CFA, -12)
          CFI (cfiCond36) R6 Frame(CFA, -8)
          CFI (cfiCond36) R14 Frame(CFA, -4)
          CFI (cfiCond36) CFA R13+96
          CFI Block cfiCond37 Using cfiCommon0
          CFI (cfiCond37) Function AppS2wCmd_RfTestCarrierWaveStart
          CFI (cfiCond37) Conditional ??CrossCallReturnLabel_279
          CFI (cfiCond37) R4 Frame(CFA, -16)
          CFI (cfiCond37) R5 Frame(CFA, -12)
          CFI (cfiCond37) R6 Frame(CFA, -8)
          CFI (cfiCond37) R14 Frame(CFA, -4)
          CFI (cfiCond37) CFA R13+56
          CFI Block cfiCond38 Using cfiCommon0
          CFI (cfiCond38) Function AppS2wCmd_RfTestRxStart
          CFI (cfiCond38) Conditional ??CrossCallReturnLabel_278
          CFI (cfiCond38) R4 Frame(CFA, -16)
          CFI (cfiCond38) R5 Frame(CFA, -12)
          CFI (cfiCond38) R6 Frame(CFA, -8)
          CFI (cfiCond38) R14 Frame(CFA, -4)
          CFI (cfiCond38) CFA R13+72
          CFI Block cfiPicker39 Using cfiCommon1
          CFI (cfiPicker39) NoFunction
          CFI (cfiPicker39) Picker
        THUMB
?Subroutine35:
        ADD      R0,R5,#+1352
          CFI FunCall AppS2wCmd_RfTestTxStart GsnSysCtl_AppTempSend
          CFI FunCall AppS2wCmd_RfTestTx100Start GsnSysCtl_AppTempSend
          CFI FunCall AppS2wCmd_RfTestCarrierWaveStart GsnSysCtl_AppTempSend
          CFI FunCall AppS2wCmd_RfTestRxStart GsnSysCtl_AppTempSend
        B.W      GsnSysCtl_AppTempSend
          CFI EndBlock cfiCond35
          CFI EndBlock cfiCond36
          CFI EndBlock cfiCond37
          CFI EndBlock cfiCond38
          CFI EndBlock cfiPicker39
// 2084 

        SECTION `.text`:CODE:NOROOT(1)
          CFI Block cfiBlock40 Using cfiCommon0
          CFI Function AppS2wCmd_RfTestTxStop
          CFI NoCalls
        THUMB
// 2085 PUBLIC UINT8 AppS2wCmd_RfTestTxStop (UINT8 *ptr)
// 2086 {
// 2087 	/* [TO DO] */
// 2088     return S2W_SUCCESS;
AppS2wCmd_RfTestTxStop:
        MOVS     R0,#+0
        BX       LR               ;; return
          CFI EndBlock cfiBlock40
// 2089 }
// 2090 

        SECTION `.text`:CODE:NOROOT(1)
          CFI Block cfiBlock41 Using cfiCommon0
          CFI Function AppS2wCmd_RfTestRxStart
        THUMB
// 2091 PUBLIC UINT8
// 2092 AppS2wCmd_RfTestRxStart(UINT8 *ptr)
// 2093 {
AppS2wCmd_RfTestRxStart:
        PUSH     {R0,R4-R6,LR}
          CFI R14 Frame(CFA, -4)
          CFI R6 Frame(CFA, -8)
          CFI R5 Frame(CFA, -12)
          CFI R4 Frame(CFA, -16)
          CFI CFA R13+20
        SUB      SP,SP,#+52
          CFI CFA R13+72
// 2094 	UINT8 status;
// 2095 	UINT8 index=0;
        MOVS     R5,#+0
// 2096 	UINT32 temp;
// 2097 	UINT8 *p;
// 2098 	UINT32 IntArray[RX_BUF_ELEMENTS];
// 2099 	UINT8 MacAddr[S2W_MAC_ADDR_SIZE];
// 2100 	GSN_WIF_API_WLAN_RF_TEST_RX_START_PARAM_T param;
// 2101 
// 2102 	GSN_WDD_CTX_T *pWdd = &appCtx.if0.wddCtx;
// 2103 	p=(UINT8*)AppS2wParse_NextParamGet(&ptr);
        ADD      R0,SP,#+52
          CFI FunCall AppS2wParse_NextParamGet
        BL       AppS2wParse_NextParamGet
// 2104 	if(!p)
        CMP      R0,#+0
        ADD      R6,SP,#+28
        BNE.N    ??AppS2wCmd_RfTestRxStart_0
// 2105 	{
// 2106 		return S2W_EINVAL;
        MOVS     R0,#+2
??AppS2wCmd_RfTestRxStart_1:
        ADD      SP,SP,#+56
          CFI CFA R13+16
        POP      {R4-R6,PC}       ;; return
          CFI CFA R13+72
// 2107 	}
// 2108 	do
// 2109 	{
// 2110 		if(!(index == RX_MAC_INDEX))
??AppS2wCmd_RfTestRxStart_2:
        CMP      R5,#+3
        BEQ.N    ??AppS2wCmd_RfTestRxStart_3
// 2111 		{
// 2112 			status = AppS2wParse_Int(p, &temp);
??AppS2wCmd_RfTestRxStart_0:
        BL       ?Subroutine17
??CrossCallReturnLabel_215:
        MOVS     R4,R0
// 2113 			if (status != S2W_SUCCESS)
        BNE.N    ??AppS2wCmd_RfTestRxStart_4
// 2114 			{
// 2115 				return status;
// 2116 			}
// 2117 			IntArray[index] = temp;
        LDR      R0,[SP, #+0]
        STR      R0,[R6, R5, LSL #+2]
// 2118 		}
// 2119 		else if (index == RX_MAC_INDEX)
// 2120 		{
// 2121 			status = AppS2wParse_Mac(p, MacAddr);
// 2122 			if (status != S2W_SUCCESS)
// 2123 			{
// 2124 			return status;
// 2125 			}
// 2126 		}
// 2127 		index++;
??AppS2wCmd_RfTestRxStart_5:
        ADDS     R5,R5,#+1
        UXTB     R5,R5
// 2128 	}while((p=(UINT8*)AppS2wParse_NextParamGet(&ptr)) != NULL);
        ADD      R0,SP,#+52
          CFI FunCall AppS2wParse_NextParamGet
        BL       AppS2wParse_NextParamGet
        CMP      R0,#+0
        BNE.N    ??AppS2wCmd_RfTestRxStart_2
// 2129 	
// 2130 	param.generalOptions.userPrefChannel = IntArray[0];
        LDR      R0,[SP, #+28]
        STRH     R0,[SP, #+4]
// 2131 	param.generalOptions.bandWidth = IntArray[1];
// 2132 	param.rxFrameTypeFilter = IntArray[2];
// 2133 	memcpy((INT8 *)param.rxAddrFilter, (const INT8 *)MacAddr, 6);
        MOVS     R2,#+6
        LDR      R0,[R6, #+4]
        STRB     R0,[SP, #+6]
        ADD      R1,SP,#+20
        LDR      R0,[R6, #+8]
        STR      R0,[SP, #+8]
        ADD      R0,SP,#+12
          CFI FunCall memcpy
        BL       memcpy
// 2134     param.antenna   = IntArray[4];
        LDR      R0,[SP, #+44]
// 2135 #if 0
// 2136 	S2w_Printf("\r\nuserPrefChannel: %d\r\n",param.generalOptions.userPrefChannel);
// 2137 	S2w_Printf("\r\nbandWidth: %d\r\n",param.generalOptions.bandWidth);
// 2138 	S2w_Printf("\r\nrxFrameTypeFilter: %d\r\n",param.rxFrameTypeFilter);
// 2139     S2w_Printf("\r\nrxFrameTypeFilter: %d\r\n",param.antenna);
// 2140 #endif
// 2141 	GsnSysCtl_AppTempSend(&appCtx.sysCtlCtx);
        LDR.W    R5,??DataTable164
        STRB     R0,[SP, #+18]
        BL       ?Subroutine35
// 2142 	GsnWdd_RfTestRxStart(pWdd, &param);
??CrossCallReturnLabel_278:
        ADD      R1,SP,#+4
        ADD      R0,R5,#+3808
          CFI FunCall GsnWdd_RfTestRxStart
        BL       GsnWdd_RfTestRxStart
        B.N      ??AppS2wCmd_RfTestRxStart_4
??AppS2wCmd_RfTestRxStart_3:
        ADD      R1,SP,#+20
          CFI FunCall AppS2wParse_Mac
        BL       AppS2wParse_Mac
        MOVS     R4,R0
        BEQ.N    ??AppS2wCmd_RfTestRxStart_5
??AppS2wCmd_RfTestRxStart_4:
        MOV      R0,R4
        B.N      ??AppS2wCmd_RfTestRxStart_1
          CFI EndBlock cfiBlock41
// 2143 	return status;
// 2144 }
// 2145 
// 2146 
// 2147 

        SECTION `.text`:CODE:NOROOT(1)
          CFI Block cfiBlock42 Using cfiCommon0
          CFI Function AppS2wCmd_RfTestRxStop
        THUMB
// 2148 PUBLIC UINT8 AppS2wCmd_RfTestRxStop (UINT8 *ptr)
// 2149 {
AppS2wCmd_RfTestRxStop:
        PUSH     {R4-R7,LR}
          CFI R14 Frame(CFA, -4)
          CFI R7 Frame(CFA, -8)
          CFI R6 Frame(CFA, -12)
          CFI R5 Frame(CFA, -16)
          CFI R4 Frame(CFA, -20)
          CFI CFA R13+20
// 2150 	UINT8 status;
// 2151 	GSN_WDD_CTX_T *pWddRfTest;
// 2152  	GSN_WLAN_RF_TEST_RX_STATS_T rxStats;
// 2153         
// 2154 	pWddRfTest = &appCtx.if0.wddCtx;
// 2155 	GsnSysCtl_AppTempSend(&appCtx.sysCtlCtx);
        LDR.W    R4,??DataTable162_7
        SUB      SP,SP,#+156
          CFI CFA R13+176
        BL       ?Subroutine34
// 2156 	status = GsnWdd_RfTestRxStop(pWddRfTest, &rxStats);
??CrossCallReturnLabel_275:
        ADD      R1,SP,#+0
        ADD      R0,R4,#+3808
          CFI FunCall GsnWdd_RfTestRxStop
        BL       GsnWdd_RfTestRxStop
        MOV      R4,R0
// 2157 	
// 2158 	S2w_Printf("\r\nNo of packets received = %d\r\n", rxStats.rxPackets);
        LDR      R1,[SP, #+0]
        ADR.W    R0,`?<Constant "\\r\\nNo of packets recei...">`
          CFI FunCall S2w_Printf
        BL       S2w_Printf
// 2159 	S2w_Printf("No of bytes received = %d\r\n", rxStats.rxBytes);
        LDR      R1,[SP, #+4]
        ADR.W    R0,`?<Constant "No of bytes received ...">`
          CFI FunCall S2w_Printf
        BL       S2w_Printf
// 2160 				S2w_Printf("No of packets received with CRC Errors = %d\r\n", rxStats.crcErrors);
        LDR      R1,[SP, #+8]
        ADR.W    R0,`?<Constant "No of packets receive...">`
          CFI FunCall S2w_Printf
        BL       S2w_Printf
// 2161 	S2w_Printf("No of packets received with Security Errors = %d\r\n", rxStats.secErrors);
        LDR      R1,[SP, #+12]
        ADR.W    R0,`?<Constant "No of packets receive...">_1`
          CFI FunCall S2w_Printf
        BL       S2w_Printf
// 2162 	S2w_Printf("No of duplicate packets received = %d\r\n", rxStats.dupPackets);
        LDR      R1,[SP, #+16]
        ADR.W    R0,`?<Constant "No of duplicate packe...">`
          CFI FunCall S2w_Printf
        BL       S2w_Printf
// 2163 	S2w_Printf("No of header errors received = %d\r\n", rxStats.headerErrors);
        LDR      R1,[SP, #+20]
        ADR.W    R0,`?<Constant "No of header errors r...">`
          CFI FunCall S2w_Printf
        BL       S2w_Printf
// 2164 	S2w_Printf("Average RSSI of the received packets = %d\r\n", rxStats.avgRssi);
        LDR      R1,[SP, #+24]
        ADR.W    R0,`?<Constant "Average RSSI of the r...">`
          CFI FunCall S2w_Printf
        BL       S2w_Printf
// 2165 
// 2166 	S2w_Printf(" No of packets received at 1M and Long Preamble = %d\r\n", rxStats.rxRate1_long);
        LDR      R1,[SP, #+28]
        ADR.W    R0,`?<Constant " No of packets receiv...">`
          CFI FunCall S2w_Printf
        BL       S2w_Printf
// 2167 	S2w_Printf(" No of packets received at 2M and Long Preamble = %d\r\n", rxStats.rxRate2_long);
        LDR      R1,[SP, #+32]
        ADR.W    R0,`?<Constant " No of packets receiv...">_1`
          CFI FunCall S2w_Printf
        BL       S2w_Printf
// 2168 	S2w_Printf("No of packets received at 5M and Long Preamble = %d\r\n", rxStats.rxRate5_long);
        LDR      R1,[SP, #+36]
        ADR.W    R0,`?<Constant "No of packets receive...">_2`
          CFI FunCall S2w_Printf
        BL       S2w_Printf
// 2169 	S2w_Printf("No of packets received at 11M and Long Preamble = %d\r\n",rxStats.rxRate11_long );
        LDR      R1,[SP, #+40]
        ADR.W    R0,`?<Constant "No of packets receive...">_3`
          CFI FunCall S2w_Printf
        BL       S2w_Printf
// 2170 	S2w_Printf("No of packets received at 2M and Short Preamble = %d\r\n", rxStats.rxRate2_short);
        LDR      R1,[SP, #+44]
        ADR.W    R0,`?<Constant "No of packets receive...">_4`
          CFI FunCall S2w_Printf
        BL       S2w_Printf
// 2171 	S2w_Printf("No of packets received at 5M and Short Preamble = %d\r\n", rxStats.rxRate5_short);
        LDR      R1,[SP, #+48]
        ADR.W    R0,`?<Constant "No of packets receive...">_5`
          CFI FunCall S2w_Printf
        BL       S2w_Printf
// 2172 	S2w_Printf("No of packets received at 11M and Short Preamble = %d\r\n",rxStats.rxRate11_short );
        LDR      R1,[SP, #+52]
        ADR.W    R0,`?<Constant "No of packets receive...">_6`
          CFI FunCall S2w_Printf
        BL       S2w_Printf
// 2173 
// 2174 	S2w_Printf("No of packets received at 6M = %d\r\n", rxStats.rxRate6);
        LDR      R1,[SP, #+56]
        ADR.W    R0,`?<Constant "No of packets receive...">_7`
          CFI FunCall S2w_Printf
        BL       S2w_Printf
// 2175 	S2w_Printf("No of packets received at 9M = %d\r\n", rxStats.rxRate9);
        LDR      R1,[SP, #+60]
        ADR.W    R0,`?<Constant "No of packets receive...">_8`
          CFI FunCall S2w_Printf
        BL       S2w_Printf
// 2176 	S2w_Printf("No of packets received at 12M = %d\r\n", rxStats.rxRate12);
        LDR      R1,[SP, #+64]
        ADR.W    R0,`?<Constant "No of packets receive...">_9`
          CFI FunCall S2w_Printf
        BL       S2w_Printf
// 2177 	S2w_Printf("No of packets received at 18M = %d\r\n", rxStats.rxRate18);
        LDR      R1,[SP, #+68]
        ADR.W    R0,`?<Constant "No of packets receive...">_10`
          CFI FunCall S2w_Printf
        BL       S2w_Printf
// 2178 	S2w_Printf("No of packets received at 24M = %d\r\n", rxStats.rxRate24);
        LDR      R1,[SP, #+72]
        ADR.W    R0,`?<Constant "No of packets receive...">_11`
          CFI FunCall S2w_Printf
        BL       S2w_Printf
// 2179 	S2w_Printf("No of packets received at 36M = %d\r\n", rxStats.rxRate36);
        LDR      R1,[SP, #+76]
        ADR.W    R0,`?<Constant "No of packets receive...">_12`
          CFI FunCall S2w_Printf
        BL       S2w_Printf
// 2180 	S2w_Printf("No of packets received at 48M = %d\r\n", rxStats.rxRate48);
        LDR      R1,[SP, #+80]
        ADR.W    R0,`?<Constant "No of packets receive...">_13`
          CFI FunCall S2w_Printf
        BL       S2w_Printf
// 2181 	S2w_Printf("No of packets received at 54M = %d\r\n", rxStats.rxRate54);
        LDR      R1,[SP, #+84]
        ADR.W    R0,`?<Constant "No of packets receive...">_14`
          CFI FunCall S2w_Printf
        BL       S2w_Printf
// 2182 	
// 2183 	S2w_Printf("No of packets received at"
// 2184 			    "respective MCS Index with Short GI=\r\n");
        ADR.W    R0,`?<Constant "No of packets receive...">_15`
          CFI FunCall S2w_Printf
        BL       S2w_Printf
// 2185 	{
// 2186 		UINT8 i;
// 2187 		for(i = 0; i<8; i++)S2w_Printf("%x ", rxStats.rxMcsSgi[i]);
        MOVS     R6,#+0
        ADR.N    R5,??DataTable158  ;; "%x "
??AppS2wCmd_RfTestRxStop_0:
        ADD      R0,SP,#+0
        ADD      R0,R0,R6, LSL #+2
        LDR      R1,[R0, #+88]
        MOV      R0,R5
          CFI FunCall S2w_Printf
        BL       S2w_Printf
        ADDS     R6,R6,#+1
        CMP      R6,#+8
        BLT.N    ??AppS2wCmd_RfTestRxStop_0
// 2188 		S2w_Printf("\r\n");
        ADR.N    R6,??DataTable158_1  ;; 0x0D, 0x0A, 0x00, 0x00
        BL       ?Subroutine39
// 2189 									
// 2190 	}
// 2191 	S2w_Printf("No of packets received at"
// 2192 				"respective MCS Index with Long GI = \r\n");
??CrossCallReturnLabel_292:
        ADR.W    R0,`?<Constant "No of packets receive...">_16`
          CFI FunCall S2w_Printf
        BL       S2w_Printf
// 2193 	{
// 2194 		UINT8 i;
// 2195 		for(i = 0; i<8; i++)S2w_Printf("%x ", rxStats.rxMcsLgi[i]);
        MOVS     R7,#+0
??AppS2wCmd_RfTestRxStop_1:
        ADD      R0,SP,#+0
        ADD      R0,R0,R7, LSL #+2
        LDR      R1,[R0, #+120]
        MOV      R0,R5
          CFI FunCall S2w_Printf
        BL       S2w_Printf
        ADDS     R7,R7,#+1
        CMP      R7,#+8
        BLT.N    ??AppS2wCmd_RfTestRxStop_1
// 2196 		S2w_Printf("\r\n");
        BL       ?Subroutine39
// 2197 	}
// 2198 	
// 2199 	return status;
??CrossCallReturnLabel_291:
        UXTB     R0,R4
        ADD      SP,SP,#+156
          CFI CFA R13+20
        POP      {R4-R7,PC}       ;; return
          CFI EndBlock cfiBlock42
// 2200 }

        SECTION `.text`:CODE:NOROOT(2)
        SECTION_TYPE SHT_PROGBITS, 0
        DATA
??DataTable158:
        DC8      "%x "

        SECTION `.text`:CODE:NOROOT(2)
        SECTION_TYPE SHT_PROGBITS, 0
        DATA
??DataTable158_1:
        DC8      0x0D, 0x0A, 0x00, 0x00

        SECTION `.text`:CODE:NOROOT(2)
        SECTION_TYPE SHT_PROGBITS, 0
        DATA
`?<Constant "\\r\\nNo of packets recei...">`:
        DC8 "\015\012No of packets received = %d\015\012"

        SECTION `.text`:CODE:NOROOT(2)
        SECTION_TYPE SHT_PROGBITS, 0
        DATA
`?<Constant "No of bytes received ...">`:
        DC8 "No of bytes received = %d\015\012"

        SECTION `.text`:CODE:NOROOT(2)
        SECTION_TYPE SHT_PROGBITS, 0
        DATA
`?<Constant "No of packets receive...">`:
        DC8 "No of packets received with CRC Errors = %d\015\012"
        DC8 0, 0

        SECTION `.text`:CODE:NOROOT(2)
        SECTION_TYPE SHT_PROGBITS, 0
        DATA
`?<Constant "No of packets receive...">_1`:
        DC8 4EH, 6FH, 20H, 6FH, 66H, 20H, 70H, 61H
        DC8 63H, 6BH, 65H, 74H, 73H, 20H, 72H, 65H
        DC8 63H, 65H, 69H, 76H, 65H, 64H, 20H, 77H
        DC8 69H, 74H, 68H, 20H, 53H, 65H, 63H, 75H
        DC8 72H, 69H, 74H, 79H, 20H, 45H, 72H, 72H
        DC8 6FH, 72H, 73H, 20H, 3DH, 20H, 25H, 64H
        DC8 0DH, 0AH, 0
        DC8 0

        SECTION `.text`:CODE:NOROOT(2)
        SECTION_TYPE SHT_PROGBITS, 0
        DATA
`?<Constant "No of duplicate packe...">`:
        DC8 "No of duplicate packets received = %d\015\012"

        SECTION `.text`:CODE:NOROOT(2)
        SECTION_TYPE SHT_PROGBITS, 0
        DATA
`?<Constant "No of header errors r...">`:
        DC8 "No of header errors received = %d\015\012"

        SECTION `.text`:CODE:NOROOT(2)
        SECTION_TYPE SHT_PROGBITS, 0
        DATA
`?<Constant "Average RSSI of the r...">`:
        DC8 "Average RSSI of the received packets = %d\015\012"

        SECTION `.text`:CODE:NOROOT(2)
        SECTION_TYPE SHT_PROGBITS, 0
        DATA
`?<Constant " No of packets receiv...">`:
        DC8 20H, 4EH, 6FH, 20H, 6FH, 66H, 20H, 70H
        DC8 61H, 63H, 6BH, 65H, 74H, 73H, 20H, 72H
        DC8 65H, 63H, 65H, 69H, 76H, 65H, 64H, 20H
        DC8 61H, 74H, 20H, 31H, 4DH, 20H, 61H, 6EH
        DC8 64H, 20H, 4CH, 6FH, 6EH, 67H, 20H, 50H
        DC8 72H, 65H, 61H, 6DH, 62H, 6CH, 65H, 20H
        DC8 3DH, 20H, 25H, 64H, 0DH, 0AH, 0
        DC8 0

        SECTION `.text`:CODE:NOROOT(2)
        SECTION_TYPE SHT_PROGBITS, 0
        DATA
`?<Constant " No of packets receiv...">_1`:
        DC8 20H, 4EH, 6FH, 20H, 6FH, 66H, 20H, 70H
        DC8 61H, 63H, 6BH, 65H, 74H, 73H, 20H, 72H
        DC8 65H, 63H, 65H, 69H, 76H, 65H, 64H, 20H
        DC8 61H, 74H, 20H, 32H, 4DH, 20H, 61H, 6EH
        DC8 64H, 20H, 4CH, 6FH, 6EH, 67H, 20H, 50H
        DC8 72H, 65H, 61H, 6DH, 62H, 6CH, 65H, 20H
        DC8 3DH, 20H, 25H, 64H, 0DH, 0AH, 0
        DC8 0

        SECTION `.text`:CODE:NOROOT(2)
        SECTION_TYPE SHT_PROGBITS, 0
        DATA
`?<Constant "No of packets receive...">_2`:
        DC8 4EH, 6FH, 20H, 6FH, 66H, 20H, 70H, 61H
        DC8 63H, 6BH, 65H, 74H, 73H, 20H, 72H, 65H
        DC8 63H, 65H, 69H, 76H, 65H, 64H, 20H, 61H
        DC8 74H, 20H, 35H, 4DH, 20H, 61H, 6EH, 64H
        DC8 20H, 4CH, 6FH, 6EH, 67H, 20H, 50H, 72H
        DC8 65H, 61H, 6DH, 62H, 6CH, 65H, 20H, 3DH
        DC8 20H, 25H, 64H, 0DH, 0AH, 0
        DC8 0, 0

        SECTION `.text`:CODE:NOROOT(2)
        SECTION_TYPE SHT_PROGBITS, 0
        DATA
`?<Constant "No of packets receive...">_3`:
        DC8 4EH, 6FH, 20H, 6FH, 66H, 20H, 70H, 61H
        DC8 63H, 6BH, 65H, 74H, 73H, 20H, 72H, 65H
        DC8 63H, 65H, 69H, 76H, 65H, 64H, 20H, 61H
        DC8 74H, 20H, 31H, 31H, 4DH, 20H, 61H, 6EH
        DC8 64H, 20H, 4CH, 6FH, 6EH, 67H, 20H, 50H
        DC8 72H, 65H, 61H, 6DH, 62H, 6CH, 65H, 20H
        DC8 3DH, 20H, 25H, 64H, 0DH, 0AH, 0
        DC8 0

        SECTION `.text`:CODE:NOROOT(2)
        SECTION_TYPE SHT_PROGBITS, 0
        DATA
`?<Constant "No of packets receive...">_4`:
        DC8 4EH, 6FH, 20H, 6FH, 66H, 20H, 70H, 61H
        DC8 63H, 6BH, 65H, 74H, 73H, 20H, 72H, 65H
        DC8 63H, 65H, 69H, 76H, 65H, 64H, 20H, 61H
        DC8 74H, 20H, 32H, 4DH, 20H, 61H, 6EH, 64H
        DC8 20H, 53H, 68H, 6FH, 72H, 74H, 20H, 50H
        DC8 72H, 65H, 61H, 6DH, 62H, 6CH, 65H, 20H
        DC8 3DH, 20H, 25H, 64H, 0DH, 0AH, 0
        DC8 0

        SECTION `.text`:CODE:NOROOT(2)
        SECTION_TYPE SHT_PROGBITS, 0
        DATA
`?<Constant "No of packets receive...">_5`:
        DC8 4EH, 6FH, 20H, 6FH, 66H, 20H, 70H, 61H
        DC8 63H, 6BH, 65H, 74H, 73H, 20H, 72H, 65H
        DC8 63H, 65H, 69H, 76H, 65H, 64H, 20H, 61H
        DC8 74H, 20H, 35H, 4DH, 20H, 61H, 6EH, 64H
        DC8 20H, 53H, 68H, 6FH, 72H, 74H, 20H, 50H
        DC8 72H, 65H, 61H, 6DH, 62H, 6CH, 65H, 20H
        DC8 3DH, 20H, 25H, 64H, 0DH, 0AH, 0
        DC8 0

        SECTION `.text`:CODE:NOROOT(2)
        SECTION_TYPE SHT_PROGBITS, 0
        DATA
`?<Constant "No of packets receive...">_6`:
        DC8 4EH, 6FH, 20H, 6FH, 66H, 20H, 70H, 61H
        DC8 63H, 6BH, 65H, 74H, 73H, 20H, 72H, 65H
        DC8 63H, 65H, 69H, 76H, 65H, 64H, 20H, 61H
        DC8 74H, 20H, 31H, 31H, 4DH, 20H, 61H, 6EH
        DC8 64H, 20H, 53H, 68H, 6FH, 72H, 74H, 20H
        DC8 50H, 72H, 65H, 61H, 6DH, 62H, 6CH, 65H
        DC8 20H, 3DH, 20H, 25H, 64H, 0DH, 0AH, 0

        SECTION `.text`:CODE:NOROOT(2)
        SECTION_TYPE SHT_PROGBITS, 0
        DATA
`?<Constant "No of packets receive...">_7`:
        DC8 "No of packets received at 6M = %d\015\012"

        SECTION `.text`:CODE:NOROOT(2)
        SECTION_TYPE SHT_PROGBITS, 0
        DATA
`?<Constant "No of packets receive...">_8`:
        DC8 "No of packets received at 9M = %d\015\012"

        SECTION `.text`:CODE:NOROOT(2)
        SECTION_TYPE SHT_PROGBITS, 0
        DATA
`?<Constant "No of packets receive...">_9`:
        DC8 "No of packets received at 12M = %d\015\012"
        DC8 0, 0, 0

        SECTION `.text`:CODE:NOROOT(2)
        SECTION_TYPE SHT_PROGBITS, 0
        DATA
`?<Constant "No of packets receive...">_10`:
        DC8 "No of packets received at 18M = %d\015\012"
        DC8 0, 0, 0

        SECTION `.text`:CODE:NOROOT(2)
        SECTION_TYPE SHT_PROGBITS, 0
        DATA
`?<Constant "No of packets receive...">_11`:
        DC8 "No of packets received at 24M = %d\015\012"
        DC8 0, 0, 0

        SECTION `.text`:CODE:NOROOT(2)
        SECTION_TYPE SHT_PROGBITS, 0
        DATA
`?<Constant "No of packets receive...">_12`:
        DC8 "No of packets received at 36M = %d\015\012"
        DC8 0, 0, 0

        SECTION `.text`:CODE:NOROOT(2)
        SECTION_TYPE SHT_PROGBITS, 0
        DATA
`?<Constant "No of packets receive...">_13`:
        DC8 "No of packets received at 48M = %d\015\012"
        DC8 0, 0, 0

        SECTION `.text`:CODE:NOROOT(2)
        SECTION_TYPE SHT_PROGBITS, 0
        DATA
`?<Constant "No of packets receive...">_14`:
        DC8 "No of packets received at 54M = %d\015\012"
        DC8 0, 0, 0

        SECTION `.text`:CODE:NOROOT(2)
        SECTION_TYPE SHT_PROGBITS, 0
        DATA
`?<Constant "No of packets receive...">_15`:
        DC8 4EH, 6FH, 20H, 6FH, 66H, 20H, 70H, 61H
        DC8 63H, 6BH, 65H, 74H, 73H, 20H, 72H, 65H
        DC8 63H, 65H, 69H, 76H, 65H, 64H, 20H, 61H
        DC8 74H, 72H, 65H, 73H, 70H, 65H, 63H, 74H
        DC8 69H, 76H, 65H, 20H, 4DH, 43H, 53H, 20H
        DC8 49H, 6EH, 64H, 65H, 78H, 20H, 77H, 69H
        DC8 74H, 68H, 20H, 53H, 68H, 6FH, 72H, 74H
        DC8 20H, 47H, 49H, 3DH, 0DH, 0AH, 0
        DC8 0

        SECTION `.text`:CODE:NOROOT(2)
        SECTION_TYPE SHT_PROGBITS, 0
        DATA
`?<Constant "No of packets receive...">_16`:
        DC8 4EH, 6FH, 20H, 6FH, 66H, 20H, 70H, 61H
        DC8 63H, 6BH, 65H, 74H, 73H, 20H, 72H, 65H
        DC8 63H, 65H, 69H, 76H, 65H, 64H, 20H, 61H
        DC8 74H, 72H, 65H, 73H, 70H, 65H, 63H, 74H
        DC8 69H, 76H, 65H, 20H, 4DH, 43H, 53H, 20H
        DC8 49H, 6EH, 64H, 65H, 78H, 20H, 77H, 69H
        DC8 74H, 68H, 20H, 4CH, 6FH, 6EH, 67H, 20H
        DC8 47H, 49H, 20H, 3DH, 20H, 0DH, 0AH, 0

        SECTION `.text`:CODE:NOROOT(1)
          CFI Block cfiBlock43 Using cfiCommon0
          CFI Function S2w_Wlan_Cal_Cb
        THUMB
// 2201 VOID S2w_Wlan_Cal_Cb(VOID *ctx, GSN_WDD_CAL_RUN_RSP_T *resp)
// 2202 {
S2w_Wlan_Cal_Cb:
        PUSH     {R4-R6,LR}
          CFI R14 Frame(CFA, -4)
          CFI R6 Frame(CFA, -8)
          CFI R5 Frame(CFA, -12)
          CFI R4 Frame(CFA, -16)
          CFI CFA R13+16
        MOV      R4,R1
// 2203 	UINT32 i = 0;
        MOVS     R5,#+0
// 2204 	S2w_Printf("Calibration Info:\r\n");
        ADR.W    R0,`?<Constant "Calibration Info:\\r\\n">`
          CFI FunCall S2w_Printf
        BL       S2w_Printf
// 2205 	if(GSN_WIF_CAL_SUCCESS == resp->status)
        LDRB     R1,[R4, #+0]
        ADR.W    R0,`?<Constant "status = %s\\r\\n">`
        CMP      R1,#+0
        ITE      EQ 
        ADREQ.W  R1,`?<Constant "SUCCESS">`
        ADRNE.W  R1,`?<Constant "FAIL">`
// 2206 	{
// 2207 		S2w_Printf("status = %s\r\n", "SUCCESS");		
// 2208 	}
// 2209 	else
// 2210 	{
// 2211 		S2w_Printf("status = %s\r\n", "FAIL");
          CFI FunCall S2w_Printf
        BL       S2w_Printf
// 2212 	}
// 2213 
// 2214 	S2w_Printf("Length = %d\r\n", resp->len);
        LDRH     R1,[R4, #+2]
        ADR.W    R0,`?<Constant "Length = %d\\r\\n">`
          CFI FunCall S2w_Printf
        BL       S2w_Printf
// 2215 	S2w_Printf("Data:\r\n\r\n");
        ADR.W    R0,`?<Constant "Data:\\r\\n\\r\\n">`
          CFI FunCall S2w_Printf
        BL       S2w_Printf
// 2216 	for(i = 0; i < resp->len ; i++)
        ADR.N    R6,??DataTable161  ;; "%x "
        B.N      ??S2w_Wlan_Cal_Cb_0
// 2217 	{
// 2218 		S2w_Printf("%x ", resp->data[i]);
??S2w_Wlan_Cal_Cb_1:
        ADDS     R0,R5,R4
        LDRB     R1,[R0, #+4]
        BL       ??Subroutine38_0
// 2219 	}
??CrossCallReturnLabel_286:
        ADDS     R5,R5,#+1
??S2w_Wlan_Cal_Cb_0:
        LDRH     R0,[R4, #+2]
        CMP      R5,R0
        BCC.N    ??S2w_Wlan_Cal_Cb_1
// 2220 	S2w_Printf("\r\n");
        ADR.N    R0,??DataTable161_1  ;; 0x0D, 0x0A, 0x00, 0x00
          CFI FunCall S2w_Printf
        BL       S2w_Printf
// 2221     GsnOsal_SemRelease ( &s2wWlanOpSyncSem);
        LDR.W    R0,??DataTable173
        POP      {R4-R6,LR}
          CFI R4 SameValue
          CFI R5 SameValue
          CFI R6 SameValue
          CFI R14 SameValue
          CFI CFA R13+0
          CFI FunCall GsnOsal_SemRelease
        B.W      GsnOsal_SemRelease
          CFI EndBlock cfiBlock43
// 2222 }

        SECTION `.text`:CODE:NOROOT(2)
        SECTION_TYPE SHT_PROGBITS, 0
        DATA
`?<Constant "Calibration Info:\\r\\n">`:
        DC8 "Calibration Info:\015\012"

        SECTION `.text`:CODE:NOROOT(2)
        SECTION_TYPE SHT_PROGBITS, 0
        DATA
`?<Constant "status = %s\\r\\n">`:
        DC8 "status = %s\015\012"
        DC8 0, 0

        SECTION `.text`:CODE:NOROOT(2)
        SECTION_TYPE SHT_PROGBITS, 0
        DATA
`?<Constant "SUCCESS">`:
        DC8 "SUCCESS"

        SECTION `.text`:CODE:NOROOT(2)
        SECTION_TYPE SHT_PROGBITS, 0
        DATA
`?<Constant "FAIL">`:
        DC8 "FAIL"
        DC8 0, 0, 0

        SECTION `.text`:CODE:NOROOT(2)
        SECTION_TYPE SHT_PROGBITS, 0
        DATA
`?<Constant "Length = %d\\r\\n">`:
        DC8 "Length = %d\015\012"
        DC8 0, 0

        SECTION `.text`:CODE:NOROOT(2)
        SECTION_TYPE SHT_PROGBITS, 0
        DATA
`?<Constant "Data:\\r\\n\\r\\n">`:
        DC8 "Data:\015\012\015\012"
        DC8 0, 0

        SECTION `.text`:CODE:NOROOT(1)
          CFI Block cfiBlock44 Using cfiCommon0
          CFI Function AppS2wCmd_WlanCalib
        THUMB
// 2223 PUBLIC UINT8 AppS2wCmd_WlanCalib (UINT8 *ptr)
// 2224 {
AppS2wCmd_WlanCalib:
        PUSH     {R0,R4,LR}
          CFI R14 Frame(CFA, -4)
          CFI R4 Frame(CFA, -8)
          CFI CFA R13+12
        SUB      SP,SP,#+20
          CFI CFA R13+32
// 2225 	UINT8 status;;
// 2226 	GSN_WDD_CAL_RUN_REQ_T calRunReq;
// 2227 	UINT32 temp = 0;	
        MOVS     R0,#+0
        STR      R0,[SP, #+0]
// 2228 	GSN_WDD_CTX_T *pWdd = &appCtx.if0.wddCtx;
// 2229 	UINT8 *p;
// 2230 
// 2231 	p=(UINT8*)AppS2wParse_NextParamGet(&ptr);
        BL       ?Subroutine16
// 2232 	if(!p)
??CrossCallReturnLabel_162:
        CBZ.N    R0,??AppS2wCmd_WlanCalib_0
// 2233 	{
// 2234 		return S2W_EINVAL;
// 2235 	}
// 2236 	status = AppS2wParse_Int(p, &temp);
        BL       ?Subroutine17
// 2237 	if (status != S2W_SUCCESS)
??CrossCallReturnLabel_214:
        CMP      R0,#+0
        BNE.N    ??AppS2wCmd_WlanCalib_1
// 2238 	{
// 2239 		return status;
// 2240 	}
// 2241 	calRunReq.calType = temp;
        LDR      R0,[SP, #+0]
        STRH     R0,[SP, #+4]
// 2242 
// 2243 	p=(UINT8*)AppS2wParse_NextParamGet(&ptr);	
        BL       ?Subroutine16
// 2244 	if(!p)
??CrossCallReturnLabel_161:
        CBZ.N    R0,??AppS2wCmd_WlanCalib_0
// 2245 	{
// 2246 		return S2W_EINVAL;
// 2247 	}
// 2248 	status = AppS2wParse_Int(p, &temp);
        BL       ?Subroutine17
// 2249 	if (status != S2W_SUCCESS)
??CrossCallReturnLabel_213:
        CBNZ.N   R0,??AppS2wCmd_WlanCalib_1
// 2250 	{
// 2251 		return status;
// 2252 	}	
// 2253 	calRunReq.calSubtype = temp;
        LDR      R0,[SP, #+0]
        STRH     R0,[SP, #+6]
// 2254 
// 2255 	p=(UINT8*)AppS2wParse_NextParamGet(&ptr);
        BL       ?Subroutine16
// 2256 	if(!p)
??CrossCallReturnLabel_160:
        CBNZ.N   R0,??AppS2wCmd_WlanCalib_2
// 2257 	{
// 2258 		return S2W_EINVAL;
??AppS2wCmd_WlanCalib_0:
        MOVS     R0,#+2
        B.N      ??AppS2wCmd_WlanCalib_1
// 2259 	}
// 2260 	status = AppS2wParse_Int(p, &temp);
??AppS2wCmd_WlanCalib_2:
        BL       ?Subroutine17
// 2261 	if (status != S2W_SUCCESS)
??CrossCallReturnLabel_212:
        CBNZ.N   R0,??AppS2wCmd_WlanCalib_1
// 2262 	{
// 2263 		return status;
// 2264 	}
// 2265 	calRunReq.channel = temp;
        LDR      R0,[SP, #+0]
        STR      R0,[SP, #+8]
// 2266 	calRunReq.modType = 0xFF;// unknown
        MOVS     R0,#+255
        STRB     R0,[SP, #+12]
// 2267 	p=(UINT8*)AppS2wParse_NextParamGet(&ptr);
        BL       ?Subroutine16
// 2268 	if (p && *p)
??CrossCallReturnLabel_159:
        CMP      R0,#+0
        ITT      NE 
        LDRBNE   R1,[R0, #+0]
        CMPNE    R1,#+0
        BEQ.N    ??AppS2wCmd_WlanCalib_3
// 2269 	{
// 2270 		status = AppS2wParse_Int(p, &temp);
        BL       ?Subroutine17
// 2271 	    if (status != S2W_SUCCESS)
??CrossCallReturnLabel_211:
        CBNZ.N   R0,??AppS2wCmd_WlanCalib_1
// 2272 	    {
// 2273 	    	return status;
// 2274 	    }
// 2275 	    calRunReq.modType = (UINT8)temp;
        LDR      R0,[SP, #+0]
        STRB     R0,[SP, #+12]
// 2276 	}
// 2277 	S2w_Printf("\r\n ModType:%d\r\n",calRunReq.modType);
??AppS2wCmd_WlanCalib_3:
        LDRB     R1,[SP, #+12]
        ADR.W    R0,`?<Constant "\\r\\n ModType:%d\\r\\n">`
          CFI FunCall S2w_Printf
        BL       S2w_Printf
// 2278 	status = GsnWdd_CalibrnRun(pWdd, &calRunReq, S2w_Wlan_Cal_Cb, NULL);
        LDR.W    R2,??DataTable173_1
        LDR.N    R0,??DataTable162_6
        MOVS     R3,#+0
        ADD      R1,SP,#+4
          CFI FunCall GsnWdd_CalibrnRun
        BL       GsnWdd_CalibrnRun
        MOV      R4,R0
// 2279 	GsnOsal_SemAcquire ( &s2wWlanOpSyncSem, GSN_OSAL_WAIT_FOREVER );
        MOV      R1,#-1
        LDR.W    R0,??DataTable173
          CFI FunCall GsnOsal_SemAcquire
        BL       GsnOsal_SemAcquire
// 2280 	/* [TO DO] : Print the stat values*/
// 2281 	return status;
        UXTB     R0,R4
??AppS2wCmd_WlanCalib_1:
        ADD      SP,SP,#+24
          CFI CFA R13+8
        POP      {R4,PC}          ;; return
          CFI EndBlock cfiBlock44
// 2282 }

        SECTION `.text`:CODE:NOROOT(2)
        SECTION_TYPE SHT_PROGBITS, 0
        DATA
??DataTable160:
        DC32     0x40160200

        SECTION `.text`:CODE:NOROOT(2)
        SECTION_TYPE SHT_PROGBITS, 0
        DATA
??DataTable160_1:
        DC32     s2wCurrent

        SECTION `.text`:CODE:NOROOT(2)
        SECTION_TYPE SHT_PROGBITS, 0
        DATA
??DataTable160_2:
        DC32     s2wCidList

        SECTION `.text`:CODE:NOROOT(2)
        SECTION_TYPE SHT_PROGBITS, 0
        DATA
??DataTable160_3:
        DC32     s2wappMainTaskCtxt

        SECTION `.text`:CODE:NOROOT(2)
        SECTION_TYPE SHT_PROGBITS, 0
        DATA
`?<Constant "\\r\\n ModType:%d\\r\\n">`:
        DC8 "\015\012 ModType:%d\015\012"

        SECTION `.text`:CODE:NOROOT(1)
          CFI Block cfiCond45 Using cfiCommon0
          CFI Function AppS2wCmd_WlanCalib
          CFI Conditional ??CrossCallReturnLabel_162
          CFI R4 Frame(CFA, -8)
          CFI R14 Frame(CFA, -4)
          CFI CFA R13+32
          CFI Block cfiCond46 Using cfiCommon0
          CFI (cfiCond46) Function AppS2wCmd_WlanCalib
          CFI (cfiCond46) Conditional ??CrossCallReturnLabel_161
          CFI (cfiCond46) R4 Frame(CFA, -8)
          CFI (cfiCond46) R14 Frame(CFA, -4)
          CFI (cfiCond46) CFA R13+32
          CFI Block cfiCond47 Using cfiCommon0
          CFI (cfiCond47) Function AppS2wCmd_WlanCalib
          CFI (cfiCond47) Conditional ??CrossCallReturnLabel_160
          CFI (cfiCond47) R4 Frame(CFA, -8)
          CFI (cfiCond47) R14 Frame(CFA, -4)
          CFI (cfiCond47) CFA R13+32
          CFI Block cfiCond48 Using cfiCommon0
          CFI (cfiCond48) Function AppS2wCmd_WlanCalib
          CFI (cfiCond48) Conditional ??CrossCallReturnLabel_159
          CFI (cfiCond48) R4 Frame(CFA, -8)
          CFI (cfiCond48) R14 Frame(CFA, -4)
          CFI (cfiCond48) CFA R13+32
          CFI Block cfiPicker49 Using cfiCommon1
          CFI (cfiPicker49) NoFunction
          CFI (cfiPicker49) Picker
        THUMB
?Subroutine16:
        ADD      R0,SP,#+20
          CFI FunCall AppS2wCmd_WlanCalib AppS2wParse_NextParamGet
          CFI FunCall AppS2wCmd_WlanCalib AppS2wParse_NextParamGet
          CFI FunCall AppS2wCmd_WlanCalib AppS2wParse_NextParamGet
          CFI FunCall AppS2wCmd_WlanCalib AppS2wParse_NextParamGet
        B.W      AppS2wParse_NextParamGet
          CFI EndBlock cfiCond45
          CFI EndBlock cfiCond46
          CFI EndBlock cfiCond47
          CFI EndBlock cfiCond48
          CFI EndBlock cfiPicker49
// 2283 
// 2284 #endif
// 2285 
// 2286 
// 2287 
// 2288 #ifdef S2W_WEB_SERVER
// 2289 
// 2290 /******************************************************************
// 2291 * @ingroup S2w-Application
// 2292 * @brief Process AT+WEBSERVER command
// 2293 *	 This Command starts webserver
// 2294 * @param ptr Pointer to the user input string.
// 2295 *
// 2296 * @return S2W_SUCCESS - operation successful.
// 2297 * @return S2W_FAILURE - operation Failed.
// 2298 * @return S2W_EINVAL - operation Failed-invalid input
// 2299 *************************************************************/
// 2300 

        SECTION `.text`:CODE:NOROOT(1)
          CFI Block cfiBlock50 Using cfiCommon0
          CFI Function AppS2wCmd_WebServer
        THUMB
// 2301 UINT8
// 2302 AppS2wCmd_WebServer(UINT8* ptr)
// 2303 {
AppS2wCmd_WebServer:
        PUSH     {R0,R4-R11,LR}
          CFI R14 Frame(CFA, -4)
          CFI R11 Frame(CFA, -8)
          CFI R10 Frame(CFA, -12)
          CFI R9 Frame(CFA, -16)
          CFI R8 Frame(CFA, -20)
          CFI R7 Frame(CFA, -24)
          CFI R6 Frame(CFA, -28)
          CFI R5 Frame(CFA, -32)
          CFI R4 Frame(CFA, -36)
          CFI CFA R13+40
        SUB      SP,SP,#+16
          CFI CFA R13+56
// 2304 	UINT8 status = S2W_FAILURE;
// 2305 	UINT32 webSrvrEnable;
// 2306 	UINT8 *p;
// 2307 	UINT8 dfltUnamePwd[8];
// 2308 	UINT32 message;
// 2309 	UINT8 i;
// 2310 	UINT32 val = 0;
        MOVS     R0,#+0
        STR      R0,[SP, #+0]
// 2311 
// 2312 	memset(&s2wappMainTaskCtxt->WebServerCfg,0,sizeof(S2W_WBSERVER_CONFIG_T));
        MOVW     R4,#+27478
        LDR.W    R5,??DataTable173_2
        BL       ?Subroutine20
// 2313 	p = AppS2wParse_NextParamGet(&ptr);
??CrossCallReturnLabel_235:
        BL       ??Subroutine9_0
// 2314     if (!p)
??CrossCallReturnLabel_97:
        CMP      R0,#+0
        BEQ.N    ??AppS2wCmd_WebServer_0
// 2315 	{
// 2316 	   return S2W_EINVAL;
// 2317 	}
// 2318 
// 2319 	AppS2wParse_Int(p, &webSrvrEnable);
        BL       ?Subroutine19
// 2320 
// 2321 	if( (webSrvrEnable==0) && (TRUE == GsnHttpd_IsRunning()) && s2wappMainTaskCtxt->webServerStatus == RUNNING)
??CrossCallReturnLabel_232:
        LDR      R0,[SP, #+4]
        LDR.W    R11,??DataTable173_3
        MOVW     R10,#+27580
        MOVW     R6,#+27588
        CBNZ.N   R0,??AppS2wCmd_WebServer_1
          CFI FunCall GsnHttpd_IsRunning
        BL       GsnHttpd_IsRunning
        CMP      R0,#+1
        ITTT     EQ 
        LDREQ    R1,[R5, #+0]
        LDRBEQ   R0,[R6, R1]
        CMPEQ    R0,#+2
        BNE.N    ??AppS2wCmd_WebServer_1
// 2322 	{
// 2323 		message = APP_NOTIFICATION_SRVR_ONLY_STOP;
// 2324 		(s2wappMainTaskNotifier)(message, s2wappMainTaskCtxt);
        LDR      R2,[R11, #+0]
        MOVS     R0,#+27
          CFI FunCall
        BLX      R2
// 2325 		GsnOsal_SemAcquire(&s2wappMainTaskCtxt->webServerSync,GSN_OSAL_WAIT_FOREVER);
        BL       ?Subroutine23
// 2326 		memset(&s2wappMainTaskCtxt->WebServerCfg,0,sizeof(S2W_WBSERVER_CONFIG_T));
??CrossCallReturnLabel_248:
        BL       ?Subroutine20
// 2327 		s2wappMainTaskCtxt->respTimeOut=0;
??CrossCallReturnLabel_234:
        BL       ?Subroutine40
// 2328 		s2wappMainTaskCtxt->responseInprogress=0;
// 2329 		GsnSoftTmr_Stop(s2wappMainTaskCtxt->respTimeOutTmrHndl);		
??CrossCallReturnLabel_293:
        MOVW     R0,#+27624
        LDR      R1,[R5, #+0]
        LDR      R0,[R0, R1]
          CFI FunCall GsnSoftTmr_Stop
        BL       GsnSoftTmr_Stop
// 2330 		return S2W_SUCCESS;
        MOVS     R0,#+0
        B.N      ??AppS2wCmd_WebServer_2
// 2331 	}
// 2332 	else if( (webSrvrEnable==0) && (FALSE == GsnHttpd_IsRunning()) )
??AppS2wCmd_WebServer_1:
        LDR      R0,[SP, #+4]
        CBNZ.N   R0,??AppS2wCmd_WebServer_3
          CFI FunCall GsnHttpd_IsRunning
        BL       GsnHttpd_IsRunning
        CBZ.N    R0,??AppS2wCmd_WebServer_4
// 2333 	{
// 2334 		return S2W_FAILURE;
// 2335 	}
// 2336 	else if( (webSrvrEnable==1) && (TRUE == GsnHttpd_IsRunning()) && s2wappMainTaskCtxt->webServerStatus == RUNNING)
??AppS2wCmd_WebServer_3:
        LDR      R0,[SP, #+4]
        CMP      R0,#+1
        BNE.N    ??AppS2wCmd_WebServer_5
          CFI FunCall GsnHttpd_IsRunning
        BL       GsnHttpd_IsRunning
        CMP      R0,#+1
        ITTT     EQ 
        LDREQ    R0,[R5, #+0]
        LDRBEQ   R0,[R6, R0]
        CMPEQ    R0,#+2
        BNE.N    ??AppS2wCmd_WebServer_5
// 2337 	{
// 2338 		return S2W_FAILURE;
??AppS2wCmd_WebServer_4:
        MOVS     R0,#+1
        B.N      ??AppS2wCmd_WebServer_2
// 2339 	}
// 2340 	memset(&s2wappMainTaskCtxt->WebServerCfg,0,sizeof(S2W_WBSERVER_CONFIG_T));
??AppS2wCmd_WebServer_5:
        BL       ?Subroutine20
// 2341 	/* get user name and password*/
// 2342 	p = AppS2wParse_NextParamGet(&ptr);
??CrossCallReturnLabel_233:
        BL       ??Subroutine9_0
??CrossCallReturnLabel_96:
        MOVS     R8,R0
// 2343     if (!p || (strlen((const char *)p) > S2W_HTTPD_MAX_USERNAME_LEN))
        BEQ.N    ??AppS2wCmd_WebServer_0
          CFI FunCall strlen
        BL       strlen
        CMP      R0,#+17
        BCS.N    ??AppS2wCmd_WebServer_0
// 2344     {
// 2345        	return S2W_EINVAL;
// 2346     }
// 2347     strcpy((INT8 *)s2wappMainTaskCtxt->WebServerCfg.username,(const INT8 *) p);
        LDR      R0,[R5, #+0]
        BL       ?Subroutine41
??CrossCallReturnLabel_298:
        ADR.W    R9,`?<Constant "DEFAULT">`
        ADD      R6,SP,#+8
        MOV      R0,R8
// 2348 	if(7 == strlen((INT8 *)p))
          CFI FunCall strlen
        BL       strlen
        CMP      R0,#+7
        BNE.N    ??CrossCallReturnLabel_296
// 2349 	{
// 2350 		for(i = 0; i< 7; i++)
        MOVS     R7,#+0
// 2351 		{
// 2352 			dfltUnamePwd[i] = toupper(p[i]);
??AppS2wCmd_WebServer_6:
        LDRB     R0,[R7, R8]
          CFI FunCall toupper
        BL       toupper
        STRB     R0,[R7, R6]
// 2353 		}
        ADDS     R7,R7,#+1
        CMP      R7,#+7
        BLT.N    ??AppS2wCmd_WebServer_6
// 2354 		dfltUnamePwd[i] = 0;
        BL       ?Subroutine8
// 2355 		if(0 == strcmp((const char *)dfltUnamePwd, "DEFAULT"))
??CrossCallReturnLabel_79:
        CBNZ.N   R0,??CrossCallReturnLabel_296
// 2356 		{
// 2357 			strcpy(s2wappMainTaskCtxt->WebServerCfg.username, (const char *)s2wCurrent.httpSrvrConf.username);
        LDR      R0,[R5, #+0]
        LDR.W    R1,??DataTable174
        BL       ??Subroutine41_0
// 2358 		}
// 2359 	}
// 2360     p = AppS2wParse_NextParamGet(&ptr);
??CrossCallReturnLabel_296:
        BL       ??Subroutine9_0
??CrossCallReturnLabel_95:
        MOVS     R8,R0
// 2361     if (!p || (strlen((const char *)p) > S2W_HTTPD_MAX_PASSWORD_LEN) )
        BEQ.N    ??AppS2wCmd_WebServer_0
          CFI FunCall strlen
        BL       strlen
        CMP      R0,#+17
        BCC.N    ??AppS2wCmd_WebServer_7
// 2362     {
// 2363         return S2W_EINVAL;
??AppS2wCmd_WebServer_0:
        MOVS     R0,#+2
        B.N      ??AppS2wCmd_WebServer_2
// 2364     }
// 2365     strcpy(s2wappMainTaskCtxt->WebServerCfg.passwd, (const INT8 *)p);
??AppS2wCmd_WebServer_7:
        LDR      R0,[R5, #+0]
        MOVW     R4,#+27495
        BL       ?Subroutine41
// 2366 	if(7 == strlen((INT8 *)p))
??CrossCallReturnLabel_297:
        MOV      R0,R8
          CFI FunCall strlen
        BL       strlen
        CMP      R0,#+7
        BNE.N    ??CrossCallReturnLabel_295
// 2367 	{
// 2368 		for(i = 0; i< 7; i++)
        MOVS     R7,#+0
// 2369 		{
// 2370 			dfltUnamePwd[i] = toupper(p[i]);
??AppS2wCmd_WebServer_8:
        LDRB     R0,[R7, R8]
          CFI FunCall toupper
        BL       toupper
        STRB     R0,[R7, R6]
// 2371 		}
        ADDS     R7,R7,#+1
        CMP      R7,#+7
        BLT.N    ??AppS2wCmd_WebServer_8
// 2372 		dfltUnamePwd[i] = 0;
        BL       ?Subroutine8
// 2373 		if(0 == strcmp((const char *)dfltUnamePwd, "DEFAULT"))
??CrossCallReturnLabel_78:
        CBNZ.N   R0,??CrossCallReturnLabel_295
// 2374 		{
// 2375 			strcpy(s2wappMainTaskCtxt->WebServerCfg.passwd, (const char *)s2wCurrent.httpSrvrConf.password);
        LDR      R0,[R5, #+0]
        LDR.W    R1,??DataTable175
        BL       ??Subroutine41_0
// 2376 		}
// 2377 	}
// 2378     /* Assume SSL is not used */
// 2379     s2wappMainTaskCtxt->WebServerCfg.sslEnabled = S2W_DFLT_HTTP_SRVR_SSL_ENABLE;
??CrossCallReturnLabel_295:
        LDR      R0,[R5, #+0]
        MOVW     R4,#+27513
        MOVS     R1,#+0
        STRB     R1,[R4, R0]
// 2380 
// 2381 	/* see if more parameters are present */
// 2382     p = AppS2wParse_NextParamGet(&ptr);
        BL       ??Subroutine9_0
??CrossCallReturnLabel_94:
        MOVS     R6,R0
// 2383 	if (p && 0 != strlen ((INT8 *)p))
        BEQ.N    ??AppS2wCmd_WebServer_9
          CFI FunCall strlen
        BL       strlen
        CBZ.N    R0,??AppS2wCmd_WebServer_9
// 2384 	{
// 2385 	   status = AppS2wParse_Boolean(p, &s2wappMainTaskCtxt->WebServerCfg.sslEnabled);
        LDR      R0,[R5, #+0]
        ADDS     R1,R4,R0
        MOV      R0,R6
          CFI FunCall AppS2wParse_Boolean
        BL       AppS2wParse_Boolean
// 2386 	   if (status != S2W_SUCCESS)
        CMP      R0,#+0
        BNE.N    ??AppS2wCmd_WebServer_2
// 2387 	   {
// 2388 		   return status;
// 2389 	   }
// 2390 	}
// 2391 	s2wappMainTaskCtxt->WebServerCfg.IdleTimeOut = S2W_DFLT_HTTP_SRVR_IDLE_TIMEOUT;
??AppS2wCmd_WebServer_9:
        LDR      R0,[R5, #+0]
        MOVW     R4,#+27516
        MOVS     R1,#+120
        STRH     R1,[R4, R0]
// 2392 	p = AppS2wParse_NextParamGet(&ptr);
        BL       ??Subroutine9_0
??CrossCallReturnLabel_93:
        MOVS     R6,R0
// 2393 	if (p && 0 != strlen ((INT8 *)p))
        BEQ.N    ??AppS2wCmd_WebServer_10
          CFI FunCall strlen
        BL       strlen
        CBZ.N    R0,??AppS2wCmd_WebServer_10
// 2394 	{
// 2395 		status = AppS2wParse_Int(p, &val);
        BL       ?Subroutine18
// 2396 		if (status != S2W_SUCCESS)
??CrossCallReturnLabel_221:
        CBNZ.N   R0,??AppS2wCmd_WebServer_2
// 2397 	    {
// 2398 	        return status;
// 2399 	    }
// 2400 		s2wappMainTaskCtxt->WebServerCfg.IdleTimeOut = val;
        LDR      R0,[R5, #+0]
        LDR      R1,[SP, #+0]
        STRH     R1,[R4, R0]
// 2401 	}
// 2402 	p = AppS2wParse_NextParamGet(&ptr);
??AppS2wCmd_WebServer_10:
        BL       ??Subroutine9_0
??CrossCallReturnLabel_92:
        MOV      R4,R0
// 2403 #if (defined(S2W_GSLINK_XML) || defined(S2W_GSLINK_RAW))
// 2404 		s2wappMainTaskCtxt->respTimeOut = 0;
        BL       ?Subroutine40
// 2405 		s2wappMainTaskCtxt->responseInprogress=0;
// 2406 		if (p && 0 != strlen ((INT8 *)p))
??CrossCallReturnLabel_294:
        CBZ.N    R4,??AppS2wCmd_WebServer_11
        BL       ?Subroutine1
??CrossCallReturnLabel_5:
        CBZ.N    R0,??AppS2wCmd_WebServer_11
// 2407 		{
// 2408 			status = AppS2wParse_Int(p, &val);
        ADD      R1,SP,#+0
        MOV      R0,R4
          CFI FunCall AppS2wParse_Int
        BL       AppS2wParse_Int
// 2409 			if (status != S2W_SUCCESS)
        CBNZ.N   R0,??AppS2wCmd_WebServer_2
// 2410 				return status;	
// 2411 			s2wappMainTaskCtxt->respTimeOut = val*TIMER_INTERRUPT_1_MS;
        LDR      R1,[R5, #+0]
        LDR      R2,[SP, #+0]
        MOVW     R0,#+27584
        LSLS     R2,R2,#+5
        STR      R2,[R0, R1]
// 2412 		}
// 2413 #endif
// 2414     	
// 2415 	message = APP_NOTIFICATION_SRVR_START;
// 2416 	(s2wappMainTaskNotifier)(message, s2wappMainTaskCtxt);
??AppS2wCmd_WebServer_11:
        LDR      R1,[R5, #+0]
        LDR      R2,[R11, #+0]
        MOVS     R0,#+29
          CFI FunCall
        BLX      R2
// 2417 	GsnOsal_SemAcquire(&s2wappMainTaskCtxt->webServerSync,GSN_OSAL_WAIT_FOREVER);
        BL       ?Subroutine23
// 2418 	return s2wappMainTaskCtxt->WebServerCfg.status;
??CrossCallReturnLabel_247:
        LDR      R1,[R5, #+0]
        MOVW     R0,#+27512
        LDRB     R0,[R0, R1]
??AppS2wCmd_WebServer_2:
        B.N      ?Subroutine0
          CFI EndBlock cfiBlock50
// 2419 }

        SECTION `.text`:CODE:NOROOT(2)
        SECTION_TYPE SHT_PROGBITS, 0
        DATA
??DataTable161:
        DC8      "%x "

        SECTION `.text`:CODE:NOROOT(2)
        SECTION_TYPE SHT_PROGBITS, 0
        DATA
??DataTable161_1:
        DC8      0x0D, 0x0A, 0x00, 0x00

        SECTION `.text`:CODE:NOROOT(2)
        SECTION_TYPE SHT_PROGBITS, 0
        DATA
??DataTable161_2:
        DC32     App_XmlParserCb

        SECTION `.text`:CODE:NOROOT(2)
        SECTION_TYPE SHT_PROGBITS, 0
        DATA
??DataTable161_3:
        DC32     0x8000000c

        SECTION `.text`:CODE:NOROOT(1)
          CFI Block cfiCond51 Using cfiCommon0
          CFI Function AppS2wCmd_WebServer
          CFI Conditional ??CrossCallReturnLabel_298
          CFI R4 Frame(CFA, -36)
          CFI R5 Frame(CFA, -32)
          CFI R6 Frame(CFA, -28)
          CFI R7 Frame(CFA, -24)
          CFI R8 Frame(CFA, -20)
          CFI R9 Frame(CFA, -16)
          CFI R10 Frame(CFA, -12)
          CFI R11 Frame(CFA, -8)
          CFI R14 Frame(CFA, -4)
          CFI CFA R13+56
          CFI Block cfiCond52 Using cfiCommon0
          CFI (cfiCond52) Function AppS2wCmd_WebServer
          CFI (cfiCond52) Conditional ??CrossCallReturnLabel_297
          CFI (cfiCond52) R4 Frame(CFA, -36)
          CFI (cfiCond52) R5 Frame(CFA, -32)
          CFI (cfiCond52) R6 Frame(CFA, -28)
          CFI (cfiCond52) R7 Frame(CFA, -24)
          CFI (cfiCond52) R8 Frame(CFA, -20)
          CFI (cfiCond52) R9 Frame(CFA, -16)
          CFI (cfiCond52) R10 Frame(CFA, -12)
          CFI (cfiCond52) R11 Frame(CFA, -8)
          CFI (cfiCond52) R14 Frame(CFA, -4)
          CFI (cfiCond52) CFA R13+56
          CFI Block cfiPicker53 Using cfiCommon1
          CFI (cfiPicker53) NoFunction
          CFI (cfiPicker53) Picker
        THUMB
?Subroutine41:
        MOV      R1,R8
          CFI Block cfiCond54 Using cfiCommon0
          CFI (cfiCond54) Function AppS2wCmd_WebServer
          CFI (cfiCond54) Conditional ??CrossCallReturnLabel_296
          CFI (cfiCond54) R4 Frame(CFA, -36)
          CFI (cfiCond54) R5 Frame(CFA, -32)
          CFI (cfiCond54) R6 Frame(CFA, -28)
          CFI (cfiCond54) R7 Frame(CFA, -24)
          CFI (cfiCond54) R8 Frame(CFA, -20)
          CFI (cfiCond54) R9 Frame(CFA, -16)
          CFI (cfiCond54) R10 Frame(CFA, -12)
          CFI (cfiCond54) R11 Frame(CFA, -8)
          CFI (cfiCond54) R14 Frame(CFA, -4)
          CFI (cfiCond54) CFA R13+56
          CFI Block cfiCond55 Using cfiCommon0
          CFI (cfiCond55) Function AppS2wCmd_WebServer
          CFI (cfiCond55) Conditional ??CrossCallReturnLabel_295
          CFI (cfiCond55) R4 Frame(CFA, -36)
          CFI (cfiCond55) R5 Frame(CFA, -32)
          CFI (cfiCond55) R6 Frame(CFA, -28)
          CFI (cfiCond55) R7 Frame(CFA, -24)
          CFI (cfiCond55) R8 Frame(CFA, -20)
          CFI (cfiCond55) R9 Frame(CFA, -16)
          CFI (cfiCond55) R10 Frame(CFA, -12)
          CFI (cfiCond55) R11 Frame(CFA, -8)
          CFI (cfiCond55) R14 Frame(CFA, -4)
          CFI (cfiCond55) CFA R13+56
??Subroutine41_0:
        ADDS     R0,R4,R0
          CFI FunCall AppS2wCmd_WebServer strcpy
          CFI FunCall AppS2wCmd_WebServer strcpy
          CFI FunCall AppS2wCmd_WebServer strcpy
          CFI FunCall AppS2wCmd_WebServer strcpy
        B.W      strcpy
          CFI EndBlock cfiCond51
          CFI EndBlock cfiCond52
          CFI EndBlock cfiPicker53
          CFI EndBlock cfiCond54
          CFI EndBlock cfiCond55

        SECTION `.text`:CODE:NOROOT(1)
          CFI Block cfiCond56 Using cfiCommon0
          CFI Function AppS2wCmd_WebServer
          CFI NoCalls
          CFI Conditional ??CrossCallReturnLabel_293
          CFI R4 Frame(CFA, -36)
          CFI R5 Frame(CFA, -32)
          CFI R6 Frame(CFA, -28)
          CFI R7 Frame(CFA, -24)
          CFI R8 Frame(CFA, -20)
          CFI R9 Frame(CFA, -16)
          CFI R10 Frame(CFA, -12)
          CFI R11 Frame(CFA, -8)
          CFI R14 Frame(CFA, -4)
          CFI CFA R13+56
          CFI Block cfiCond57 Using cfiCommon0
          CFI (cfiCond57) Function AppS2wCmd_WebServer
          CFI (cfiCond57) NoCalls AppS2wCmd_WebServer
          CFI (cfiCond57) Conditional ??CrossCallReturnLabel_294
          CFI (cfiCond57) R4 Frame(CFA, -36)
          CFI (cfiCond57) R5 Frame(CFA, -32)
          CFI (cfiCond57) R6 Frame(CFA, -28)
          CFI (cfiCond57) R7 Frame(CFA, -24)
          CFI (cfiCond57) R8 Frame(CFA, -20)
          CFI (cfiCond57) R9 Frame(CFA, -16)
          CFI (cfiCond57) R10 Frame(CFA, -12)
          CFI (cfiCond57) R11 Frame(CFA, -8)
          CFI (cfiCond57) R14 Frame(CFA, -4)
          CFI (cfiCond57) CFA R13+56
          CFI Block cfiPicker58 Using cfiCommon1
          CFI (cfiPicker58) NoFunction
          CFI (cfiPicker58) NoCalls AppS2wCmd_WebServer
          CFI (cfiPicker58) Picker
        THUMB
?Subroutine40:
        LDR      R0,[R5, #+0]
        ADD      R1,R10,R0
        MOVS     R2,#+0
        STR      R2,[R1, #+4]
        STRB     R2,[R10, R0]
        BX       LR
          CFI EndBlock cfiCond56
          CFI EndBlock cfiCond57
          CFI EndBlock cfiPicker58

        SECTION `.text`:CODE:NOROOT(1)
          CFI Block cfiCond59 Using cfiCommon0
          CFI Function AppS2wCmd_WebServer
          CFI Conditional ??CrossCallReturnLabel_235
          CFI R4 Frame(CFA, -36)
          CFI R5 Frame(CFA, -32)
          CFI R6 Frame(CFA, -28)
          CFI R7 Frame(CFA, -24)
          CFI R8 Frame(CFA, -20)
          CFI R9 Frame(CFA, -16)
          CFI R10 Frame(CFA, -12)
          CFI R11 Frame(CFA, -8)
          CFI R14 Frame(CFA, -4)
          CFI CFA R13+56
          CFI Block cfiCond60 Using cfiCommon0
          CFI (cfiCond60) Function AppS2wCmd_WebServer
          CFI (cfiCond60) Conditional ??CrossCallReturnLabel_234
          CFI (cfiCond60) R4 Frame(CFA, -36)
          CFI (cfiCond60) R5 Frame(CFA, -32)
          CFI (cfiCond60) R6 Frame(CFA, -28)
          CFI (cfiCond60) R7 Frame(CFA, -24)
          CFI (cfiCond60) R8 Frame(CFA, -20)
          CFI (cfiCond60) R9 Frame(CFA, -16)
          CFI (cfiCond60) R10 Frame(CFA, -12)
          CFI (cfiCond60) R11 Frame(CFA, -8)
          CFI (cfiCond60) R14 Frame(CFA, -4)
          CFI (cfiCond60) CFA R13+56
          CFI Block cfiCond61 Using cfiCommon0
          CFI (cfiCond61) Function AppS2wCmd_WebServer
          CFI (cfiCond61) Conditional ??CrossCallReturnLabel_233
          CFI (cfiCond61) R4 Frame(CFA, -36)
          CFI (cfiCond61) R5 Frame(CFA, -32)
          CFI (cfiCond61) R6 Frame(CFA, -28)
          CFI (cfiCond61) R7 Frame(CFA, -24)
          CFI (cfiCond61) R8 Frame(CFA, -20)
          CFI (cfiCond61) R9 Frame(CFA, -16)
          CFI (cfiCond61) R10 Frame(CFA, -12)
          CFI (cfiCond61) R11 Frame(CFA, -8)
          CFI (cfiCond61) R14 Frame(CFA, -4)
          CFI (cfiCond61) CFA R13+56
          CFI Block cfiPicker62 Using cfiCommon1
          CFI (cfiPicker62) NoFunction
          CFI (cfiPicker62) Picker
        THUMB
?Subroutine20:
        LDR      R0,[R5, #+0]
        MOVS     R2,#+40
        MOVS     R1,#+0
        ADDS     R0,R4,R0
          CFI FunCall AppS2wCmd_WebServer memset
          CFI FunCall AppS2wCmd_WebServer memset
          CFI FunCall AppS2wCmd_WebServer memset
        B.W      memset
          CFI EndBlock cfiCond59
          CFI EndBlock cfiCond60
          CFI EndBlock cfiCond61
          CFI EndBlock cfiPicker62

        SECTION `.text`:CODE:NOROOT(1)
          CFI Block cfiCond63 Using cfiCommon0
          CFI Function AppS2wCmd_WebServer
          CFI Conditional ??CrossCallReturnLabel_79
          CFI R4 Frame(CFA, -36)
          CFI R5 Frame(CFA, -32)
          CFI R6 Frame(CFA, -28)
          CFI R7 Frame(CFA, -24)
          CFI R8 Frame(CFA, -20)
          CFI R9 Frame(CFA, -16)
          CFI R10 Frame(CFA, -12)
          CFI R11 Frame(CFA, -8)
          CFI R14 Frame(CFA, -4)
          CFI CFA R13+56
          CFI Block cfiCond64 Using cfiCommon0
          CFI (cfiCond64) Function AppS2wCmd_WebServer
          CFI (cfiCond64) Conditional ??CrossCallReturnLabel_78
          CFI (cfiCond64) R4 Frame(CFA, -36)
          CFI (cfiCond64) R5 Frame(CFA, -32)
          CFI (cfiCond64) R6 Frame(CFA, -28)
          CFI (cfiCond64) R7 Frame(CFA, -24)
          CFI (cfiCond64) R8 Frame(CFA, -20)
          CFI (cfiCond64) R9 Frame(CFA, -16)
          CFI (cfiCond64) R10 Frame(CFA, -12)
          CFI (cfiCond64) R11 Frame(CFA, -8)
          CFI (cfiCond64) R14 Frame(CFA, -4)
          CFI (cfiCond64) CFA R13+56
          CFI Block cfiPicker65 Using cfiCommon1
          CFI (cfiPicker65) NoFunction
          CFI (cfiPicker65) Picker
        THUMB
?Subroutine8:
        MOVS     R0,#+0
        STRB     R0,[R7, R6]
        MOV      R1,R9
          CFI Block cfiCond66 Using cfiCommon0
          CFI (cfiCond66) Function APPS2wCmd_WebProv
          CFI (cfiCond66) Conditional ??CrossCallReturnLabel_77
          CFI (cfiCond66) R4 Frame(CFA, -36)
          CFI (cfiCond66) R5 Frame(CFA, -32)
          CFI (cfiCond66) R6 Frame(CFA, -28)
          CFI (cfiCond66) R7 Frame(CFA, -24)
          CFI (cfiCond66) R8 Frame(CFA, -20)
          CFI (cfiCond66) R9 Frame(CFA, -16)
          CFI (cfiCond66) R10 Frame(CFA, -12)
          CFI (cfiCond66) R11 Frame(CFA, -8)
          CFI (cfiCond66) R14 Frame(CFA, -4)
          CFI (cfiCond66) CFA R13+56
          CFI Block cfiCond67 Using cfiCommon0
          CFI (cfiCond67) Function APPS2wCmd_WebProv
          CFI (cfiCond67) Conditional ??CrossCallReturnLabel_76
          CFI (cfiCond67) R4 Frame(CFA, -36)
          CFI (cfiCond67) R5 Frame(CFA, -32)
          CFI (cfiCond67) R6 Frame(CFA, -28)
          CFI (cfiCond67) R7 Frame(CFA, -24)
          CFI (cfiCond67) R8 Frame(CFA, -20)
          CFI (cfiCond67) R9 Frame(CFA, -16)
          CFI (cfiCond67) R10 Frame(CFA, -12)
          CFI (cfiCond67) R11 Frame(CFA, -8)
          CFI (cfiCond67) R14 Frame(CFA, -4)
          CFI (cfiCond67) CFA R13+56
??Subroutine8_0:
        ADD      R0,SP,#+8
          CFI FunCall AppS2wCmd_WebServer strcmp
          CFI FunCall AppS2wCmd_WebServer strcmp
          CFI FunCall APPS2wCmd_WebProv strcmp
          CFI FunCall APPS2wCmd_WebProv strcmp
        B.W      strcmp
          CFI EndBlock cfiCond63
          CFI EndBlock cfiCond64
          CFI EndBlock cfiPicker65
          CFI EndBlock cfiCond66
          CFI EndBlock cfiCond67
// 2420 

        SECTION `.text`:CODE:NOROOT(1)
          CFI Block cfiBlock68 Using cfiCommon0
          CFI Function AppS2w_WebServerStop
        THUMB
// 2421 VOID
// 2422 AppS2w_WebServerStop()
// 2423 {
AppS2w_WebServerStop:
        PUSH     {R7,LR}
          CFI R14 Frame(CFA, -4)
          CFI CFA R13+8
// 2424 #ifdef S2W_GSLINK
// 2425 	App_McuHttpApiDeInit();
          CFI FunCall App_McuHttpApiDeInit
        BL       App_McuHttpApiDeInit
// 2426 #endif
// 2427 	s2wappMainTaskCtxt->webServerStatus = IDLE;
        LDR.W    R1,??DataTable173_2
        LDR      R1,[R1, #+0]
        MOVW     R0,#+27588
        MOVS     R2,#+0
        STRB     R2,[R0, R1]
// 2428 
// 2429 }
        POP      {R0,PC}          ;; return
          CFI EndBlock cfiBlock68

        SECTION `.text`:CODE:NOROOT(2)
        SECTION_TYPE SHT_PROGBITS, 0
        DATA
??DataTable162:
        DC32     0x80000004

        SECTION `.text`:CODE:NOROOT(2)
        SECTION_TYPE SHT_PROGBITS, 0
        DATA
??DataTable162_1:
        DC32     httpConfInfo

        SECTION `.text`:CODE:NOROOT(2)
        SECTION_TYPE SHT_PROGBITS, 0
        DATA
??DataTable162_2:
        DC32     AppS2w_XmlRxBufferMgmtCb

        SECTION `.text`:CODE:NOROOT(2)
        SECTION_TYPE SHT_PROGBITS, 0
        DATA
??DataTable162_3:
        DC32     headerTypesModified

        SECTION `.text`:CODE:NOROOT(2)
        SECTION_TYPE SHT_PROGBITS, 0
        DATA
??DataTable162_4:
        DC32     headerTypes

        SECTION `.text`:CODE:NOROOT(2)
        SECTION_TYPE SHT_PROGBITS, 0
        DATA
??DataTable162_5:
        DC32     `?<Constant "%c%c%x%04d">`

        SECTION `.text`:CODE:NOROOT(2)
        SECTION_TYPE SHT_PROGBITS, 0
        DATA
??DataTable162_6:
        DC32     appCtx+0xEE0

        SECTION `.text`:CODE:NOROOT(2)
        SECTION_TYPE SHT_PROGBITS, 0
        DATA
??DataTable162_7:
        DC32     appCtx
// 2430 

        SECTION `.text`:CODE:NOROOT(1)
          CFI Block cfiBlock69 Using cfiCommon0
          CFI Function AppS2w_WebServerStart
        THUMB
// 2431 PUBLIC VOID
// 2432 AppS2w_WebServerStart()
// 2433 {
AppS2w_WebServerStart:
        PUSH     {R4-R11,LR}
          CFI R14 Frame(CFA, -4)
          CFI R11 Frame(CFA, -8)
          CFI R10 Frame(CFA, -12)
          CFI R9 Frame(CFA, -16)
          CFI R8 Frame(CFA, -20)
          CFI R7 Frame(CFA, -24)
          CFI R6 Frame(CFA, -28)
          CFI R5 Frame(CFA, -32)
          CFI R4 Frame(CFA, -36)
          CFI CFA R13+36
        SUB      SP,SP,#+476
          CFI CFA R13+512
// 2434 
// 2435 	INT8 httpdStatus;
// 2436 	//UINT8 status = S2W_FAILURE;
// 2437 	UINT32 index,certLength;
// 2438 
// 2439 	GSN_HTTPD_CONFIG_T config;
// 2440     GSN_NWIF_IP_CONFIG_T nwParams;
// 2441 	//char ipAddrStr[16];
// 2442 	SERVER_CERT_DETAIL_T certDetail, *pCertDtl = NULL;
        MOVS     R0,#+0
        STR      R0,[SP, #+128]
// 2443 	//UINT8 i;
// 2444     //GSN_STATUS ret;
// 2445 	if(TRUE == GsnHttpd_IsRunning() )
        MOVW     R4,#+27512
        LDR.W    R5,??DataTable173_2
          CFI FunCall GsnHttpd_IsRunning
        BL       GsnHttpd_IsRunning
        CMP      R0,#+1
        BEQ.W    ??AppS2w_WebServerStart_0
// 2446 	{
// 2447 		goto WebServer_RegURI;
// 2448 	}
// 2449     if(NULL != s2wHttpdPktPtr)
        LDR.W    R10,??DataTable175_2
        LDR      R0,[R10, #+4]
        CBZ.N    R0,??AppS2w_WebServerStart_1
// 2450     {
// 2451         gsn_free(s2wHttpdPktPtr);
          CFI FunCall GsnDynMemMgmt_Free
        BL       GsnDynMemMgmt_Free
// 2452         s2wHttpdPktPtr = NULL;
        MOVS     R0,#+0
        STR      R0,[R10, #+4]
// 2453     }
// 2454     (VOID)pCertDtl;
// 2455 	memset((INT8 *)&certDetail, 0, sizeof(certDetail));
??AppS2w_WebServerStart_1:
        MOVS     R2,#+52
        MOVS     R1,#+0
        ADD      R0,SP,#+132
          CFI FunCall memset
        BL       memset
// 2456     if(!s2wappMainTaskCtxt->fsInit)
        LDR      R0,[R5, #+0]
        MOVW     R7,#+33136
        LDRB     R0,[R7, R0]
        CBNZ.N   R0,??AppS2w_WebServerStart_2
// 2457     {
// 2458 		App_FsInit();
          CFI FunCall App_FsInit
        BL       App_FsInit
// 2459 		s2wappMainTaskCtxt->fsInit = TRUE;
        LDR      R0,[R5, #+0]
        MOVS     R1,#+1
        STRB     R1,[R7, R0]
// 2460         f_enterFS();
          CFI FunCall fsm_enterFS
        BL       fsm_enterFS
// 2461 	}
// 2462 #if 1
// 2463     if( s2wappMainTaskCtxt->WebServerCfg.sslEnabled )
??AppS2w_WebServerStart_2:
        MOVW     R8,#+27513
        LDR      R0,[R5, #+0]
        LDRB     R0,[R8, R0]
        CMP      R0,#+0
        BEQ.N    ??AppS2w_WebServerStart_3
// 2464     {
// 2465         pCertDtl = &certDetail;
        ADD      R0,SP,#+132
        STR      R0,[SP, #+128]
// 2466 
// 2467 #ifndef S2W_SSL_SERVER_TEST
// 2468         index = S2wCert_SearchRamTable(S2W_SSL_CERT_NAME_CA);
        ADR.W    R6,`?<Constant "SSL_CA">`
        MOV      R0,R6
          CFI FunCall S2wCert_SearchRamTable
        BL       S2wCert_SearchRamTable
// 2469         if(index == -1)
        CMN      R0,#+1
        ITT      EQ 
        MOVEQ    R0,R6
          CFI FunCall S2wCert_FlashFileLoad
        BLEQ     S2wCert_FlashFileLoad
// 2470         {
// 2471         	index = S2wCert_FlashFileLoad(S2W_SSL_CERT_NAME_CA);
// 2472         }
// 2473         if(index == -1)
        ADR.W    R7,`?<Constant "\\n\\rCertificate %s Not ...">`
        CMN      R0,#+1
        BNE.N    ??AppS2w_WebServerStart_4
// 2474         {
// 2475 			s2wappMainTaskCtxt->WebServerCfg.status = S2W_FAILURE;
        LDR      R0,[R5, #+0]
        MOVS     R1,#+1
        STRB     R1,[R4, R0]
// 2476             S2w_Printf("\n\rCertificate %s Not Found", S2W_SSL_CERT_NAME_CA);
        MOV      R1,R6
        B.N      ??AppS2w_WebServerStart_5
// 2477             goto webServerExit;
// 2478         }
// 2479         certDetail.CaCertName = (char const *)s2w_ssl_cert_table[index].name;
??AppS2w_WebServerStart_4:
        MOV      R9,#+12
        MUL      R0,R9,R0
        LDR.W    R6,??DataTable176
// 2480         certDetail.CaCertLocation = s2w_ssl_cert_table[index].certAddress + 2;
// 2481         certLength = *(s2w_ssl_cert_table[index].certAddress + 1);
// 2482         certLength <<= 8;
// 2483         certLength = certLength | (*(s2w_ssl_cert_table[index].certAddress));
// 2484         certDetail.CaCertLen = certLength;
// 2485         /* CA certificate is optional*/
// 2486         /*else return retVal; */
// 2487 
// 2488         index = S2wCert_SearchRamTable(S2W_SSL_CERT_NAME_SERVER);
        ADR.W    R11,`?<Constant "SSL_SERVER">`
        ADDS     R1,R0,R6
        LDR      R1,[R1, #+4]
        STR      R1,[SP, #+132]
        LDR      R0,[R0, R6]
        ADDS     R1,R0,#+2
        STR      R1,[SP, #+136]
        BL       ?Subroutine45
??CrossCallReturnLabel_313:
        STR      R0,[SP, #+140]
        MOV      R0,R11
          CFI FunCall S2wCert_SearchRamTable
        BL       S2wCert_SearchRamTable
// 2489         if(index == -1)
        CMN      R0,#+1
        ITT      EQ 
        MOVEQ    R0,R11
          CFI FunCall S2wCert_FlashFileLoad
        BLEQ     S2wCert_FlashFileLoad
// 2490         {
// 2491             index = S2wCert_FlashFileLoad(S2W_SSL_CERT_NAME_SERVER);
// 2492         }
// 2493         if(index == -1)
        CMN      R0,#+1
        BEQ.N    ??AppS2w_WebServerStart_6
// 2494         {
// 2495             s2wappMainTaskCtxt->WebServerCfg.status = S2W_FAILURE;
// 2496             S2w_Printf("\n\rCertificate %s Not Found", S2W_SSL_CERT_NAME_SERVER);
// 2497             goto webServerExit;
// 2498         }
// 2499         certDetail.ClientCertName = (const char *)s2w_ssl_cert_table[index].name;
        MUL      R0,R9,R0
        ADDS     R1,R0,R6
// 2500         certDetail.ClientCertLocation = s2w_ssl_cert_table[index].certAddress + 2;
// 2501         certLength = *(s2w_ssl_cert_table[index].certAddress + 1);
// 2502         certLength <<= 8;
// 2503         certLength = certLength | (*(s2w_ssl_cert_table[index].certAddress));
// 2504         certDetail.ClientCertLen = certLength;
// 2505 
// 2506 
// 2507         index = S2wCert_SearchRamTable(S2W_SSL_CERT_NAME_KEY);
        ADR.W    R11,`?<Constant "SSL_KEY">`
        LDR      R1,[R1, #+4]
        STR      R1,[SP, #+144]
        LDR      R0,[R0, R6]
        ADDS     R1,R0,#+2
        STR      R1,[SP, #+148]
        BL       ?Subroutine45
??CrossCallReturnLabel_314:
        STR      R0,[SP, #+152]
        MOV      R0,R11
          CFI FunCall S2wCert_SearchRamTable
        BL       S2wCert_SearchRamTable
// 2508         if(index == -1)
        CMN      R0,#+1
        ITT      EQ 
        MOVEQ    R0,R11
          CFI FunCall S2wCert_FlashFileLoad
        BLEQ     S2wCert_FlashFileLoad
// 2509         {
// 2510             index = S2wCert_FlashFileLoad(S2W_SSL_CERT_NAME_KEY);
// 2511         }
// 2512         if(index == -1)
        CMN      R0,#+1
        BNE.N    ??AppS2w_WebServerStart_7
// 2513         {
// 2514             s2wappMainTaskCtxt->WebServerCfg.status = S2W_FAILURE;
??AppS2w_WebServerStart_6:
        LDR      R0,[R5, #+0]
        MOVS     R1,#+1
        STRB     R1,[R4, R0]
// 2515             S2w_Printf("\n\rCertificate %s Not Found", S2W_SSL_CERT_NAME_KEY);
        MOV      R1,R11
??AppS2w_WebServerStart_5:
        MOV      R0,R7
          CFI FunCall S2w_Printf
        BL       S2w_Printf
// 2516             goto webServerExit;
        B.N      ??AppS2w_WebServerStart_8
// 2517         }
// 2518         certDetail.PrivateKeyName = (const char *)s2w_ssl_cert_table[index].name;
??AppS2w_WebServerStart_7:
        MUL      R0,R9,R0
        ADDS     R1,R0,R6
        LDR      R1,[R1, #+4]
        STR      R1,[SP, #+156]
// 2519         certDetail.PrivateKeyLocation = s2w_ssl_cert_table[index].certAddress + 2;
        LDR      R0,[R0, R6]
        ADDS     R1,R0,#+2
        STR      R1,[SP, #+160]
// 2520         certLength = *(s2w_ssl_cert_table[index].certAddress + 1);
// 2521         certLength <<= 8;
// 2522         certLength = certLength | (*(s2w_ssl_cert_table[index].certAddress));
// 2523         certDetail.PrivateKeyLen = certLength;
        BL       ?Subroutine45
// 2524 
// 2525 #else
// 2526         certDetail.CaCertName = "ca_cert.crt";
// 2527         certDetail.CaCertLocation = ca_cert;
// 2528         certDetail.CaCertLen = sizeof(ca_cert);
// 2529         certDetail.ClientCertName = "server_cert.crt";
// 2530         certDetail.ClientCertLocation = server_cert;
// 2531         certDetail.ClientCertLen = sizeof(server_cert);
// 2532         certDetail.PrivateKeyName = "server_key.key";
// 2533         certDetail.PrivateKeyLocation = server_key;
// 2534         certDetail.PrivateKeyLen = sizeof(server_key);
// 2535 #endif
// 2536     }
??CrossCallReturnLabel_315:
        STR      R0,[SP, #+164]
// 2537 #endif
// 2538 	//storeParams = serverData.storeParams;
// 2539 
// 2540     /* get the ip information by calling geps API */
// 2541 #if 1
// 2542         GsnNwIf_IpConfigGet(&s2wappMainTaskCtxt->if0.nwifCtx, &nwParams);
??AppS2w_WebServerStart_3:
        ADD      R1,SP,#+184
        LDR      R0,[R5, #+0]
        ADD      R0,R0,#+5120
        ADDS     R0,R0,#+80
          CFI FunCall GsnNwIf_IpConfigGet
        BL       GsnNwIf_IpConfigGet
// 2543     //inet_ntop(AF_INET, &nwParams.ipv4.ipAddr, ipAddrStr, sizeof(ipAddrStr));
// 2544 #else
// 2545     GsnNwIf_IpConfigGet(&s2wappMainTaskCtxt->nwIf, &nwParams);
// 2546     inet_ntop(AF_INET, &nwParams.ipAddr, ipAddrStr, sizeof(ipAddrStr));
// 2547 #endif
// 2548 #ifdef TRROM_FILE_SYS
// 2549     /* initialise the Rom File System that contains Welcome Page*/
// 2550     tfRomFsInit(tlRomFile, tlRomPageSize, tlRomPages, tlRomFiles);
// 2551 #endif
// 2552     /* Initialize web parameters */
// 2553     memset(&config, 0, sizeof(GSN_HTTPD_CONFIG_T));
        MOVS     R2,#+140
        MOVS     R1,#+0
        ADD      R0,SP,#+336
          CFI FunCall memset
        BL       memset
// 2554 
// 2555     /* store user mane and passwd*/
// 2556     strcpy(config.username, s2wappMainTaskCtxt->WebServerCfg.username);
        LDR      R9,[R5, #+0]
        ADD      R1,R9,#+27392
        ADDS     R1,R1,#+86
        ADD      R0,SP,#+376
          CFI FunCall strcpy
        BL       strcpy
// 2557     strcpy(config.password, s2wappMainTaskCtxt->WebServerCfg.passwd);
        ADD      R1,R9,#+27392
        ADDS     R1,R1,#+103
        ADD      R0,SP,#+408
          CFI FunCall strcpy
        BL       strcpy
// 2558     config.port = APP_HTTPD_PORT;
        ADD      R7,SP,#+356
        MOVS     R0,#+80
        STR      R0,[R7, #+4]
// 2559     config.maxConnPerIp = APP_HTTPD_MAX_PER_IP_CONN;
        MOVS     R0,#+16
        STRB     R0,[R7, #+9]
// 2560     config.maxConnTotal = S2W_DFLT_HTTP_SRVR_CLIENT_NO;//APP_HTTPD_MAX_TOTAL_CONN;
        MOVS     R0,#+8
        STRB     R0,[R7, #+8]
// 2561     config.blockingState = APP_HTTPD_BLOCKING_STATE;
        MOVS     R0,#+1
        STRB     R0,[R7, #+11]
// 2562     config.threadPriority = APP_HTTPD_THREAD_PRIORITY;
        MOVS     R0,#+16
        STRB     R0,[R7, #+12]
// 2563     config.idleTimeout = APP_HTTPD_IDLE_TIMEOUT;
        MOVS     R0,#+5
        STRB     R0,[R7, #+10]
        MOVW     R0,#+27516
        LDRH     R0,[R0, R9]
        CBZ.N    R0,??AppS2w_WebServerStart_9
// 2564 	if(0 != s2wappMainTaskCtxt->WebServerCfg.IdleTimeOut)
// 2565 	{
// 2566 		config.idleTimeout = s2wappMainTaskCtxt->WebServerCfg.IdleTimeOut;
        STRB     R0,[R7, #+10]
// 2567 	}
// 2568 
// 2569 #if 1
// 2570 #ifdef USE_V6
// 2571     //memcpy(config.ipAddr, (const INT8 *)nwParams.ipv6.linkLocalAddr, 16);
// 2572 	config.ip_flag = GSN_USE_IPV6;
// 2573         GsnNwIf_IpConfigGet(&s2wappMainTaskCtxt->if0.nwifCtx, &nwParams);
// 2574         memcpy(config.ipAddr6,nwParams.ipv6.globalAddr, 16);
// 2575 #else
// 2576     config.ip_flag = GSN_USE_IPV4;
??AppS2w_WebServerStart_9:
        MOVS     R0,#+2
        STRB     R0,[SP, #+336]
// 2577     config.ipAddr = nwParams.ipv4.ipAddr;
// 2578 #endif
// 2579 #endif
// 2580     config.rootCgiDir = NULL;
// 2581     config.rootDir = "/";
// 2582     config.defaultFileName = "index.html";
// 2583 	config.mallocTimeout = 2 *1000; /* 2 Sec. */
        ADD      R6,SP,#+456
        LDR      R0,[SP, #+196]
        STR      R0,[SP, #+356]
        MOVS     R0,#+0
        STR      R0,[R7, #+92]
        ADR.N    R0,??DataTable164_1  ;; "/"
        STR      R0,[R7, #+84]
        ADR.W    R0,`?<Constant "index.html">`
        STR      R0,[R7, #+88]
        MOV      R0,#+2000
        STR      R0,[R6, #+4]
// 2584 	config.sysQualTskID = APP_CFG_SQ_HTTPD_TASK_ID;
        MOVS     R0,#+7
        STR      R0,[R6, #+12]
// 2585 	config.sysQualTicks = APP_CFG_SQ_TICKS_FOR_HTTPD_TASK;
        MOVS     R0,#+120
        STR      R0,[R6, #+16]
// 2586 
// 2587     config.stack = S2wApp_WebserverStack_Get(s2wappMainTaskCtxt->WebServerCfg.sslEnabled);
        LDRB     R0,[R8, R9]
          CFI FunCall S2wApp_WebserverStack_Get
        BL       S2wApp_WebserverStack_Get
        STR      R0,[R7, #+96]
// 2588 	 pS2wHttpdTaskStack = config.stack;
        STR      R0,[R10, #+0]
// 2589 	 if(NULL == config.stack)
        LDR      R1,[R7, #+96]
        LDR      R0,[R5, #+0]
        CBNZ.N   R1,??AppS2w_WebServerStart_10
// 2590 	{
// 2591 		s2wappMainTaskCtxt->WebServerCfg.status = S2W_FAILURE;
        MOVS     R1,#+1
        B.N      ??AppS2w_WebServerStart_11
// 2592 		goto webServerExit;
// 2593 
// 2594 	}
// 2595     config.stackSize  = S2wApp_WebserverStackSize_Get(s2wappMainTaskCtxt->WebServerCfg.sslEnabled);
??AppS2w_WebServerStart_10:
        ADDS     R0,R4,R0
        LDRB     R0,[R0, #+1]
          CFI FunCall S2wApp_WebserverStackSize_Get
        BL       S2wApp_WebserverStackSize_Get
        STRH     R0,[SP, #+456]
// 2596     //config.pWdd = &s2wappMainTaskCtxt->wdd;
// 2597 #if 1
// 2598     //config.pool_hdl = &(s2wappMainTaskCtxt->nwCtx.trPktPoolHndl);
// 2599 #if 0
// 2600     /* Initialize web parameters */
// 2601     memset(&trPktPoolHndl, 0, sizeof(trPktPoolHndl));
// 2602     /* TODO: need to check proper place to free this buffer */
// 2603     s2wHttpdPktPtr = (void*)gsn_malloc(S2W_HTTPD_PKT_POOL);
// 2604     if(NULL == s2wHttpdPktPtr)
// 2605     {
// 2606 		s2wappMainTaskCtxt->WebServerCfg.status = S2W_FAILURE;
// 2607 		goto webServerExit;
// 2608     }
// 2609     /*Create a packet pool for tcp layer */
// 2610     ret = nx_packet_pool_create(&trPktPoolHndl, "", 1600,
// 2611              s2wHttpdPktPtr, S2W_HTTPD_PKT_POOL);
// 2612     if(ret)
// 2613     {
// 2614 		s2wappMainTaskCtxt->WebServerCfg.status = S2W_FAILURE;
// 2615 		goto webServerExit;
// 2616     }
// 2617 #else
// 2618     config.pool_hdl = GsnNw_PktPoolHndlGet(&s2wappMainTaskCtxt->nwCtx, GSN_NW_LBUF_PKT_POOL);
        MOVS     R1,#+1
        LDR      R0,[R5, #+0]
        ADD      R0,R0,#+2368
          CFI FunCall GsnNw_PktPoolHndlGet
        BL       GsnNw_PktPoolHndlGet
        STR      R0,[R6, #+8]
// 2619 #endif
// 2620 #endif
// 2621     /* Start httpd */
// 2622     httpdStatus = GsnHttpd_Start(config
// 2623 #if 1//def GSN_SSL_SERVER_SUPPORT
// 2624 	    ,pCertDtl
// 2625 #endif
// 2626 	    );
// 2627 
// 2628 	if(httpdStatus == GSN_HTTPD_FAILURE)
        ADD      R1,SP,#+336
        LDR      R0,[SP, #+128]
        STR      R0,[SP, #+124]
        SUB      SP,SP,#+16
          CFI CFA R13+528
        MOV      R0,SP
        MOVS     R2,#+140
          CFI FunCall __aeabi_memcpy4
        BL       __aeabi_memcpy4
        POP      {R0-R3}
          CFI CFA R13+512
          CFI FunCall GsnHttpd_Start
        BL       GsnHttpd_Start
        CMP      R0,#+1
        BNE.N    ??AppS2w_WebServerStart_0
// 2629 	{
// 2630 	    S2wApp_WebserverStack_Free(config.stack);
        LDR      R0,[R7, #+96]
          CFI FunCall S2wApp_WebserverStack_Free
        BL       S2wApp_WebserverStack_Free
// 2631 		pS2wHttpdTaskStack = NULL;
        MOVS     R0,#+0
        STR      R0,[R10, #+0]
// 2632 		s2wappMainTaskCtxt->WebServerCfg.status = S2W_FAILURE;
        MOVS     R1,#+1
        B.N      ??AppS2w_WebServerStart_12
// 2633 		goto webServerExit;
// 2634 	}
// 2635 WebServer_RegURI:
// 2636 #ifdef S2W_GSLINK
// 2637     App_McuHttpApiInit();
??AppS2w_WebServerStart_0:
          CFI FunCall App_McuHttpApiInit
        BL       App_McuHttpApiInit
// 2638 #endif
// 2639  #ifdef S2W_WEB_SERVER
// 2640 	s2wappMainTaskCtxt->webServerStatus = RUNNING;
        LDR      R1,[R5, #+0]
        MOVW     R0,#+27588
        MOVS     R2,#+2
        STRB     R2,[R0, R1]
// 2641 #endif
// 2642 	s2wappMainTaskCtxt->WebServerCfg.status = S2W_SUCCESS;
        MOVS     R1,#+0
??AppS2w_WebServerStart_12:
        LDR      R0,[R5, #+0]
??AppS2w_WebServerStart_11:
        STRB     R1,[R4, R0]
// 2643 webServerExit:
// 2644 	GsnOsal_SemRelease(&s2wappMainTaskCtxt->webServerSync);
??AppS2w_WebServerStart_8:
        LDR      R0,[R5, #+0]
        ADD      R0,R0,#+27520
          CFI FunCall GsnOsal_SemRelease
        BL       GsnOsal_SemRelease
// 2645 }
        ADD      SP,SP,#+476
          CFI CFA R13+36
        POP      {R4-R11,PC}      ;; return
          CFI EndBlock cfiBlock69

        SECTION `.text`:CODE:NOROOT(2)
        SECTION_TYPE SHT_PROGBITS, 0
        DATA
`?<Constant "SSL_CA">`:
        DC8 "SSL_CA"
        DC8 0

        SECTION `.text`:CODE:NOROOT(2)
        SECTION_TYPE SHT_PROGBITS, 0
        DATA
`?<Constant "\\n\\rCertificate %s Not ...">`:
        DC8 "\012\015Certificate %s Not Found"
        DC8 0

        SECTION `.text`:CODE:NOROOT(2)
        SECTION_TYPE SHT_PROGBITS, 0
        DATA
`?<Constant "SSL_SERVER">`:
        DC8 "SSL_SERVER"
        DC8 0

        SECTION `.text`:CODE:NOROOT(2)
        SECTION_TYPE SHT_PROGBITS, 0
        DATA
`?<Constant "SSL_KEY">`:
        DC8 "SSL_KEY"

        SECTION `.text`:CODE:NOROOT(2)
        SECTION_TYPE SHT_PROGBITS, 0
        DATA
`?<Constant "index.html">`:
        DC8 "index.html"
        DC8 0

        SECTION `.text`:CODE:NOROOT(1)
          CFI Block cfiCond70 Using cfiCommon0
          CFI Function AppS2w_WebServerStart
          CFI NoCalls
          CFI Conditional ??CrossCallReturnLabel_313
          CFI R4 Frame(CFA, -36)
          CFI R5 Frame(CFA, -32)
          CFI R6 Frame(CFA, -28)
          CFI R7 Frame(CFA, -24)
          CFI R8 Frame(CFA, -20)
          CFI R9 Frame(CFA, -16)
          CFI R10 Frame(CFA, -12)
          CFI R11 Frame(CFA, -8)
          CFI R14 Frame(CFA, -4)
          CFI CFA R13+512
          CFI Block cfiCond71 Using cfiCommon0
          CFI (cfiCond71) Function AppS2w_WebServerStart
          CFI (cfiCond71) NoCalls AppS2w_WebServerStart
          CFI (cfiCond71) Conditional ??CrossCallReturnLabel_314
          CFI (cfiCond71) R4 Frame(CFA, -36)
          CFI (cfiCond71) R5 Frame(CFA, -32)
          CFI (cfiCond71) R6 Frame(CFA, -28)
          CFI (cfiCond71) R7 Frame(CFA, -24)
          CFI (cfiCond71) R8 Frame(CFA, -20)
          CFI (cfiCond71) R9 Frame(CFA, -16)
          CFI (cfiCond71) R10 Frame(CFA, -12)
          CFI (cfiCond71) R11 Frame(CFA, -8)
          CFI (cfiCond71) R14 Frame(CFA, -4)
          CFI (cfiCond71) CFA R13+512
          CFI Block cfiCond72 Using cfiCommon0
          CFI (cfiCond72) Function AppS2w_WebServerStart
          CFI (cfiCond72) NoCalls AppS2w_WebServerStart
          CFI (cfiCond72) Conditional ??CrossCallReturnLabel_315
          CFI (cfiCond72) R4 Frame(CFA, -36)
          CFI (cfiCond72) R5 Frame(CFA, -32)
          CFI (cfiCond72) R6 Frame(CFA, -28)
          CFI (cfiCond72) R7 Frame(CFA, -24)
          CFI (cfiCond72) R8 Frame(CFA, -20)
          CFI (cfiCond72) R9 Frame(CFA, -16)
          CFI (cfiCond72) R10 Frame(CFA, -12)
          CFI (cfiCond72) R11 Frame(CFA, -8)
          CFI (cfiCond72) R14 Frame(CFA, -4)
          CFI (cfiCond72) CFA R13+512
          CFI Block cfiPicker73 Using cfiCommon1
          CFI (cfiPicker73) NoFunction
          CFI (cfiPicker73) NoCalls AppS2w_WebServerStart
          CFI (cfiPicker73) Picker
        THUMB
?Subroutine45:
        LDRB     R1,[R0, #+1]
        LDRB     R0,[R0, #+0]
        ORR      R0,R0,R1, LSL #+8
        BX       LR
          CFI EndBlock cfiCond70
          CFI EndBlock cfiCond71
          CFI EndBlock cfiCond72
          CFI EndBlock cfiPicker73
// 2646 

        SECTION `.text`:CODE:NOROOT(1)
          CFI Block cfiBlock74 Using cfiCommon0
          CFI Function AppS2wCmd_CfgUri
        THUMB
// 2647 PUBLIC UINT8
// 2648 AppS2wCmd_CfgUri(UINT8 *ptr)
// 2649 {
AppS2wCmd_CfgUri:
        PUSH     {R0,R4-R6,LR}
          CFI R14 Frame(CFA, -4)
          CFI R6 Frame(CFA, -8)
          CFI R5 Frame(CFA, -12)
          CFI R4 Frame(CFA, -16)
          CFI CFA R13+20
        SUB      SP,SP,#+12
          CFI CFA R13+32
// 2650 	UINT8 *p,*ctype;
// 2651     GSN_HTTPD_STATUS_T status=GSN_HTTPD_FAILURE;
// 2652 	UINT32 contentType;
// 2653 #ifdef S2W_HTTP_CUSTOM_SUPPORT
// 2654     UINT8 *cgi,*reqLine, *hdr;
// 2655     UINT32  sendCgi = 0;
// 2656     UINT32 sendReq = 0;
// 2657     UINT32 httpHddrBmap = 0;
// 2658 #endif
// 2659 	if(!GsnHttpd_IsRunning())
          CFI FunCall GsnHttpd_IsRunning
        BL       GsnHttpd_IsRunning
        CMP      R0,#+0
        BEQ.N    ??AppS2wCmd_CfgUri_0
// 2660 		return S2W_FAILURE;
// 2661 	p = AppS2wParse_NextParamGet(&ptr);
        BL       ?Subroutine14
??CrossCallReturnLabel_153:
        MOVS     R4,R0
// 2662 	if (!p)
        BEQ.N    ??AppS2wCmd_CfgUri_1
// 2663 	{
// 2664 	   return S2W_EINVAL;
// 2665 	}
// 2666 	ctype = AppS2wParse_NextParamGet(&ptr);
        BL       ?Subroutine14
// 2667 	if (ctype != NULL)
??CrossCallReturnLabel_152:
        CBZ.N    R0,??AppS2wCmd_CfgUri_2
// 2668 	{
// 2669 		AppS2wParse_Int(ctype, &contentType);
        BL       ?Subroutine19
// 2670 		if(contentType > GSN_HTTPD_CONTENT_TYPES_MAX)
??CrossCallReturnLabel_231:
        LDR      R0,[SP, #+4]
        CMP      R0,#+6
        BCC.N    ??AppS2wCmd_CfgUri_3
        B.N      ??AppS2wCmd_CfgUri_1
// 2671 			return S2W_EINVAL;
// 2672 	}
// 2673 	else
// 2674 		contentType = GSN_HTTPD_CONTENT_APP_XML;
??AppS2wCmd_CfgUri_2:
        STR      R0,[SP, #+4]
// 2675 	if(strlen((const char *)p) > GSN_HTTPD_MAX_URI_LENGTH)
??AppS2wCmd_CfgUri_3:
        BL       ?Subroutine1
??CrossCallReturnLabel_4:
        CMP      R0,#+65
        BCC.N    ??AppS2wCmd_CfgUri_4
// 2676 		return S2W_EINVAL;
??AppS2wCmd_CfgUri_1:
        MOVS     R0,#+2
        B.N      ??AppS2wCmd_CfgUri_5
// 2677 #ifdef  S2W_GSLINK
// 2678 	if(GSN_HTTPD_MAX_URI_LENGTH == strlen((const char *)p))
??AppS2wCmd_CfgUri_4:
        BL       ?Subroutine1
??CrossCallReturnLabel_3:
        CMP      R0,#+64
        ITT      EQ 
        MOVEQ    R0,#+0
        STRBEQ   R0,[R4, #+63]
// 2679 	{
// 2680 		p[GSN_HTTPD_MAX_URI_LENGTH - 1] = '\0';
// 2681 	}
// 2682 	status = GsnHttpd_UriHandlerConfig((char *)s2wappMainTaskCtxt->currenturi,
// 2683 			   0, NULL,NULL, 0);
// 2684 	if(status != GSN_HTTPD_SUCCESS)
        MOVS     R0,#+0
        LDR.W    R6,??DataTable173_2
        STR      R0,[SP, #+0]
        MOV      R2,R0
        MOV      R1,R0
        LDR      R0,[R6, #+0]
        MOVW     R5,#+27412
        MOVS     R3,#+0
        ADDS     R0,R5,R0
          CFI FunCall GsnHttpd_UriHandlerConfig
        BL       GsnHttpd_UriHandlerConfig
        CBNZ.N   R0,??AppS2wCmd_CfgUri_0
// 2685 		return S2W_FAILURE;
// 2686 	memset(s2wappMainTaskCtxt->currenturi,0,GSN_HTTPD_MAX_URI_LENGTH);
        LDR      R0,[R6, #+0]
        BL       ?Subroutine42
// 2687 	memcpy(s2wappMainTaskCtxt->currenturi,p,strlen((const char*)p));
??CrossCallReturnLabel_300:
        BL       ?Subroutine1
??CrossCallReturnLabel_2:
        BL       ?Subroutine47
// 2688 	status  = GsnHttpd_UriHandlerConfig((char *)s2wappMainTaskCtxt->currenturi,
// 2689 			   GSN_HTTPD_URI_METHOD_GET_POST, APP_MCU_PROFILE_DESC,
// 2690 			   McuHttpCb, (UINT8)contentType);
// 2691 #endif
// 2692 	if(status != GSN_HTTPD_SUCCESS)
??CrossCallReturnLabel_319:
        LDR      R0,[SP, #+4]
        LDR.W    R3,??DataTable178
        ADR.W    R2,`?<Constant "Generic MCU Profile">`
        UXTB     R0,R0
        STR      R0,[SP, #+0]
        MOVS     R1,#+3
        LDR      R0,[R6, #+0]
        ADDS     R0,R5,R0
          CFI FunCall GsnHttpd_UriHandlerConfig
        BL       GsnHttpd_UriHandlerConfig
        CBZ.N    R0,??AppS2wCmd_CfgUri_5
// 2693 		return S2W_FAILURE;
??AppS2wCmd_CfgUri_0:
        MOVS     R0,#+1
// 2694 	
// 2695 #ifdef S2W_HTTP_CUSTOM_SUPPORT
// 2696     cgi = AppS2wParse_NextParamGet(&ptr);
// 2697     if (!cgi)
// 2698     {
// 2699        return S2W_EINVAL;
// 2700     }
// 2701     AppS2wParse_Int(cgi, &sendCgi);
// 2702     if(1 == sendCgi)
// 2703     {
// 2704         s2wappMainTaskCtxt->WebServerCfg.sendCgi = 1;
// 2705     }
// 2706     else
// 2707     {
// 2708         s2wappMainTaskCtxt->WebServerCfg.sendCgi = 0;
// 2709     }
// 2710 /* need to check about this global variable, not sure where to declare this*/
// 2711     reqLine = AppS2wParse_NextParamGet(&ptr);
// 2712     if (!reqLine)
// 2713     {
// 2714        return S2W_EINVAL;
// 2715     }
// 2716     AppS2wParse_Int(reqLine, &sendReq);
// 2717     if(1 == sendReq)
// 2718     {
// 2719         s2wappMainTaskCtxt->WebServerCfg.sendReq = 1;
// 2720     }
// 2721     else
// 2722     {
// 2723         s2wappMainTaskCtxt->WebServerCfg.sendReq = 0;
// 2724     }
// 2725     hdr = AppS2wParse_NextParamGet(&ptr);
// 2726     if (!hdr)
// 2727     {
// 2728        return S2W_EINVAL;
// 2729     }
// 2730     AppS2wParse_HexString(hdr, &httpHddrBmap, HTTP_HDR_BITMAP_STR_SIZE);
// 2731     if(0 != httpHddrBmap)
// 2732     {
// 2733         s2wappMainTaskCtxt->WebServerCfg.httpdHdrBmap = httpHddrBmap;
// 2734     }
// 2735     else
// 2736     {
// 2737         s2wappMainTaskCtxt->WebServerCfg.httpdHdrBmap = 0;
// 2738     }
// 2739 #endif
// 2740     return S2W_SUCCESS;
??AppS2wCmd_CfgUri_5:
        ADD      SP,SP,#+16
          CFI CFA R13+16
        POP      {R4-R6,PC}       ;; return
          CFI EndBlock cfiBlock74
// 2741 }

        SECTION `.text`:CODE:NOROOT(2)
        SECTION_TYPE SHT_PROGBITS, 0
        DATA
??DataTable164:
        DC32     appCtx

        SECTION `.text`:CODE:NOROOT(2)
        SECTION_TYPE SHT_PROGBITS, 0
        DATA
??DataTable164_1:
        DC8      "/",0x0,0x0

        SECTION `.text`:CODE:NOROOT(2)
        SECTION_TYPE SHT_PROGBITS, 0
        DATA
`?<Constant "Generic MCU Profile">`:
        DC8 "Generic MCU Profile"
// 2742 #endif
// 2743 #if S2W_WEB_PROV
// 2744 
// 2745 /**
// 2746  ******************************************************************
// 2747  * @ingroup S2w-Application
// 2748  * @brief Process the AT+WEBPROV command
// 2749  *      This function vaidate the input parameters and start the
// 2750  *      Web server.
// 2751  * @param ptr Pointer to the user input string.
// 2752  * @retval S2W_SUCCESS - operation successful.
// 2753  * @retval S2W_EINVAL  - operation failure-invalid command.
// 2754  * @retval S2W_FAILURE - operation failure
// 2755  ******************************************************************/

        SECTION `.text`:CODE:NOROOT(1)
          CFI Block cfiBlock75 Using cfiCommon0
          CFI Function APPS2wCmd_WebProv
        THUMB
// 2756 UINT8
// 2757 APPS2wCmd_WebProv(UINT8 *ptr)
// 2758 {
APPS2wCmd_WebProv:
        PUSH     {R0,R4-R11,LR}
          CFI R14 Frame(CFA, -4)
          CFI R11 Frame(CFA, -8)
          CFI R10 Frame(CFA, -12)
          CFI R9 Frame(CFA, -16)
          CFI R8 Frame(CFA, -20)
          CFI R7 Frame(CFA, -24)
          CFI R6 Frame(CFA, -28)
          CFI R5 Frame(CFA, -32)
          CFI R4 Frame(CFA, -36)
          CFI CFA R13+40
        SUB      SP,SP,#+16
          CFI CFA R13+56
// 2759 #ifdef S2W_IP2WIFI_SUPPORT
// 2760     S2W_NETCONF_T NetworkParams;
// 2761 #endif
// 2762 	UINT32 message,val = 0;
        MOVS     R0,#+0
        STR      R0,[SP, #+0]
// 2763     UINT8 status;
// 2764     UINT8 *p;
// 2765 	UINT8 dfltUnamePwd[8];
// 2766 	UINT8 i ;
// 2767 	if(s2wappMainTaskCtxt->webProvStatus == RUNNING)
        MOVW     R9,#+27692
        LDR.W    R4,??DataTable173_2
        LDR      R0,[R4, #+0]
        LDRB     R1,[R9, R0]
        CMP      R1,#+2
        BEQ.W    ??APPS2wCmd_WebProv_0
// 2768 	{
// 2769 		return S2W_FAILURE;
// 2770 	}
// 2771 
// 2772 	memset(&s2wappMainTaskCtxt->WebServerCfg,0,sizeof(S2W_WBSERVER_CONFIG_T));
        MOVW     R11,#+27478
        MOVS     R2,#+40
        MOVS     R1,#+0
        ADD      R0,R11,R0
          CFI FunCall memset
        BL       memset
// 2773     /* get user name and password*/
// 2774     p = AppS2wParse_NextParamGet(&ptr);
        BL       ??Subroutine9_0
??CrossCallReturnLabel_91:
        MOVS     R10,R0
// 2775     if (!p || (strlen((const char *)p) > S2W_HTTPD_MAX_USERNAME_LEN))
        BEQ.N    ??APPS2wCmd_WebProv_1
          CFI FunCall strlen
        BL       strlen
        CMP      R0,#+17
        BCS.N    ??APPS2wCmd_WebProv_1
// 2776     {
// 2777         return S2W_EINVAL;
// 2778     }
// 2779     strcpy(s2wappMainTaskCtxt->WebServerCfg.username,(const INT8 *) p);
        LDR      R0,[R4, #+0]
        BL       ?Subroutine44
// 2780 	if(7 == strlen((INT8 *)p))
??CrossCallReturnLabel_312:
        LDR.W    R7,??DataTable178_2
        ADR.W    R8,`?<Constant "DEFAULT">`
        ADD      R5,SP,#+8
        MOV      R0,R10
          CFI FunCall strlen
        BL       strlen
        CMP      R0,#+7
        BNE.N    ??CrossCallReturnLabel_310
// 2781 	{
// 2782 
// 2783 		for(i = 0; i< 7; i++)
        MOVS     R6,#+0
// 2784 		{
// 2785 			dfltUnamePwd[i] = toupper(p[i]);
??APPS2wCmd_WebProv_2:
        LDRB     R0,[R6, R10]
          CFI FunCall toupper
        BL       toupper
        STRB     R0,[R6, R5]
// 2786 		}
        ADDS     R6,R6,#+1
        CMP      R6,#+7
        BLT.N    ??APPS2wCmd_WebProv_2
// 2787 		dfltUnamePwd[i] = 0;
        MOVS     R0,#+0
        STRB     R0,[R6, R5]
// 2788 		if(0 == strcmp((const char *)dfltUnamePwd, "DEFAULT"))
        MOV      R1,R8
        BL       ??Subroutine8_0
??CrossCallReturnLabel_77:
        CBNZ.N   R0,??CrossCallReturnLabel_310
// 2789 		{
// 2790 			strcpy(s2wappMainTaskCtxt->WebServerCfg.username, (const char *)s2wCurrent.httpSrvrConf.username);
        LDR      R0,[R4, #+0]
        ADD      R1,R7,#+744
        BL       ??Subroutine44_0
// 2791 		}
// 2792 	}
// 2793     p = AppS2wParse_NextParamGet(&ptr);
??CrossCallReturnLabel_310:
        BL       ??Subroutine9_0
??CrossCallReturnLabel_90:
        MOVS     R10,R0
// 2794     if (!p || (strlen((const char *)p) > S2W_HTTPD_MAX_PASSWORD_LEN))
        BEQ.N    ??APPS2wCmd_WebProv_1
          CFI FunCall strlen
        BL       strlen
        CMP      R0,#+17
        BCC.N    ??APPS2wCmd_WebProv_3
// 2795     {
// 2796         return S2W_EINVAL;
??APPS2wCmd_WebProv_1:
        MOVS     R0,#+2
        B.N      ??APPS2wCmd_WebProv_4
// 2797     }
// 2798     strcpy(s2wappMainTaskCtxt->WebServerCfg.passwd, (const INT8 *)p);
??APPS2wCmd_WebProv_3:
        LDR      R0,[R4, #+0]
        MOVW     R11,#+27495
        BL       ?Subroutine44
// 2799 	if(7 == strlen((INT8 *)p))
??CrossCallReturnLabel_311:
        MOV      R0,R10
          CFI FunCall strlen
        BL       strlen
        CMP      R0,#+7
        BNE.N    ??CrossCallReturnLabel_309
// 2800 	{
// 2801 		for(i = 0; i< 7; i++)
        MOVS     R6,#+0
// 2802 		{
// 2803 			dfltUnamePwd[i] = toupper(p[i]);
??APPS2wCmd_WebProv_5:
        LDRB     R0,[R6, R10]
          CFI FunCall toupper
        BL       toupper
        STRB     R0,[R6, R5]
// 2804 		}
        ADDS     R6,R6,#+1
        CMP      R6,#+7
        BLT.N    ??APPS2wCmd_WebProv_5
// 2805 		dfltUnamePwd[i] = 0;
        MOVS     R0,#+0
        STRB     R0,[R6, R5]
// 2806 		if(0 == strcmp((const char *)dfltUnamePwd, "DEFAULT"))
        MOV      R1,R8
        BL       ??Subroutine8_0
??CrossCallReturnLabel_76:
        CBNZ.N   R0,??CrossCallReturnLabel_309
// 2807 		{
// 2808 			strcpy(s2wappMainTaskCtxt->WebServerCfg.passwd, (const char *)s2wCurrent.httpSrvrConf.password);
        LDR      R0,[R4, #+0]
        ADD      R1,R7,#+776
        BL       ??Subroutine44_0
// 2809 		}
// 2810 	}
// 2811     /* Assume SSL is not used */
// 2812     s2wappMainTaskCtxt->WebServerCfg.sslEnabled = S2W_DFLT_HTTP_SRVR_SSL_ENABLE;
??CrossCallReturnLabel_309:
        LDR      R0,[R4, #+0]
        MOVW     R7,#+27513
        BL       ?Subroutine9
// 2813 #ifndef S2W_IP2WIFI_SUPPORT
// 2814     /* see if more parameters are present */
// 2815     p = AppS2wParse_NextParamGet(&ptr);
??CrossCallReturnLabel_99:
        MOVS     R5,R0
// 2816     if (p && (0 != strlen((const char *)p)))
        BEQ.N    ??APPS2wCmd_WebProv_6
          CFI FunCall strlen
        BL       strlen
        CBZ.N    R0,??APPS2wCmd_WebProv_6
// 2817     {
// 2818         status = AppS2wParse_Boolean(p, &s2wappMainTaskCtxt->WebServerCfg.sslEnabled);
        LDR      R0,[R4, #+0]
        ADDS     R1,R7,R0
        MOV      R0,R5
          CFI FunCall AppS2wParse_Boolean
        BL       AppS2wParse_Boolean
// 2819         if (status != S2W_SUCCESS)
        CMP      R0,#+0
        BNE.N    ??APPS2wCmd_WebProv_4
// 2820         {
// 2821             return status;
// 2822         }
// 2823     }    
// 2824     
// 2825 #else /* This block is for IP2wifi*/
// 2826     /* here onwards its setting up L3 connection*/
// 2827     memcpy(&NetworkParams, &s2wCurrent.netConf, sizeof(NetworkParams));
// 2828 
// 2829     /* get IP */
// 2830     p = AppS2wParse_NextParamGet(&ptr);
// 2831 
// 2832     status = AppS2wParse_Ip(p, (UINT8 *)NetworkParams.ipAddr);
// 2833     if (status != S2W_SUCCESS)
// 2834     {
// 2835         return status;
// 2836     }
// 2837 
// 2838     /* get subnet mask and gateway */
// 2839     p = AppS2wParse_NextParamGet(&ptr);
// 2840     status = AppS2wParse_Ip(p, (UINT8 *)NetworkParams.netMask);
// 2841     if (status != S2W_SUCCESS)
// 2842     {
// 2843         return status;
// 2844     }
// 2845 
// 2846     p = AppS2wParse_NextParamGet(&ptr);
// 2847     status = AppS2wParse_Ip(p, (UINT8 *)NetworkParams.gateway);
// 2848     if (status != S2W_SUCCESS)
// 2849     {
// 2850         return status;
// 2851     }
// 2852     p = AppS2wParse_NextParamGet(&ptr);
// 2853     status = AppS2wParse_Boolean(p, &s2wappMainTaskCtxt->WebServerCfg.sslEnabled);
// 2854     if (status != S2W_SUCCESS)
// 2855     {
// 2856         return status;
// 2857     }
// 2858     /* see if more parameters are present */
// 2859     p = AppS2wParse_NextParamGet(&ptr);
// 2860     if (p)
// 2861     {
// 2862         return S2W_EINVAL;
// 2863     }
// 2864 
// 2865     NetworkParams.dhcp = 0;
// 2866     /* call hal ip config function to configure the static IP
// 2867      */
// 2868     status = AppS2wHal_NetworkConfig(&NetworkParams);
// 2869     if (status != S2W_SUCCESS)
// 2870     {
// 2871         return status;
// 2872     }
// 2873 
// 2874     /* update the active profile paramater
// 2875      */
// 2876     memcpy(&s2wCurrent.netConf, &NetworkParams, sizeof(s2wCurrent.netConf));
// 2877 #endif
// 2878 
// 2879 	s2wappMainTaskCtxt->WebServerCfg.storeParams = 0;
??APPS2wCmd_WebProv_6:
        LDR      R0,[R4, #+0]
        MOVW     R7,#+27514
        BL       ?Subroutine9
// 2880 	p = AppS2wParse_NextParamGet(&ptr);
??CrossCallReturnLabel_98:
        MOVS     R5,R0
// 2881 	if (p && 0 != strlen((INT8*)p))
        BEQ.N    ??APPS2wCmd_WebProv_7
          CFI FunCall strlen
        BL       strlen
        CBZ.N    R0,??APPS2wCmd_WebProv_7
// 2882 	{
// 2883 		UINT32 val = 0;
        MOVS     R0,#+0
        STR      R0,[SP, #+4]
// 2884 		status = AppS2wParse_Int(p, &val);
        ADD      R1,SP,#+4
        MOV      R0,R5
          CFI FunCall AppS2wParse_Int
        BL       AppS2wParse_Int
// 2885 		if (status != S2W_SUCCESS)
        CMP      R0,#+0
        BNE.N    ??APPS2wCmd_WebProv_4
// 2886 	    {
// 2887 	        return status;
// 2888 	    }
// 2889 		s2wappMainTaskCtxt->WebServerCfg.storeParams = val;
        LDR      R0,[R4, #+0]
        LDR      R1,[SP, #+4]
        STRB     R1,[R7, R0]
// 2890 	}
// 2891 	s2wappMainTaskCtxt->WebServerCfg.IdleTimeOut = S2W_DFLT_HTTP_SRVR_IDLE_TIMEOUT;
??APPS2wCmd_WebProv_7:
        MOVW     R5,#+27516
        LDR      R0,[R4, #+0]
        MOVS     R1,#+120
        STRH     R1,[R5, R0]
// 2892 	p = AppS2wParse_NextParamGet(&ptr);
        BL       ??Subroutine9_0
??CrossCallReturnLabel_89:
        MOVS     R6,R0
// 2893 	if (p && 0 != strlen((INT8*)p))
        BEQ.N    ??APPS2wCmd_WebProv_8
          CFI FunCall strlen
        BL       strlen
        CBZ.N    R0,??APPS2wCmd_WebProv_8
// 2894 	{
// 2895 		status = AppS2wParse_Int(p, &val);
        BL       ?Subroutine18
// 2896 		if (status != S2W_SUCCESS)
??CrossCallReturnLabel_220:
        CMP      R0,#+0
        BNE.N    ??APPS2wCmd_WebProv_4
// 2897 	    {
// 2898 	        return status;
// 2899 	    }
// 2900 		s2wappMainTaskCtxt->WebServerCfg.IdleTimeOut = val;
        LDR      R0,[R4, #+0]
        LDR      R1,[SP, #+0]
        STRH     R1,[R5, R0]
// 2901 		
// 2902 	}
// 2903 #ifdef  S2W_NCM_SUPPORT_ENABLE	
// 2904 	s2wappMainTaskCtxt->ncmAutoConEn = 0;
??APPS2wCmd_WebProv_8:
        MOV      R5,#+29952
        LDR      R0,[R4, #+0]
        MOVS     R1,#+0
        STR      R1,[R5, R0]
// 2905 #endif
// 2906 	p = AppS2wParse_NextParamGet(&ptr);
        BL       ??Subroutine9_0
??CrossCallReturnLabel_88:
        MOVS     R6,R0
// 2907 	if (p && 0 != strlen((INT8*)p))
        BEQ.N    ??APPS2wCmd_WebProv_9
          CFI FunCall strlen
        BL       strlen
        CBZ.N    R0,??APPS2wCmd_WebProv_9
// 2908 	{
// 2909 		val=0;
        MOVS     R0,#+0
        STR      R0,[SP, #+0]
// 2910 		status = AppS2wParse_Int(p, &val);
        BL       ?Subroutine18
// 2911 		if (status != S2W_SUCCESS)
??CrossCallReturnLabel_219:
        CMP      R0,#+0
        BNE.N    ??APPS2wCmd_WebProv_4
// 2912 	    {
// 2913 	        return status;
// 2914 	    }
// 2915 		if(( s2wappMainTaskCtxt->WebServerCfg.storeParams  == S2W_WEB_PARAMS_SND_TO_HOST)	&& val == 1 )		
        LDR      R0,[R4, #+0]
        LDRB     R1,[R7, R0]
        CMP      R1,#+0
        ITT      EQ 
        LDREQ    R1,[SP, #+0]
        CMPEQ    R1,#+1
        BNE.N    ??APPS2wCmd_WebProv_10
// 2916 		{
// 2917 			 return S2W_FAILURE;			 
??APPS2wCmd_WebProv_0:
        MOVS     R0,#+1
        B.N      ??APPS2wCmd_WebProv_4
// 2918 		}
// 2919 #ifdef  S2W_NCM_SUPPORT_ENABLE
// 2920 		else
// 2921 		{
// 2922 			s2wappMainTaskCtxt->ncmAutoConEn = val;
??APPS2wCmd_WebProv_10:
        LDR      R1,[SP, #+0]
        STR      R1,[R5, R0]
// 2923 		}
// 2924 #endif
// 2925 		
// 2926 	}
// 2927 	s2wappMainTaskCtxt->formatVersion = 0;
??APPS2wCmd_WebProv_9:
        MOVW     R7,#+27576
        LDR      R0,[R4, #+0]
        MOVS     R1,#+0
        STR      R1,[R7, R0]
// 2928 	p = AppS2wParse_NextParamGet(&ptr);
        BL       ??Subroutine9_0
??CrossCallReturnLabel_87:
        MOVS     R5,R0
// 2929 	if (p && 0 != strlen((INT8*)p))
        BEQ.N    ??APPS2wCmd_WebProv_11
          CFI FunCall strlen
        BL       strlen
        CBZ.N    R0,??APPS2wCmd_WebProv_11
// 2930 	{
// 2931 		val=0;
        MOVS     R0,#+0
        STR      R0,[SP, #+0]
// 2932 		status = AppS2wParse_Int(p, &val);
        ADD      R1,SP,#+0
        MOV      R0,R5
          CFI FunCall AppS2wParse_Int
        BL       AppS2wParse_Int
// 2933 		if (status != S2W_SUCCESS)
        CBNZ.N   R0,??APPS2wCmd_WebProv_4
// 2934 	    {
// 2935 	        return status;
// 2936 	    }
// 2937 		s2wappMainTaskCtxt->formatVersion = val;
        LDR      R0,[R4, #+0]
        LDR      R1,[SP, #+0]
        STR      R1,[R7, R0]
// 2938 	}
// 2939 	
// 2940 	message = APP_NOTIFICATION_PROV_START;
// 2941     s2wappMainTaskCtxt->webProvStatus=START;
??APPS2wCmd_WebProv_11:
        MOVS     R1,#+1
        LDR      R0,[R4, #+0]
// 2942 	(s2wappMainTaskNotifier)(message, s2wappMainTaskCtxt);
        LDR.W    R2,??DataTable173_3
        STRB     R1,[R9, R0]
        MOVS     R0,#+30
        LDR      R1,[R4, #+0]
        LDR      R2,[R2, #+0]
          CFI FunCall
        BLX      R2
// 2943 	GsnOsal_SemAcquire(&s2wappMainTaskCtxt->webServerSync,GSN_OSAL_WAIT_FOREVER);
        LDR      R0,[R4, #+0]
        BL       ??Subroutine23_0
// 2944     return s2wappMainTaskCtxt->WebServerCfg.status;
??CrossCallReturnLabel_246:
        LDR      R1,[R4, #+0]
        MOVW     R0,#+27512
        LDRB     R0,[R0, R1]
          CFI EndBlock cfiBlock75
??APPS2wCmd_WebProv_4:
        REQUIRE ?Subroutine0
        ;; // Fall through to label ?Subroutine0
// 2945 }

        SECTION `.text`:CODE:NOROOT(1)
          CFI Block cfiBlock76 Using cfiCommon0
          CFI NoFunction
          CFI NoCalls APPS2wCmd_WebProv
          CFI NoCalls AppS2wCmd_WebServer
          CFI CFA R13+56
          CFI R4 Frame(CFA, -36)
          CFI R5 Frame(CFA, -32)
          CFI R6 Frame(CFA, -28)
          CFI R7 Frame(CFA, -24)
          CFI R8 Frame(CFA, -20)
          CFI R9 Frame(CFA, -16)
          CFI R10 Frame(CFA, -12)
          CFI R11 Frame(CFA, -8)
          CFI R14 Frame(CFA, -4)
        THUMB
?Subroutine0:
        ADD      SP,SP,#+20
          CFI CFA R13+36
        POP      {R4-R11,PC}      ;; return
          CFI EndBlock cfiBlock76

        SECTION `.text`:CODE:NOROOT(2)
        SECTION_TYPE SHT_PROGBITS, 0
        DATA
`?<Constant "DEFAULT">`:
        DC8 "DEFAULT"

        SECTION `.text`:CODE:NOROOT(1)
          CFI Block cfiCond77 Using cfiCommon0
          CFI Function APPS2wCmd_WebProv
          CFI Conditional ??CrossCallReturnLabel_312
          CFI R4 Frame(CFA, -36)
          CFI R5 Frame(CFA, -32)
          CFI R6 Frame(CFA, -28)
          CFI R7 Frame(CFA, -24)
          CFI R8 Frame(CFA, -20)
          CFI R9 Frame(CFA, -16)
          CFI R10 Frame(CFA, -12)
          CFI R11 Frame(CFA, -8)
          CFI R14 Frame(CFA, -4)
          CFI CFA R13+56
          CFI Block cfiCond78 Using cfiCommon0
          CFI (cfiCond78) Function APPS2wCmd_WebProv
          CFI (cfiCond78) Conditional ??CrossCallReturnLabel_311
          CFI (cfiCond78) R4 Frame(CFA, -36)
          CFI (cfiCond78) R5 Frame(CFA, -32)
          CFI (cfiCond78) R6 Frame(CFA, -28)
          CFI (cfiCond78) R7 Frame(CFA, -24)
          CFI (cfiCond78) R8 Frame(CFA, -20)
